///////////////////////////////////////////////////////////////////////////////
//                                                                            /
// IAR C/C++ Compiler V8.10.3.40338/W32 for 8051        25/Jan/2015  16:46:44 /
// Copyright 2004-2011 IAR Systems AB.                                        /
//                                                                            /
//    Core               =  plain                                             /
//    Code model         =  banked                                            /
//    Data model         =  large                                             /
//    Calling convention =  xdata reentrant                                   /
//    Constant location  =  data_rom                                          /
//    Dptr setup         =  1,16                                              /
//    Source file        =  C:\Texas Instruments\ZStack-CC2530-2.5.1a\Project /
//                          s\zstack\Samples\weikong\Source\guu_key.c         /
//    Command line       =  -f "C:\Texas Instruments\ZStack-CC2530-2.5.1a\Pro /
//                          jects\zstack\Samples\GenericApp\CC2531\..\..\..\T /
//                          ools\CC2530DB\f8wCoord.cfg" (-DCPU32MHZ           /
//                          -DROOT=__near_func -DMAC_CFG_APP_PENDING_QUEUE=TR /
//                          UE -DMAC_CFG_TX_DATA_MAX=5 -DMAC_CFG_TX_MAX=8     /
//                          -DMAC_CFG_RX_MAX=5 -DZDO_COORDINATOR -DRTR_NWK)   /
//                          -f "C:\Texas Instruments\ZStack-CC2530-2.5.1a\Pro /
//                          jects\zstack\Samples\GenericApp\CC2531\..\..\..\T /
//                          ools\CC2530DB\f8wConfig.cfg" (-DZIGBEEPRO         /
//                          -DSECURE=0 -DZG_SECURE_DYNAMIC=0 -DREFLECTOR      /
//                          -DDEFAULT_CHANLIST=0x00000800                     /
//                          -DZDAPP_CONFIG_PAN_ID=0xFFFF                      /
//                          -DNWK_START_DELAY=100 -DEXTENDED_JOINING_RANDOM_M /
//                          ASK=0x007F -DBEACON_REQUEST_DELAY=100             /
//                          -DBEACON_REQ_DELAY_MASK=0x00FF                    /
//                          -DLINK_STATUS_JITTER_MASK=0x007F                  /
//                          -DROUTE_EXPIRY_TIME=30 -DAPSC_ACK_WAIT_DURATION_P /
//                          OLLED=3000 -DNWK_INDIRECT_MSG_TIMEOUT=7           /
//                          -DMAX_RREQ_ENTRIES=8 -DAPSC_MAX_FRAME_RETRIES=3   /
//                          -DNWK_MAX_DATA_RETRIES=2                          /
//                          -DMAX_POLL_FAILURE_RETRIES=2 -DMAX_BCAST=9        /
//                          -DAPS_MAX_GROUPS=16 -DMAX_RTG_ENTRIES=40          /
//                          -DNWK_MAX_BINDING_ENTRIES=4                       /
//                          -DMAX_BINDING_CLUSTER_IDS=4                       /
//                          "-DDEFAULT_KEY={0x01, 0x03, 0x05, 0x07, 0x09,     /
//                          0x0B, 0x0D, 0x0F, 0x00, 0x02, 0x04, 0x06, 0x08,   /
//                          0x0A, 0x0C, 0x0D}" -DMAC_MAX_FRAME_SIZE=116       /
//                          -DZDNWKMGR_MIN_TRANSMISSIONS=20 "-DCONST=const    /
//                          __code" -DGENERIC=__generic                       /
//                          -DRFD_RCVC_ALWAYS_ON=FALSE -DPOLL_RATE=1000       /
//                          -DQUEUED_POLL_RATE=100 -DRESPONSE_POLL_RATE=100)  /
//                          -DREJOIN_POLL_RATE=440 "C:\Texas                  /
//                          Instruments\ZStack-CC2530-2.5.1a\Projects\zstack\ /
//                          Samples\weikong\Source\guu_key.c" -D ZTOOL_P1 -D  /
//                          MT_TASK -D MT_AF_FUNC -D MT_AF_CB_FUNC -D         /
//                          MT_APP_FUNC -D MT_DEBUG_FUNC -D MT_NWK_FUNC -D    /
//                          MT_NWK_CB_FUNC -D MT_SYS_FUNC -D MT_SYS_FUNC -D   /
//                          MT_ZDO_FUNC -D MT_UTIL_FUNC -D MT_ZDO_CB_FUNC -D  /
//                          MT_ZDO_MGMT -D LCD_SUPPORTED=FALSE -D             /
//                          HAL_LCD=FALSE -D HAL_LED=FALSE -D                 /
//                          GUU_HAL_LED=TRUE -D NV_INIT -D NV_RESTORE -D      /
//                          xPOWER_SAVING -lC "C:\Texas                       /
//                          Instruments\ZStack-CC2530-2.5.1a\Projects\zstack\ /
//                          Samples\GenericApp\CC2531\Coordinator\List\" -lA  /
//                          "C:\Texas Instruments\ZStack-CC2530-2.5.1a\Projec /
//                          ts\zstack\Samples\GenericApp\CC2531\Coordinator\L /
//                          ist\" --diag_suppress Pe001,Pa010 -o "C:\Texas    /
//                          Instruments\ZStack-CC2530-2.5.1a\Projects\zstack\ /
//                          Samples\GenericApp\CC2531\Coordinator\Obj\" -e    /
//                          --no_code_motion --debug --core=plain             /
//                          --dptr=16,1 --data_model=large                    /
//                          --code_model=banked --calling_convention=xdata_re /
//                          entrant --place_constants=data_rom                /
//                          --nr_virtual_regs 16 -I "C:\Texas                 /
//                          Instruments\ZStack-CC2530-2.5.1a\Projects\zstack\ /
//                          Samples\GenericApp\CC2531\" -I "C:\Texas          /
//                          Instruments\ZStack-CC2530-2.5.1a\Projects\zstack\ /
//                          Samples\GenericApp\CC2531\..\Source\" -I          /
//                          "C:\Texas Instruments\ZStack-CC2530-2.5.1a\Projec /
//                          ts\zstack\Samples\GenericApp\CC2531\..\..\..\ZMai /
//                          n\TI2530DB\" -I "C:\Texas                         /
//                          Instruments\ZStack-CC2530-2.5.1a\Projects\zstack\ /
//                          Samples\GenericApp\CC2531\..\..\..\..\..\Componen /
//                          ts\hal\include\" -I "C:\Texas                     /
//                          Instruments\ZStack-CC2530-2.5.1a\Projects\zstack\ /
//                          Samples\GenericApp\CC2531\..\..\..\..\..\Componen /
//                          ts\hal\target\CC2530USB\" -I "C:\Texas            /
//                          Instruments\ZStack-CC2530-2.5.1a\Projects\zstack\ /
//                          Samples\GenericApp\CC2531\..\..\..\..\..\Componen /
//                          ts\hal\target\CC2530USB\usb\library\" -I          /
//                          "C:\Texas Instruments\ZStack-CC2530-2.5.1a\Projec /
//                          ts\zstack\Samples\GenericApp\CC2531\..\..\..\..\. /
//                          .\Components\hal\target\CC2530USB\usb\library\cc2 /
//                          531\" -I "C:\Texas Instruments\ZStack-CC2530-2.5. /
//                          1a\Projects\zstack\Samples\GenericApp\CC2531\..\. /
//                          .\..\..\..\Components\hal\target\CC2530USB\usb\cl /
//                          ass_cdc\" -I "C:\Texas Instruments\ZStack-CC2530- /
//                          2.5.1a\Projects\zstack\Samples\GenericApp\CC2531\ /
//                          ..\..\..\..\..\Components\mac\include\" -I        /
//                          "C:\Texas Instruments\ZStack-CC2530-2.5.1a\Projec /
//                          ts\zstack\Samples\GenericApp\CC2531\..\..\..\..\. /
//                          .\Components\mac\high_level\" -I "C:\Texas        /
//                          Instruments\ZStack-CC2530-2.5.1a\Projects\zstack\ /
//                          Samples\GenericApp\CC2531\..\..\..\..\..\Componen /
//                          ts\mac\low_level\srf04\" -I "C:\Texas             /
//                          Instruments\ZStack-CC2530-2.5.1a\Projects\zstack\ /
//                          Samples\GenericApp\CC2531\..\..\..\..\..\Componen /
//                          ts\mac\low_level\srf04\single_chip\" -I           /
//                          "C:\Texas Instruments\ZStack-CC2530-2.5.1a\Projec /
//                          ts\zstack\Samples\GenericApp\CC2531\..\..\..\..\. /
//                          .\Components\mt\" -I "C:\Texas                    /
//                          Instruments\ZStack-CC2530-2.5.1a\Projects\zstack\ /
//                          Samples\GenericApp\CC2531\..\..\..\..\..\Componen /
//                          ts\osal\include\" -I "C:\Texas                    /
//                          Instruments\ZStack-CC2530-2.5.1a\Projects\zstack\ /
//                          Samples\GenericApp\CC2531\..\..\..\..\..\Componen /
//                          ts\services\saddr\" -I "C:\Texas                  /
//                          Instruments\ZStack-CC2530-2.5.1a\Projects\zstack\ /
//                          Samples\GenericApp\CC2531\..\..\..\..\..\Componen /
//                          ts\services\sdata\" -I "C:\Texas                  /
//                          Instruments\ZStack-CC2530-2.5.1a\Projects\zstack\ /
//                          Samples\GenericApp\CC2531\..\..\..\..\..\Componen /
//                          ts\stack\af\" -I "C:\Texas                        /
//                          Instruments\ZStack-CC2530-2.5.1a\Projects\zstack\ /
//                          Samples\GenericApp\CC2531\..\..\..\..\..\Componen /
//                          ts\stack\nwk\" -I "C:\Texas                       /
//                          Instruments\ZStack-CC2530-2.5.1a\Projects\zstack\ /
//                          Samples\GenericApp\CC2531\..\..\..\..\..\Componen /
//                          ts\stack\sapi\" -I "C:\Texas                      /
//                          Instruments\ZStack-CC2530-2.5.1a\Projects\zstack\ /
//                          Samples\GenericApp\CC2531\..\..\..\..\..\Componen /
//                          ts\stack\sec\" -I "C:\Texas                       /
//                          Instruments\ZStack-CC2530-2.5.1a\Projects\zstack\ /
//                          Samples\GenericApp\CC2531\..\..\..\..\..\Componen /
//                          ts\stack\sys\" -I "C:\Texas                       /
//                          Instruments\ZStack-CC2530-2.5.1a\Projects\zstack\ /
//                          Samples\GenericApp\CC2531\..\..\..\..\..\Componen /
//                          ts\stack\zdo\" -I "C:\Texas                       /
//                          Instruments\ZStack-CC2530-2.5.1a\Projects\zstack\ /
//                          Samples\GenericApp\CC2531\..\..\..\..\..\Componen /
//                          ts\zmac\" -I "C:\Texas Instruments\ZStack-CC2530- /
//                          2.5.1a\Projects\zstack\Samples\GenericApp\CC2531\ /
//                          ..\..\..\..\..\Components\zmac\f8w\" -I           /
//                          "C:\Texas Instruments\ZStack-CC2530-2.5.1a\Projec /
//                          ts\zstack\Samples\GenericApp\CC2531\..\..\weikong /
//                          \Source\" -Ohz --require_prototypes               /
//    List file          =  C:\Texas Instruments\ZStack-CC2530-2.5.1a\Project /
//                          s\zstack\Samples\GenericApp\CC2531\Coordinator\Li /
//                          st\guu_key.s51                                    /
//                                                                            /
//                                                                            /
///////////////////////////////////////////////////////////////////////////////

        NAME guu_key

        RTMODEL "__SystemLibrary", "CLib"
        RTMODEL "__calling_convention", "xdata_reentrant"
        RTMODEL "__code_model", "banked"
        RTMODEL "__core", "plain"
        RTMODEL "__data_model", "large"
        RTMODEL "__dptr_size", "16"
        RTMODEL "__extended_stack", "disabled"
        RTMODEL "__location_for_constants", "data"
        RTMODEL "__number_of_dptrs", "1"
        RTMODEL "__rt_version", "1"

        RSEG DOVERLAY:DATA:NOROOT(0)
        RSEG IOVERLAY:IDATA:NOROOT(0)
        RSEG ISTACK:IDATA:NOROOT(0)
        RSEG PSTACK:XDATA:NOROOT(0)
        RSEG XSTACK:XDATA:NOROOT(0)

        EXTERN ?BANKED_ENTER_XDATA
        EXTERN ?BANKED_LEAVE_XDATA
        EXTERN ?BDISPATCH
        EXTERN ?BRET
        EXTERN ?S_SHL
        EXTERN ?V0
        EXTERN __INIT_XDATA_Z

        PUBLIC ??get_key_type?relay
        FUNCTION ??get_key_type?relay,0203H
        PUBLIC ??init_guu_key?relay
        FUNCTION ??init_guu_key?relay,0203H
        PUBLIC ??reset_key_cmd?relay
        FUNCTION ??reset_key_cmd?relay,0203H
        PUBLIC ??set_key_type?relay
        FUNCTION ??set_key_type?relay,0203H
        PUBLIC get_key_type
        FUNCTION get_key_type,0203H
        ARGFRAME XSTACK, 0, STACK
        LOCFRAME XSTACK, 10, STACK
        PUBLIC guu_key_type
        PUBLIC init_guu_key
        FUNCTION init_guu_key,0203H
        ARGFRAME XSTACK, 0, STACK
        LOCFRAME ISTACK, 2, STACK
        PUBLIC reset_key_cmd
        FUNCTION reset_key_cmd,021203H
        ARGFRAME XSTACK, 0, STACK
        LOCFRAME XSTACK, 9, STACK
        PUBLIC set_key_type
        FUNCTION set_key_type,0203H
        ARGFRAME XSTACK, 0, STACK
        LOCFRAME XSTACK, 10, STACK
        
        CFI Names cfiNames0
        CFI StackFrame CFA_SP SP IDATA
        CFI StackFrame CFA_PSP16 PSP16 XDATA
        CFI StackFrame CFA_XSP16 XSP16 XDATA
        CFI StaticOverlayFrame CFA_IOVERLAY IOVERLAY
        CFI StaticOverlayFrame CFA_DOVERLAY DOVERLAY
        CFI Resource `PSW.CY`:1, `B.BR0`:1, `B.BR1`:1, `B.BR2`:1, `B.BR3`:1
        CFI Resource `B.BR4`:1, `B.BR5`:1, `B.BR6`:1, `B.BR7`:1, `VB.BR8`:1
        CFI Resource `VB.BR9`:1, `VB.BR10`:1, `VB.BR11`:1, `VB.BR12`:1
        CFI Resource `VB.BR13`:1, `VB.BR14`:1, `VB.BR15`:1, VB:8, B:8, A:8
        CFI Resource PSW:8, DPL0:8, DPH0:8, R0:8, R1:8, R2:8, R3:8, R4:8, R5:8
        CFI Resource R6:8, R7:8, V0:8, V1:8, V2:8, V3:8, V4:8, V5:8, V6:8, V7:8
        CFI Resource V8:8, V9:8, V10:8, V11:8, V12:8, V13:8, V14:8, V15:8, SP:8
        CFI Resource PSPH:8, PSPL:8, PSP16:16, XSPH:8, XSPL:8, XSP16:16
        CFI VirtualResource ?RET:24
        CFI Resource ?BRET_EXT:8
        CFI VirtualResource ?RET_HIGH:8, ?RET_LOW:8
        CFI ResourceParts PSP16 PSPH, PSPL
        CFI ResourceParts XSP16 XSPH, XSPL
        CFI ResourceParts ?RET ?BRET_EXT, ?RET_HIGH, ?RET_LOW
        CFI EndNames cfiNames0
        
        CFI Common cfiCommon0 Using cfiNames0
        CFI CodeAlign 1
        CFI DataAlign -1
        CFI ReturnAddress ?RET CODE
        CFI CFA_DOVERLAY Used
        CFI CFA_IOVERLAY Used
        CFI CFA_SP SP+-3
        CFI CFA_PSP16 PSP16+0
        CFI CFA_XSP16 XSP16+0
        CFI `PSW.CY` SameValue
        CFI `B.BR0` SameValue
        CFI `B.BR1` SameValue
        CFI `B.BR2` SameValue
        CFI `B.BR3` SameValue
        CFI `B.BR4` SameValue
        CFI `B.BR5` SameValue
        CFI `B.BR6` SameValue
        CFI `B.BR7` SameValue
        CFI `VB.BR8` SameValue
        CFI `VB.BR9` SameValue
        CFI `VB.BR10` SameValue
        CFI `VB.BR11` SameValue
        CFI `VB.BR12` SameValue
        CFI `VB.BR13` SameValue
        CFI `VB.BR14` SameValue
        CFI `VB.BR15` SameValue
        CFI VB SameValue
        CFI B Undefined
        CFI A Undefined
        CFI PSW SameValue
        CFI DPL0 SameValue
        CFI DPH0 SameValue
        CFI R0 Undefined
        CFI R1 Undefined
        CFI R2 Undefined
        CFI R3 Undefined
        CFI R4 Undefined
        CFI R5 Undefined
        CFI R6 SameValue
        CFI R7 SameValue
        CFI V0 SameValue
        CFI V1 SameValue
        CFI V2 SameValue
        CFI V3 SameValue
        CFI V4 SameValue
        CFI V5 SameValue
        CFI V6 SameValue
        CFI V7 SameValue
        CFI V8 SameValue
        CFI V9 SameValue
        CFI V10 SameValue
        CFI V11 SameValue
        CFI V12 SameValue
        CFI V13 SameValue
        CFI V14 SameValue
        CFI V15 SameValue
        CFI PSPH Undefined
        CFI PSPL Undefined
        CFI XSPH Undefined
        CFI XSPL Undefined
        CFI ?RET Concat
        CFI ?BRET_EXT Frame(CFA_SP, 3)
        CFI ?RET_HIGH Frame(CFA_SP, 2)
        CFI ?RET_LOW Frame(CFA_SP, 1)
        CFI EndCommon cfiCommon0
        
guu_osal_mem_free   SYMBOL "guu_osal_mem_free"
??guu_osal_mem_free?relay SYMBOL "?relay", guu_osal_mem_free
get_key_type        SYMBOL "get_key_type"
??get_key_type?relay SYMBOL "?relay", get_key_type
init_guu_key        SYMBOL "init_guu_key"
??init_guu_key?relay SYMBOL "?relay", init_guu_key
reset_key_cmd       SYMBOL "reset_key_cmd"
??reset_key_cmd?relay SYMBOL "?relay", reset_key_cmd
set_key_type        SYMBOL "set_key_type"
??set_key_type?relay SYMBOL "?relay", set_key_type

        EXTERN guu_osal_mem_free
        FUNCTION guu_osal_mem_free,0202H
        ARGFRAME ISTACK, 0, STACK
        ARGFRAME PSTACK, 0, STACK
        ARGFRAME XSTACK, 9, STACK
        ARGFRAME IOVERLAY, 0, STATIC
        ARGFRAME DOVERLAY, 0, STATIC
        EXTERN ??guu_osal_mem_free?relay
        FUNCTION ??guu_osal_mem_free?relay,00H
        EXTERN sw_arr

// C:\Texas Instruments\ZStack-CC2530-2.5.1a\Projects\zstack\Samples\weikong\Source\guu_key.c
//    1 
//    2 /*********************************************************************
//    3  * INCLUDES
//    4  */
//    5 #include "OSAL.h"
//    6 #include "AF.h"
//    7 #include "ZDApp.h"
//    8 #include "ZDObject.h"
//    9 #include "ZDProfile.h"
//   10 
//   11 #include "GenericApp.h"
//   12 #include "DebugTrace.h"
//   13 
//   14 #if !defined( WIN32 )
//   15   #include "OnBoard.h"
//   16 #endif
//   17 
//   18 /* HAL */
//   19 #include "hal_lcd.h"
//   20 #include "hal_led.h"
//   21 #include "hal_key.h"
//   22 #include "hal_uart.h"
//   23 #include "guu_data.h"
//   24 #include "guu_io.h"
//   25 #include "guu_key.h"
//   26 #include "base.h"
//   27 
//   28 extern io_cmd_data_t*sw_arr[4];

        RSEG XDATA_Z:XDATA:NOROOT(0)
        DATA8
//   29 uint8 guu_key_type;
guu_key_type:
        DS 1
        REQUIRE __INIT_XDATA_Z
//   30 

        RSEG BANKED_CODE:CODE:NOROOT(0)
//   31 void init_guu_key(void)
init_guu_key:
        CFI Block cfiBlock0 Using cfiCommon0
        CFI Function init_guu_key
        CODE
//   32 {
        PUSH    DPL
        CFI DPL0 Frame(CFA_SP, 4)
        CFI CFA_SP SP+-4
        PUSH    DPH
        CFI DPH0 Frame(CFA_SP, 5)
        CFI CFA_SP SP+-5
        ; Saved register size: 2
        ; Auto size: 0
//   33   guu_key_type = 0;
        MOV     DPTR,#guu_key_type
        CLR     A
        MOVX    @DPTR,A
//   34 }
        POP     DPH
        CFI DPH0 SameValue
        CFI CFA_SP SP+-4
        POP     DPL
        CFI DPL0 SameValue
        CFI CFA_SP SP+-3
        LJMP    ?BRET
        CFI EndBlock cfiBlock0
//   35 

        RSEG BANKED_CODE:CODE:NOROOT(0)
//   36 void set_key_type(uint8 id,uint8 flag)
set_key_type:
        CFI Block cfiBlock1 Using cfiCommon0
        CFI Function set_key_type
        CODE
//   37 {
        MOV     A,#-0xa
        LCALL   ?BANKED_ENTER_XDATA
        CFI DPH0 load(1, XDATA, add(CFA_XSP16, literal(-1)))
        CFI DPL0 load(1, XDATA, add(CFA_XSP16, literal(-2)))
        CFI ?BRET_EXT load(1, XDATA, add(CFA_XSP16, literal(-3)))
        CFI ?RET_HIGH load(1, XDATA, add(CFA_XSP16, literal(-4)))
        CFI ?RET_LOW load(1, XDATA, add(CFA_XSP16, literal(-5)))
        CFI R7 load(1, XDATA, add(CFA_XSP16, literal(-6)))
        CFI V1 load(1, XDATA, add(CFA_XSP16, literal(-7)))
        CFI V0 load(1, XDATA, add(CFA_XSP16, literal(-8)))
        CFI VB load(1, XDATA, add(CFA_XSP16, literal(-9)))
        CFI R6 load(1, XDATA, add(CFA_XSP16, literal(-10)))
        CFI CFA_SP SP+0
        CFI CFA_XSP16 add(XSP16, 10)
        ; Saved register size: 10
        ; Auto size: 0
//   38   // guu_key_type
//   39   // 0-3                                4-7
//   40   // 0 switch, 1 button            reserved
//   41   // 
//   42   if( id >0 && id < 5) // 1234
        MOV     A,#-0x1
        ADD     A,R1
        CLR     C
        SUBB    A,#0x4
        JNC     ??set_key_type_0
//   43   {
//   44     if(flag == BE_SWITCH)
        MOV     A,R2
        MOV     ?V0 + 0,#0x1
        MOV     ?V0 + 1,#0x0
        JNZ     ??set_key_type_1
//   45     {
//   46       guu_key_type &= ~BV(id);
        MOV     A,R1
        MOV     R0,#?V0 + 0
        LCALL   ?S_SHL
        MOV     A,?V0 + 0
        CPL     A
        MOV     R0,A
        MOV     DPTR,#guu_key_type
        MOVX    A,@DPTR
        ANL     A,R0
        SJMP    ??set_key_type_2
//   47     }else
//   48     {
//   49       guu_key_type |= BV(id);
??set_key_type_1:
        MOV     A,R1
        MOV     R0,#?V0 + 0
        LCALL   ?S_SHL
        MOV     DPTR,#guu_key_type
        MOVX    A,@DPTR
        ORL     A,?V0 + 0
??set_key_type_2:
        MOVX    @DPTR,A
        CFI EndBlock cfiBlock1
//   50     }
//   51   }
//   52   return;
??set_key_type_0:
        REQUIRE ?Subroutine0
        ; // Fall through to label ?Subroutine0
//   53 }

        RSEG BANKED_CODE:CODE:NOROOT(0)
?Subroutine0:
        CFI Block cfiBlock2 Using cfiCommon0
        CFI NoFunction
        CFI CFA_SP SP+0
        CFI CFA_XSP16 add(XSP16, 10)
        CFI VB load(1, XDATA, add(CFA_XSP16, literal(-9)))
        CFI DPL0 load(1, XDATA, add(CFA_XSP16, literal(-2)))
        CFI DPH0 load(1, XDATA, add(CFA_XSP16, literal(-1)))
        CFI R6 load(1, XDATA, add(CFA_XSP16, literal(-10)))
        CFI R7 load(1, XDATA, add(CFA_XSP16, literal(-6)))
        CFI V0 load(1, XDATA, add(CFA_XSP16, literal(-8)))
        CFI V1 load(1, XDATA, add(CFA_XSP16, literal(-7)))
        CFI ?BRET_EXT load(1, XDATA, add(CFA_XSP16, literal(-3)))
        CFI ?RET_HIGH load(1, XDATA, add(CFA_XSP16, literal(-4)))
        CFI ?RET_LOW load(1, XDATA, add(CFA_XSP16, literal(-5)))
        MOV     R7,#0x2
        LJMP    ?BANKED_LEAVE_XDATA
        CFI EndBlock cfiBlock2
//   54 

        RSEG BANKED_CODE:CODE:NOROOT(0)
//   55 uint8 get_key_type(uint8 id)
get_key_type:
        CFI Block cfiBlock3 Using cfiCommon0
        CFI Function get_key_type
        CODE
//   56 {
        MOV     A,#-0xa
        LCALL   ?BANKED_ENTER_XDATA
        CFI DPH0 load(1, XDATA, add(CFA_XSP16, literal(-1)))
        CFI DPL0 load(1, XDATA, add(CFA_XSP16, literal(-2)))
        CFI ?BRET_EXT load(1, XDATA, add(CFA_XSP16, literal(-3)))
        CFI ?RET_HIGH load(1, XDATA, add(CFA_XSP16, literal(-4)))
        CFI ?RET_LOW load(1, XDATA, add(CFA_XSP16, literal(-5)))
        CFI R7 load(1, XDATA, add(CFA_XSP16, literal(-6)))
        CFI V1 load(1, XDATA, add(CFA_XSP16, literal(-7)))
        CFI V0 load(1, XDATA, add(CFA_XSP16, literal(-8)))
        CFI VB load(1, XDATA, add(CFA_XSP16, literal(-9)))
        CFI R6 load(1, XDATA, add(CFA_XSP16, literal(-10)))
        CFI CFA_SP SP+0
        CFI CFA_XSP16 add(XSP16, 10)
        ; Saved register size: 10
        ; Auto size: 0
        MOV     A,R1
        MOV     R2,A
//   57   if(id >0 && id < 5)
        MOV     A,#-0x1
        ADD     A,R2
        CLR     C
        SUBB    A,#0x4
        JNC     ??get_key_type_0
//   58   {
//   59     if(guu_key_type & BV(id))
        MOV     ?V0 + 0,#0x1
        MOV     ?V0 + 1,#0x0
        MOV     A,R2
        MOV     R0,#?V0 + 0
        LCALL   ?S_SHL
        MOV     DPTR,#guu_key_type
        MOVX    A,@DPTR
        ANL     A,?V0 + 0
        JZ      ??get_key_type_1
//   60     {
//   61       return BE_BUTTON;
        MOV     R1,#0x1
        SJMP    ??get_key_type_0
//   62     }else
//   63     {
//   64       return BE_SWITCH;
??get_key_type_1:
        MOV     R1,#0x0
//   65     }
//   66   }
//   67   
//   68   return id;
??get_key_type_0:
        SJMP    ?Subroutine0
        CFI EndBlock cfiBlock3
//   69 }
//   70 

        RSEG BANKED_CODE:CODE:NOROOT(0)
//   71 void reset_key_cmd(uint8 id)//重置按键绑定的内存缓冲区
reset_key_cmd:
        CFI Block cfiBlock4 Using cfiCommon0
        CFI Function reset_key_cmd
        CODE
//   72 {
        FUNCALL reset_key_cmd, guu_osal_mem_free
        LOCFRAME ISTACK, 0, STACK
        LOCFRAME PSTACK, 0, STACK
        LOCFRAME XSTACK, 9, STACK
        LOCFRAME IOVERLAY, 0, STATIC
        LOCFRAME DOVERLAY, 0, STATIC
        ARGFRAME ISTACK, 0, STACK
        ARGFRAME PSTACK, 0, STACK
        ARGFRAME XSTACK, 9, STACK
        ARGFRAME IOVERLAY, 0, STATIC
        ARGFRAME DOVERLAY, 0, STATIC
        MOV     A,#-0x9
        LCALL   ?BANKED_ENTER_XDATA
        CFI DPH0 load(1, XDATA, add(CFA_XSP16, literal(-1)))
        CFI DPL0 load(1, XDATA, add(CFA_XSP16, literal(-2)))
        CFI ?BRET_EXT load(1, XDATA, add(CFA_XSP16, literal(-3)))
        CFI ?RET_HIGH load(1, XDATA, add(CFA_XSP16, literal(-4)))
        CFI ?RET_LOW load(1, XDATA, add(CFA_XSP16, literal(-5)))
        CFI R7 load(1, XDATA, add(CFA_XSP16, literal(-6)))
        CFI V0 load(1, XDATA, add(CFA_XSP16, literal(-7)))
        CFI VB load(1, XDATA, add(CFA_XSP16, literal(-8)))
        CFI R6 load(1, XDATA, add(CFA_XSP16, literal(-9)))
        CFI CFA_SP SP+0
        CFI CFA_XSP16 add(XSP16, 9)
        ; Saved register size: 9
        ; Auto size: 0
        MOV     ?V0 + 0,R1
//   73   if(id >0 && id < 5)
        MOV     A,#-0x1
        ADD     A,?V0 + 0
        CLR     C
        SUBB    A,#0x4
        JNC     ??reset_key_cmd_0
//   74   {
//   75     if(sw_arr[id] !=NULL)
        MOV     A,R1
        CLR     C
        RLC     A
        MOV     R0,A
        CLR     A
        RLC     A
        MOV     R1,A
        MOV     A,#sw_arr & 0xff
        ADD     A,R0
        MOV     DPL,A
        MOV     A,#(sw_arr >> 8) & 0xff
        ADDC    A,R1
        MOV     DPH,A
        MOVX    A,@DPTR
        MOV     R0,A
        INC     DPTR
        MOVX    A,@DPTR
        MOV     R1,A
        MOV     A,R0
        ORL     A,R1
        JZ      ??reset_key_cmd_0
//   76     {
//   77       guu_osal_mem_free(sw_arr[id]);
        MOV     A,?V0 + 0
        CLR     C
        RLC     A
        MOV     R0,A
        CLR     A
        RLC     A
        MOV     R1,A
        MOV     A,#sw_arr & 0xff
        ADD     A,R0
        MOV     R0,A
        MOV     A,#(sw_arr >> 8) & 0xff
        ADDC    A,R1
        MOV     R1,A
        MOV     A,R0
        MOV     R6,A
        MOV     A,R1
        MOV     R7,A
        ; Setup parameters for call to function guu_osal_mem_free
        MOV     DPL,R6
        MOV     DPH,R7
        MOVX    A,@DPTR
        MOV     R2,A
        INC     DPTR
        MOVX    A,@DPTR
        MOV     R3,A
        LCALL   ??guu_osal_mem_free?relay
//   78       sw_arr[id]=NULL;
        MOV     DPL,R6
        MOV     DPH,R7
        CLR     A
        MOVX    @DPTR,A
        INC     DPTR
        MOVX    @DPTR,A
//   79     }
//   80   }
//   81 }
??reset_key_cmd_0:
        MOV     R7,#0x1
        LJMP    ?BANKED_LEAVE_XDATA
        CFI EndBlock cfiBlock4

        RSEG BANK_RELAYS:CODE:REORDER:NOROOT(0)
??init_guu_key?relay:
        LCALL   ?BDISPATCH
        DATA
        DC24    init_guu_key

        RSEG BANK_RELAYS:CODE:REORDER:NOROOT(0)
??set_key_type?relay:
        LCALL   ?BDISPATCH
        DATA
        DC24    set_key_type

        RSEG BANK_RELAYS:CODE:REORDER:NOROOT(0)
??get_key_type?relay:
        LCALL   ?BDISPATCH
        DATA
        DC24    get_key_type

        RSEG BANK_RELAYS:CODE:REORDER:NOROOT(0)
??reset_key_cmd?relay:
        LCALL   ?BDISPATCH
        DATA
        DC24    reset_key_cmd

        END
// 
// 203 bytes in segment BANKED_CODE
//  24 bytes in segment BANK_RELAYS
//   1 byte  in segment XDATA_Z
// 
// 227 bytes of CODE  memory
//   1 byte  of XDATA memory
//
//Errors: none
//Warnings: none
