###############################################################################
#                                                                             #
# IAR C/C++ Compiler V8.10.3.40338/W32 for 8051         25/Jan/2015  16:46:40 #
# Copyright 2004-2011 IAR Systems AB.                                         #
#                                                                             #
#    Core               =  plain                                              #
#    Code model         =  banked                                             #
#    Data model         =  large                                              #
#    Calling convention =  xdata reentrant                                    #
#    Constant location  =  data_rom                                           #
#    Dptr setup         =  1,16                                               #
#    Source file        =  C:\Texas Instruments\ZStack-CC2530-2.5.1a\Projects #
#                          \zstack\ZMain\TI2530DB\ZMain.c                     #
#    Command line       =  -f "C:\Texas Instruments\ZStack-CC2530-2.5.1a\Proj #
#                          ects\zstack\Samples\GenericApp\CC2531\..\..\..\Too #
#                          ls\CC2530DB\f8wCoord.cfg" (-DCPU32MHZ              #
#                          -DROOT=__near_func -DMAC_CFG_APP_PENDING_QUEUE=TRU #
#                          E -DMAC_CFG_TX_DATA_MAX=5 -DMAC_CFG_TX_MAX=8       #
#                          -DMAC_CFG_RX_MAX=5 -DZDO_COORDINATOR -DRTR_NWK)    #
#                          -f "C:\Texas Instruments\ZStack-CC2530-2.5.1a\Proj #
#                          ects\zstack\Samples\GenericApp\CC2531\..\..\..\Too #
#                          ls\CC2530DB\f8wConfig.cfg" (-DZIGBEEPRO            #
#                          -DSECURE=0 -DZG_SECURE_DYNAMIC=0 -DREFLECTOR       #
#                          -DDEFAULT_CHANLIST=0x00000800                      #
#                          -DZDAPP_CONFIG_PAN_ID=0xFFFF                       #
#                          -DNWK_START_DELAY=100 -DEXTENDED_JOINING_RANDOM_MA #
#                          SK=0x007F -DBEACON_REQUEST_DELAY=100               #
#                          -DBEACON_REQ_DELAY_MASK=0x00FF                     #
#                          -DLINK_STATUS_JITTER_MASK=0x007F                   #
#                          -DROUTE_EXPIRY_TIME=30 -DAPSC_ACK_WAIT_DURATION_PO #
#                          LLED=3000 -DNWK_INDIRECT_MSG_TIMEOUT=7             #
#                          -DMAX_RREQ_ENTRIES=8 -DAPSC_MAX_FRAME_RETRIES=3    #
#                          -DNWK_MAX_DATA_RETRIES=2                           #
#                          -DMAX_POLL_FAILURE_RETRIES=2 -DMAX_BCAST=9         #
#                          -DAPS_MAX_GROUPS=16 -DMAX_RTG_ENTRIES=40           #
#                          -DNWK_MAX_BINDING_ENTRIES=4                        #
#                          -DMAX_BINDING_CLUSTER_IDS=4 "-DDEFAULT_KEY={0x01,  #
#                          0x03, 0x05, 0x07, 0x09, 0x0B, 0x0D, 0x0F, 0x00,    #
#                          0x02, 0x04, 0x06, 0x08, 0x0A, 0x0C, 0x0D}"         #
#                          -DMAC_MAX_FRAME_SIZE=116                           #
#                          -DZDNWKMGR_MIN_TRANSMISSIONS=20 "-DCONST=const     #
#                          __code" -DGENERIC=__generic                        #
#                          -DRFD_RCVC_ALWAYS_ON=FALSE -DPOLL_RATE=1000        #
#                          -DQUEUED_POLL_RATE=100 -DRESPONSE_POLL_RATE=100)   #
#                          -DREJOIN_POLL_RATE=440 "C:\Texas                   #
#                          Instruments\ZStack-CC2530-2.5.1a\Projects\zstack\Z #
#                          Main\TI2530DB\ZMain.c" -D ZTOOL_P1 -D MT_TASK -D   #
#                          MT_AF_FUNC -D MT_AF_CB_FUNC -D MT_APP_FUNC -D      #
#                          MT_DEBUG_FUNC -D MT_NWK_FUNC -D MT_NWK_CB_FUNC -D  #
#                          MT_SYS_FUNC -D MT_SYS_FUNC -D MT_ZDO_FUNC -D       #
#                          MT_UTIL_FUNC -D MT_ZDO_CB_FUNC -D MT_ZDO_MGMT -D   #
#                          LCD_SUPPORTED=FALSE -D HAL_LCD=FALSE -D            #
#                          HAL_LED=FALSE -D GUU_HAL_LED=TRUE -D NV_INIT -D    #
#                          NV_RESTORE -D xPOWER_SAVING -lC "C:\Texas          #
#                          Instruments\ZStack-CC2530-2.5.1a\Projects\zstack\S #
#                          amples\GenericApp\CC2531\Coordinator\List\" -lA    #
#                          "C:\Texas Instruments\ZStack-CC2530-2.5.1a\Project #
#                          s\zstack\Samples\GenericApp\CC2531\Coordinator\Lis #
#                          t\" --diag_suppress Pe001,Pa010 -o "C:\Texas       #
#                          Instruments\ZStack-CC2530-2.5.1a\Projects\zstack\S #
#                          amples\GenericApp\CC2531\Coordinator\Obj\" -e      #
#                          --no_code_motion --debug --core=plain --dptr=16,1  #
#                          --data_model=large --code_model=banked             #
#                          --calling_convention=xdata_reentrant               #
#                          --place_constants=data_rom --nr_virtual_regs 16    #
#                          -I "C:\Texas Instruments\ZStack-CC2530-2.5.1a\Proj #
#                          ects\zstack\Samples\GenericApp\CC2531\" -I         #
#                          "C:\Texas Instruments\ZStack-CC2530-2.5.1a\Project #
#                          s\zstack\Samples\GenericApp\CC2531\..\Source\" -I  #
#                          "C:\Texas Instruments\ZStack-CC2530-2.5.1a\Project #
#                          s\zstack\Samples\GenericApp\CC2531\..\..\..\ZMain\ #
#                          TI2530DB\" -I "C:\Texas Instruments\ZStack-CC2530- #
#                          2.5.1a\Projects\zstack\Samples\GenericApp\CC2531\. #
#                          .\..\..\..\..\Components\hal\include\" -I          #
#                          "C:\Texas Instruments\ZStack-CC2530-2.5.1a\Project #
#                          s\zstack\Samples\GenericApp\CC2531\..\..\..\..\..\ #
#                          Components\hal\target\CC2530USB\" -I "C:\Texas     #
#                          Instruments\ZStack-CC2530-2.5.1a\Projects\zstack\S #
#                          amples\GenericApp\CC2531\..\..\..\..\..\Components #
#                          \hal\target\CC2530USB\usb\library\" -I "C:\Texas   #
#                          Instruments\ZStack-CC2530-2.5.1a\Projects\zstack\S #
#                          amples\GenericApp\CC2531\..\..\..\..\..\Components #
#                          \hal\target\CC2530USB\usb\library\cc2531\" -I      #
#                          "C:\Texas Instruments\ZStack-CC2530-2.5.1a\Project #
#                          s\zstack\Samples\GenericApp\CC2531\..\..\..\..\..\ #
#                          Components\hal\target\CC2530USB\usb\class_cdc\"    #
#                          -I "C:\Texas Instruments\ZStack-CC2530-2.5.1a\Proj #
#                          ects\zstack\Samples\GenericApp\CC2531\..\..\..\..\ #
#                          ..\Components\mac\include\" -I "C:\Texas           #
#                          Instruments\ZStack-CC2530-2.5.1a\Projects\zstack\S #
#                          amples\GenericApp\CC2531\..\..\..\..\..\Components #
#                          \mac\high_level\" -I "C:\Texas                     #
#                          Instruments\ZStack-CC2530-2.5.1a\Projects\zstack\S #
#                          amples\GenericApp\CC2531\..\..\..\..\..\Components #
#                          \mac\low_level\srf04\" -I "C:\Texas                #
#                          Instruments\ZStack-CC2530-2.5.1a\Projects\zstack\S #
#                          amples\GenericApp\CC2531\..\..\..\..\..\Components #
#                          \mac\low_level\srf04\single_chip\" -I "C:\Texas    #
#                          Instruments\ZStack-CC2530-2.5.1a\Projects\zstack\S #
#                          amples\GenericApp\CC2531\..\..\..\..\..\Components #
#                          \mt\" -I "C:\Texas Instruments\ZStack-CC2530-2.5.1 #
#                          a\Projects\zstack\Samples\GenericApp\CC2531\..\..\ #
#                          ..\..\..\Components\osal\include\" -I "C:\Texas    #
#                          Instruments\ZStack-CC2530-2.5.1a\Projects\zstack\S #
#                          amples\GenericApp\CC2531\..\..\..\..\..\Components #
#                          \services\saddr\" -I "C:\Texas                     #
#                          Instruments\ZStack-CC2530-2.5.1a\Projects\zstack\S #
#                          amples\GenericApp\CC2531\..\..\..\..\..\Components #
#                          \services\sdata\" -I "C:\Texas                     #
#                          Instruments\ZStack-CC2530-2.5.1a\Projects\zstack\S #
#                          amples\GenericApp\CC2531\..\..\..\..\..\Components #
#                          \stack\af\" -I "C:\Texas                           #
#                          Instruments\ZStack-CC2530-2.5.1a\Projects\zstack\S #
#                          amples\GenericApp\CC2531\..\..\..\..\..\Components #
#                          \stack\nwk\" -I "C:\Texas                          #
#                          Instruments\ZStack-CC2530-2.5.1a\Projects\zstack\S #
#                          amples\GenericApp\CC2531\..\..\..\..\..\Components #
#                          \stack\sapi\" -I "C:\Texas                         #
#                          Instruments\ZStack-CC2530-2.5.1a\Projects\zstack\S #
#                          amples\GenericApp\CC2531\..\..\..\..\..\Components #
#                          \stack\sec\" -I "C:\Texas                          #
#                          Instruments\ZStack-CC2530-2.5.1a\Projects\zstack\S #
#                          amples\GenericApp\CC2531\..\..\..\..\..\Components #
#                          \stack\sys\" -I "C:\Texas                          #
#                          Instruments\ZStack-CC2530-2.5.1a\Projects\zstack\S #
#                          amples\GenericApp\CC2531\..\..\..\..\..\Components #
#                          \stack\zdo\" -I "C:\Texas                          #
#                          Instruments\ZStack-CC2530-2.5.1a\Projects\zstack\S #
#                          amples\GenericApp\CC2531\..\..\..\..\..\Components #
#                          \zmac\" -I "C:\Texas Instruments\ZStack-CC2530-2.5 #
#                          .1a\Projects\zstack\Samples\GenericApp\CC2531\..\. #
#                          .\..\..\..\Components\zmac\f8w\" -I "C:\Texas      #
#                          Instruments\ZStack-CC2530-2.5.1a\Projects\zstack\S #
#                          amples\GenericApp\CC2531\..\..\weikong\Source\"    #
#                          -Ohz --require_prototypes                          #
#    List file          =  C:\Texas Instruments\ZStack-CC2530-2.5.1a\Projects #
#                          \zstack\Samples\GenericApp\CC2531\Coordinator\List #
#                          \ZMain.lst                                         #
#    Object file        =  C:\Texas Instruments\ZStack-CC2530-2.5.1a\Projects #
#                          \zstack\Samples\GenericApp\CC2531\Coordinator\Obj\ #
#                          ZMain.r51                                          #
#                                                                             #
#                                                                             #
###############################################################################

C:\Texas Instruments\ZStack-CC2530-2.5.1a\Projects\zstack\ZMain\TI2530DB\ZMain.c
      1          /**************************************************************************************************
      2            Filename:       ZMain.c
      3            Revised:        $Date: 2010-09-17 16:25:30 -0700 (Fri, 17 Sep 2010) $
      4            Revision:       $Revision: 23835 $
      5          
      6            Description:    Startup and shutdown code for ZStack
      7            Notes:          This version targets the Chipcon CC2530
      8          
      9          
     10            Copyright 2005-2010 Texas Instruments Incorporated. All rights reserved.
     11          
     12            IMPORTANT: Your use of this Software is limited to those specific rights
     13            granted under the terms of a software license agreement between the user
     14            who downloaded the software, his/her employer (which must be your employer)
     15            and Texas Instruments Incorporated (the "License").  You may not use this
     16            Software unless you agree to abide by the terms of the License. The License
     17            limits your use, and you acknowledge, that the Software may not be modified,
     18            copied or distributed unless embedded on a Texas Instruments microcontroller
     19            or used solely and exclusively in conjunction with a Texas Instruments radio
     20            frequency transceiver, which is integrated into your product.  Other than for
     21            the foregoing purpose, you may not use, reproduce, copy, prepare derivative
     22            works of, modify, distribute, perform, display or sell this Software and/or
     23            its documentation for any purpose.
     24          
     25            YOU FURTHER ACKNOWLEDGE AND AGREE THAT THE SOFTWARE AND DOCUMENTATION ARE
     26            PROVIDED AS IS?WITHOUT WARRANTY OF ANY KIND, EITHER EXPRESS OR IMPLIED,
     27            INCLUDING WITHOUT LIMITATION, ANY WARRANTY OF MERCHANTABILITY, TITLE,
     28            NON-INFRINGEMENT AND FITNESS FOR A PARTICULAR PURPOSE. IN NO EVENT SHALL
     29            TEXAS INSTRUMENTS OR ITS LICENSORS BE LIABLE OR OBLIGATED UNDER CONTRACT,
     30            NEGLIGENCE, STRICT LIABILITY, CONTRIBUTION, BREACH OF WARRANTY, OR OTHER
     31            LEGAL EQUITABLE THEORY ANY DIRECT OR INDIRECT DAMAGES OR EXPENSES
     32            INCLUDING BUT NOT LIMITED TO ANY INCIDENTAL, SPECIAL, INDIRECT, PUNITIVE
     33            OR CONSEQUENTIAL DAMAGES, LOST PROFITS OR LOST DATA, COST OF PROCUREMENT
     34            OF SUBSTITUTE GOODS, TECHNOLOGY, SERVICES, OR ANY CLAIMS BY THIRD PARTIES
     35            (INCLUDING BUT NOT LIMITED TO ANY DEFENSE THEREOF), OR OTHER SIMILAR COSTS.
     36          
     37            Should you have any questions regarding your right to use this Software,
     38            contact Texas Instruments Incorporated at www.TI.com.
     39          **************************************************************************************************/
     40          
     41          /*********************************************************************
     42           * INCLUDES
     43           */
     44          
     45          #ifndef NONWK
     46          #include "AF.h"
     47          #endif
     48          #include "hal_adc.h"

   \                                 In  segment SFR_AN, at 0x9d
   \   unsigned char volatile __sfr SLEEPSTA
   \                     SLEEPSTA:
   \   000000                DS 1

   \                                 In  segment SFR_AN, at 0x9e
   \   unsigned char volatile __sfr CLKCONSTA
   \                     CLKCONSTA:
   \   000000                DS 1

   \                                 In  segment SFR_AN, at 0xbe
   \   unsigned char volatile __sfr SLEEPCMD
   \                     SLEEPCMD:
   \   000000                DS 1

   \                                 In  segment SFR_AN, at 0xc6
   \   unsigned char volatile __sfr CLKCONCMD
   \                     CLKCONCMD:
   \   000000                DS 1
     49          #include "hal_flash.h"
     50          #include "hal_lcd.h"
     51          #include "hal_led.h"
     52          #include "hal_drivers.h"
     53          #include "OnBoard.h"
     54          #include "OSAL.h"
     55          #include "OSAL_Nv.h"
     56          #include "ZComDef.h"
     57          #include "ZMAC.h"
     58          
     59          #include "base.h"
     60          /*********************************************************************
     61           * LOCAL FUNCTIONS
     62           */
     63          
     64          static void zmain_ext_addr( void );
     65          #if defined ZCL_KEY_ESTABLISH
     66          static void zmain_cert_init( void );
     67          #endif
     68          static void zmain_dev_info( void );
     69          static void zmain_vdd_check( void );
     70          
     71          #ifdef LCD_SUPPORTED
     72          static void zmain_lcd_init( void );
     73          #endif
     74          
     75          /*********************************************************************
     76           * @fn      main
     77           * @brief   First function called after startup.
     78           * @return  don't care
     79           */
     80          

   \                                 In  segment XDATA_Z, align 1, keep-with-next
     81          uint32 _zgDefaultChannelList;
   \                     _zgDefaultChannelList:
   \   000000                DS 4
   \   000004                REQUIRE __INIT_XDATA_Z

   \                                 In  segment XDATA_I, align 1, keep-with-next
     82          uint16 _zgConfigPANID=0xffff;
   \                     _zgConfigPANID:
   \   000000                DS 2
   \   000002                REQUIRE `?<Initializer for _zgConfigPANID>`
   \   000002                REQUIRE __INIT_XDATA_I
     83          

   \                                 In  segment BANKED_CODE, align 1, keep-with-next
     84          int main( void )
   \                     main:
     85          {
   \   000000                ; Auto size: 0
     86          
     87            uint16 size;
     88            // Turn off interrupts
     89            osal_int_disable( INTS_ALL );
   \   000000                ; Setup parameters for call to function osal_int_disable
   \   000000   79FF         MOV     R1,#-0x1
   \   000002   12....       LCALL   ??osal_int_disable?relay
     90          
     91            // Initialization for board related stuff such as LEDs
     92            HAL_BOARD_INIT();
   \   000005   53BEFB       ANL     0xbe,#0xfb
   \                     ??main_0:
   \   000008   E59D         MOV     A,0x9d
   \   00000A   A2E6         MOV     C,0xE0 /* A   */.6
   \   00000C   50FA         JNC     ??main_0
   \   00000E   00           NOP
   \   00000F   78F8         MOV     R0,#-0x8
   \   000011   7901         MOV     R1,#0x1
   \                     ??main_1:
   \   000013   00           NOP
   \   000014   E8           MOV     A,R0
   \   000015   24FF         ADD     A,#-0x1
   \   000017   18           DEC     R0
   \   000018   E9           MOV     A,R1
   \   000019   34FF         ADDC    A,#-0x1
   \   00001B   F9           MOV     R1,A
   \   00001C   E8           MOV     A,R0
   \   00001D   49           ORL     A,R1
   \   00001E   70F3         JNZ     ??main_1
   \   000020   75C680       MOV     0xc6,#-0x80
   \                     ??main_2:
   \   000023   7480         MOV     A,#-0x80
   \   000025   659E         XRL     A,0x9e
   \   000027   70FA         JNZ     ??main_2
   \   000029   43BE04       ORL     0xbe,#0x4
   \   00002C   906270       MOV     DPTR,#0x6270
   \   00002F   7408         MOV     A,#0x8
   \   000031   F0           MOVX    @DPTR,A
     93          
     94            // Make sure supply voltage is high enough to run
     95            zmain_vdd_check();
   \   000032   7E10         MOV     R6,#0x10
   \                     ??main_3:
   \   000034                ; Setup parameters for call to function HalAdcCheckVdd
   \   000034   794A         MOV     R1,#0x4a
   \   000036   12....       LCALL   ??HalAdcCheckVdd?relay
   \   000039   E9           MOV     A,R1
   \   00003A   60F8         JZ      ??main_3
   \   00003C   1E           DEC     R6
   \   00003D   EE           MOV     A,R6
   \   00003E   70F4         JNZ     ??main_3
     96          
     97            // Initialize board I/O
     98            InitBoard( OB_COLD );
   \   000040                ; Setup parameters for call to function InitBoard
   \   000040   7900         MOV     R1,#0x0
   \   000042   12....       LCALL   ??InitBoard?relay
     99          
    100            // Initialze HAL drivers
    101            HalDriverInit(); //这儿包括了HalKeyInit等初始化
   \   000045                ; Setup parameters for call to function HalDriverInit
   \   000045   12....       LCALL   ??HalDriverInit?relay
    102          
    103            // Initialize NV System
    104          
    105            osal_nv_init( NULL );
   \   000048                ; Setup parameters for call to function osal_nv_init
   \   000048   7A00         MOV     R2,#0x0
   \   00004A   7B00         MOV     R3,#0x0
   \   00004C   12....       LCALL   ??osal_nv_init?relay
    106            
    107            
    108            size = osal_nv_item_len( ZCD_NV_CHANLIST);
   \   00004F                ; Setup parameters for call to function osal_nv_item_len
   \   00004F   7A84         MOV     R2,#-0x7c
   \   000051   12....       LCALL   ?Subroutine1 & 0xFFFF
    109            if( size  <= sizeof(zgDefaultChannelList) && size != 0  )
   \                     ??CrossCallReturnLabel_3:
   \   000054   9405         SUBB    A,#0x5
   \   000056   E9           MOV     A,R1
   \   000057   9400         SUBB    A,#0x0
   \   000059   502A         JNC     ??main_4
   \   00005B   E8           MOV     A,R0
   \   00005C   49           ORL     A,R1
   \   00005D   6026         JZ      ??main_4
    110            {
    111                //if(guu_osal_nv_item_init( ZCD_NV_CHANLIST, sizeof(_zgDefaultChannelList), &_zgDefaultChannelList))
    112                guu_osal_nv_read(  ZCD_NV_CHANLIST, 0, sizeof(_zgDefaultChannelList), &_zgDefaultChannelList);
   \   00005F                ; Setup parameters for call to function guu_osal_nv_read
   \   00005F   75....       MOV     ?V0 + 0,#_zgDefaultChannelList & 0xff
   \   000062   75....       MOV     ?V0 + 1,#(_zgDefaultChannelList >> 8) & 0xff
   \   000065   78..         MOV     R0,#?V0 + 0
   \   000067   12....       LCALL   ?PUSH_XSTACK_I_TWO
   \   00006A   75..04       MOV     ?V0 + 0,#0x4
   \   00006D   75..00       MOV     ?V0 + 1,#0x0
   \   000070   78..         MOV     R0,#?V0 + 0
   \   000072   12....       LCALL   ?PUSH_XSTACK_I_TWO
   \   000075   7C00         MOV     R4,#0x0
   \   000077   7D00         MOV     R5,#0x0
   \   000079   7A84         MOV     R2,#-0x7c
   \   00007B   7B00         MOV     R3,#0x0
   \   00007D   12....       LCALL   ??guu_osal_nv_read?relay
   \   000080   7404         MOV     A,#0x4
   \   000082   12....       LCALL   ?DEALLOC_XSTACK8
    113            }
    114            //guu_osal_nv_item_init( ZCD_NV_PANID, sizeof(_zgConfigPANID), &_zgConfigPANID);
    115            size = osal_nv_item_len( ZCD_NV_PANID);
   \                     ??main_4:
   \   000085                ; Setup parameters for call to function osal_nv_item_len
   \   000085   7A83         MOV     R2,#-0x7d
   \   000087   12....       LCALL   ?Subroutine1 & 0xFFFF
    116            /// 改变 panid ，在启动时
    117            if( size  <= sizeof(zgConfigPANID) && size != 0  )
   \                     ??CrossCallReturnLabel_4:
   \   00008A   9403         SUBB    A,#0x3
   \   00008C   E9           MOV     A,R1
   \   00008D   9400         SUBB    A,#0x0
   \   00008F   502A         JNC     ??main_5
   \   000091   E8           MOV     A,R0
   \   000092   49           ORL     A,R1
   \   000093   6026         JZ      ??main_5
    118            {
    119                //if( guu_osal_nv_item_init( ZCD_NV_PANID, sizeof(_zgConfigPANID), &_zgConfigPANID) )
    120                guu_osal_nv_read(  ZCD_NV_PANID, 0, sizeof(_zgConfigPANID), &_zgConfigPANID);
   \   000095                ; Setup parameters for call to function guu_osal_nv_read
   \   000095   75....       MOV     ?V0 + 0,#_zgConfigPANID & 0xff
   \   000098   75....       MOV     ?V0 + 1,#(_zgConfigPANID >> 8) & 0xff
   \   00009B   78..         MOV     R0,#?V0 + 0
   \   00009D   12....       LCALL   ?PUSH_XSTACK_I_TWO
   \   0000A0   75..02       MOV     ?V0 + 0,#0x2
   \   0000A3   75..00       MOV     ?V0 + 1,#0x0
   \   0000A6   78..         MOV     R0,#?V0 + 0
   \   0000A8   12....       LCALL   ?PUSH_XSTACK_I_TWO
   \   0000AB   7C00         MOV     R4,#0x0
   \   0000AD   7D00         MOV     R5,#0x0
   \   0000AF   7A83         MOV     R2,#-0x7d
   \   0000B1   7B00         MOV     R3,#0x0
   \   0000B3   12....       LCALL   ??guu_osal_nv_read?relay
   \   0000B6   7404         MOV     A,#0x4
   \   0000B8   12....       LCALL   ?DEALLOC_XSTACK8
    121            }
    122            
    123            // Initialize the MAC
    124            ZMacInit();
   \                     ??main_5:
   \   0000BB                ; Setup parameters for call to function ZMacInit
   \   0000BB   12....       LCALL   ??ZMacInit?relay
    125          
    126            // Determine the extended address
    127            zmain_ext_addr();
   \   0000BE                ; Setup parameters for call to function zmain_ext_addr
   \   0000BE   12....       LCALL   ??zmain_ext_addr?relay
    128          
    129          #if defined ZCL_KEY_ESTABLISH
    130            // Initialize the Certicom certificate information.
    131            zmain_cert_init();
    132          #endif
    133          
    134            // Initialize basic NV items
    135            zgInit();//启用了NV_INIT,就会initzgInitItems中的项目,包括ZCD_NV_PANID到 zgConfigPANID
   \   0000C1                ; Setup parameters for call to function zgInit
   \   0000C1   12....       LCALL   ??zgInit?relay
    136            
    137          
    138          #ifndef NONWK
    139            // Since the AF isn't a task, call it's initialization routine
    140            afInit();
    141          #endif
    142          
    143            // Initialize the operating system
    144            osal_init_system();
   \   0000C4                ; Setup parameters for call to function osal_init_system
   \   0000C4   12....       LCALL   ??osal_init_system?relay
    145          
    146            // Allow interrupts
    147            osal_int_enable( INTS_ALL );
   \   0000C7                ; Setup parameters for call to function osal_int_enable
   \   0000C7   79FF         MOV     R1,#-0x1
   \   0000C9   12....       LCALL   ??osal_int_enable?relay
    148          
    149            // Final board initialization
    150            InitBoard( OB_READY );
   \   0000CC                ; Setup parameters for call to function InitBoard
   \   0000CC   7902         MOV     R1,#0x2
   \   0000CE   12....       LCALL   ??InitBoard?relay
    151          
    152            // Display information about this device
    153            //zmain_dev_info();
    154          
    155            /* Display the device info on the LCD */
    156          #ifdef LCD_SUPPORTED
    157            zmain_lcd_init();
   \   0000D1                ; Setup parameters for call to function HalLcdWriteString
   \   0000D1   7901         MOV     R1,#0x1
   \   0000D3   7A..         MOV     R2,#`?<Constant "TexasInstruments">` & 0xff
   \   0000D5   7B..         MOV     R3,#(`?<Constant "TexasInstruments">` >> 8) & 0xff
   \   0000D7   12....       LCALL   ??HalLcdWriteString?relay
   \   0000DA                ; Setup parameters for call to function HalLcdWriteString
   \   0000DA   7902         MOV     R1,#0x2
   \   0000DC   7A..         MOV     R2,#`?<Constant "NWK Coordinator">` & 0xff
   \   0000DE   7B..         MOV     R3,#(`?<Constant "NWK Coordinator">` >> 8) & 0xff
   \   0000E0   12....       LCALL   ??HalLcdWriteString?relay
    158          #endif
    159          
    160          #ifdef WDT_IN_PM1
    161            /* If WDT is used, this is a good place to enable it. */
    162            WatchDogEnable( WDTIMX );
    163          #endif
    164          
    165            osal_start_system(); // No Return from here
   \   0000E3                ; Setup parameters for call to function osal_start_system
   \   0000E3   12....       LCALL   ??osal_start_system?relay
    166            //osal_start_system->osal_run_system{ OSAL_GenericApp.c taskArr[taksid](xx,yy);-> MT.c ZDApp.c ...etc
    167            //
    168          
    169            return 0;  // Shouldn't get here.
   \   0000E6   7A00         MOV     R2,#0x0
   \   0000E8   7B00         MOV     R3,#0x0
   \   0000EA   02....       LJMP    ?BRET
   \   0000ED                REQUIRE SLEEPCMD
   \   0000ED                REQUIRE SLEEPSTA
   \   0000ED                REQUIRE CLKCONCMD
   \   0000ED                REQUIRE CLKCONSTA
    170          } // main()

   \                                 In  segment BANKED_CODE, align 1, keep-with-next
   \                     ?Subroutine1:
   \   000000   7B00         MOV     R3,#0x0
   \   000002   12....       LCALL   ??osal_nv_item_len?relay
   \   000005   8A..         MOV     ?V0 + 0,R2
   \   000007   8B..         MOV     ?V0 + 1,R3
   \   000009   A8..         MOV     R0,?V0 + 0
   \   00000B   A9..         MOV     R1,?V0 + 1
   \   00000D   C3           CLR     C
   \   00000E   E8           MOV     A,R0
   \   00000F   22           RET
    171          
    172          /*********************************************************************
    173           * @fn      zmain_vdd_check
    174           * @brief   Check if the Vdd is OK to run the processor.
    175           * @return  Return if Vdd is ok; otherwise, flash LED, then reset
    176           *********************************************************************/
    177          static void zmain_vdd_check( void )
    178          {
    179            uint8 cnt = 16;
    180            
    181            do {
    182              while (!HalAdcCheckVdd(VDD_MIN_RUN));
    183            } while (--cnt);
    184          }
    185          
    186          /**************************************************************************************************
    187           * @fn          zmain_ext_addr
    188           *
    189           * @brief       Execute a prioritized search for a valid extended address and write the results
    190           *              into the OSAL NV system for use by the system. Temporary address not saved to NV.
    191           *
    192           * input parameters
    193           *
    194           * None.
    195           *
    196           * output parameters
    197           *
    198           * None.
    199           *
    200           * @return      None.
    201           **************************************************************************************************
    202           */

   \                                 In  segment BANKED_CODE, align 1, keep-with-next
    203          static void zmain_ext_addr(void)
   \                     zmain_ext_addr:
    204          {
   \   000000   74F5         MOV     A,#-0xb
   \   000002   12....       LCALL   ?BANKED_ENTER_XDATA
   \   000005                ; Saved register size: 11
   \   000005                ; Auto size: 8
   \   000005   74F8         MOV     A,#-0x8
   \   000007   12....       LCALL   ?ALLOC_XSTACK8
    205            uint8 nullAddr[Z_EXTADDR_LEN] = {0xFF, 0xFF, 0xFF, 0xFF, 0xFF, 0xFF, 0xFF, 0xFF};
   \   00000A   85..82       MOV     DPL,?XSP + 0
   \   00000D   85..83       MOV     DPH,?XSP + 1
   \   000010   AC82         MOV     R4,DPL
   \   000012   AD83         MOV     R5,DPH
   \   000014   7583..       MOV     DPH,#(`?<Constant {255, 255, 255, 255, 255, 255, 255,` >> 8) & 0xff
   \   000017   7582..       MOV     DPL,#`?<Constant {255, 255, 255, 255, 255, 255, 255,` & 0xff
   \   00001A   7408         MOV     A,#0x8
   \   00001C   12....       LCALL   ?MOVE_LONG8_XDATA_XDATA
    206            uint8 writeNV = TRUE;
    207          
    208            // First check whether a non-erased extended address exists in the OSAL NV.
    209            if ((SUCCESS != osal_nv_item_init(ZCD_NV_EXTADDR, Z_EXTADDR_LEN, NULL))  ||
    210                (SUCCESS != osal_nv_read(ZCD_NV_EXTADDR, 0, Z_EXTADDR_LEN, aExtendedAddress)) ||
    211                (osal_memcmp(aExtendedAddress, nullAddr, Z_EXTADDR_LEN)))
   \   00001F                ; Setup parameters for call to function osal_nv_item_init
   \   00001F   F5..         MOV     ?V0 + 0,A
   \   000021   F5..         MOV     ?V0 + 1,A
   \   000023   78..         MOV     R0,#?V0 + 0
   \   000025   12....       LCALL   ?PUSH_XSTACK_I_TWO
   \   000028   7C08         MOV     R4,#0x8
   \   00002A   7D00         MOV     R5,#0x0
   \   00002C   7A01         MOV     R2,#0x1
   \   00002E   7B00         MOV     R3,#0x0
   \   000030   12....       LCALL   ??osal_nv_item_init?relay
   \   000033   7402         MOV     A,#0x2
   \   000035   12....       LCALL   ?DEALLOC_XSTACK8
   \   000038   E9           MOV     A,R1
   \   000039   7057         JNZ     ??zmain_ext_addr_0
   \   00003B                ; Setup parameters for call to function osal_nv_read
   \   00003B   75....       MOV     ?V0 + 0,#aExtendedAddress & 0xff
   \   00003E   75....       MOV     ?V0 + 1,#(aExtendedAddress >> 8) & 0xff
   \   000041   78..         MOV     R0,#?V0 + 0
   \   000043   12....       LCALL   ?PUSH_XSTACK_I_TWO
   \   000046   75..08       MOV     ?V0 + 0,#0x8
   \   000049   75..00       MOV     ?V0 + 1,#0x0
   \   00004C   78..         MOV     R0,#?V0 + 0
   \   00004E   12....       LCALL   ?PUSH_XSTACK_I_TWO
   \   000051   7C00         MOV     R4,#0x0
   \   000053   7D00         MOV     R5,#0x0
   \   000055   7A01         MOV     R2,#0x1
   \   000057   7B00         MOV     R3,#0x0
   \   000059   12....       LCALL   ??osal_nv_read?relay
   \   00005C   7404         MOV     A,#0x4
   \   00005E   12....       LCALL   ?DEALLOC_XSTACK8
   \   000061   E9           MOV     A,R1
   \   000062   702E         JNZ     ??zmain_ext_addr_0
   \   000064                ; Setup parameters for call to function osal_memcmp
   \   000064   85..82       MOV     DPL,?XSP + 0
   \   000067   85..83       MOV     DPH,?XSP + 1
   \   00006A   A982         MOV     R1,DPL
   \   00006C   AA83         MOV     R2,DPH
   \   00006E   89..         MOV     ?V0 + 0,R1
   \   000070   8A..         MOV     ?V0 + 1,R2
   \   000072   75..00       MOV     ?V0 + 2,#0x0
   \   000075   78..         MOV     R0,#?V0 + 0
   \   000077   12....       LCALL   ?PUSH_XSTACK_I_THREE
   \   00007A   7C08         MOV     R4,#0x8
   \   00007C   7D00         MOV     R5,#0x0
   \   00007E   79..         MOV     R1,#aExtendedAddress & 0xff
   \   000080   7A..         MOV     R2,#(aExtendedAddress >> 8) & 0xff
   \   000082   7B00         MOV     R3,#0x0
   \   000084   12....       LCALL   ??osal_memcmp?relay
   \   000087   7403         MOV     A,#0x3
   \   000089   12....       LCALL   ?DEALLOC_XSTACK8
   \   00008C   E9           MOV     A,R1
   \   00008D   7003         JNZ     $+5
   \   00008F   02....       LJMP    ??zmain_ext_addr_1 & 0xFFFF
    212            {
    213              // Attempt to read the extended address from the location on the lock bits page
    214              // where the programming tools know to reserve it.
    215              HalFlashRead(HAL_FLASH_IEEE_PAGE, HAL_FLASH_IEEE_OSET, aExtendedAddress, Z_EXTADDR_LEN);
   \                     ??zmain_ext_addr_0:
   \   000092                ; Setup parameters for call to function HalFlashRead
   \   000092   75..08       MOV     ?V0 + 0,#0x8
   \   000095   75..00       MOV     ?V0 + 1,#0x0
   \   000098   78..         MOV     R0,#?V0 + 0
   \   00009A   12....       LCALL   ?PUSH_XSTACK_I_TWO
   \   00009D   7C..         MOV     R4,#aExtendedAddress & 0xff
   \   00009F   7D..         MOV     R5,#(aExtendedAddress >> 8) & 0xff
   \   0000A1   7AE8         MOV     R2,#-0x18
   \   0000A3   7B07         MOV     R3,#0x7
   \   0000A5   797F         MOV     R1,#0x7f
   \   0000A7   12....       LCALL   ??HalFlashRead?relay
   \   0000AA   7402         MOV     A,#0x2
   \   0000AC   12....       LCALL   ?DEALLOC_XSTACK8
    216          
    217              if (osal_memcmp(aExtendedAddress, nullAddr, Z_EXTADDR_LEN))
   \   0000AF                ; Setup parameters for call to function osal_memcmp
   \   0000AF   85..82       MOV     DPL,?XSP + 0
   \   0000B2   85..83       MOV     DPH,?XSP + 1
   \   0000B5   A982         MOV     R1,DPL
   \   0000B7   AA83         MOV     R2,DPH
   \   0000B9   89..         MOV     ?V0 + 0,R1
   \   0000BB   8A..         MOV     ?V0 + 1,R2
   \   0000BD   75..00       MOV     ?V0 + 2,#0x0
   \   0000C0   78..         MOV     R0,#?V0 + 0
   \   0000C2   12....       LCALL   ?PUSH_XSTACK_I_THREE
   \   0000C5   7C08         MOV     R4,#0x8
   \   0000C7   7D00         MOV     R5,#0x0
   \   0000C9   79..         MOV     R1,#aExtendedAddress & 0xff
   \   0000CB   7A..         MOV     R2,#(aExtendedAddress >> 8) & 0xff
   \   0000CD   7B00         MOV     R3,#0x0
   \   0000CF   12....       LCALL   ??osal_memcmp?relay
   \   0000D2   7403         MOV     A,#0x3
   \   0000D4   12....       LCALL   ?DEALLOC_XSTACK8
   \   0000D7   E9           MOV     A,R1
   \   0000D8   606A         JZ      ??zmain_ext_addr_2
    218              {
    219                // Attempt to read the extended address from the designated location in the Info Page.
    220                if (!osal_memcmp((uint8 *)(P_INFOPAGE+HAL_INFOP_IEEE_OSET), nullAddr, Z_EXTADDR_LEN))
   \   0000DA                ; Setup parameters for call to function osal_memcmp
   \   0000DA   78..         MOV     R0,#?V0 + 0
   \   0000DC   12....       LCALL   ?PUSH_XSTACK_I_THREE
   \   0000DF   7C08         MOV     R4,#0x8
   \   0000E1   7D00         MOV     R5,#0x0
   \   0000E3   790C         MOV     R1,#0xc
   \   0000E5   7A78         MOV     R2,#0x78
   \   0000E7   7B00         MOV     R3,#0x0
   \   0000E9   12....       LCALL   ??osal_memcmp?relay
   \   0000EC   7403         MOV     A,#0x3
   \   0000EE   12....       LCALL   ?DEALLOC_XSTACK8
   \   0000F1   E9           MOV     A,R1
   \   0000F2   701D         JNZ     ??zmain_ext_addr_3
    221                {
    222                  osal_memcpy(aExtendedAddress, (uint8 *)(P_INFOPAGE+HAL_INFOP_IEEE_OSET), Z_EXTADDR_LEN);
   \   0000F4                ; Setup parameters for call to function osal_memcpy
   \   0000F4   75..0C       MOV     ?V0 + 0,#0xc
   \   0000F7   75..78       MOV     ?V0 + 1,#0x78
   \   0000FA   78..         MOV     R0,#?V0 + 0
   \   0000FC   12....       LCALL   ?PUSH_XSTACK_I_THREE
   \   0000FF   7C08         MOV     R4,#0x8
   \   000101   7D00         MOV     R5,#0x0
   \   000103   7A..         MOV     R2,#aExtendedAddress & 0xff
   \   000105   7B..         MOV     R3,#(aExtendedAddress >> 8) & 0xff
   \   000107   12....       LCALL   ??osal_memcpy?relay
   \   00010A   7403         MOV     A,#0x3
   \   00010C   12....       LCALL   ?DEALLOC_XSTACK8
   \   00010F   8033         SJMP    ??zmain_ext_addr_2
    223                }
    224                else  // No valid extended address was found.
    225                {
    226                  uint8 idx;
    227                  
    228          #if !defined ( NV_RESTORE )
    229                  writeNV = FALSE;  // Make this a temporary IEEE address
    230          #endif
    231          
    232                  /* Attempt to create a sufficiently random extended address for expediency.
    233                   * Note: this is only valid/legal in a test environment and
    234                   *       must never be used for a commercial product.
    235                   */
    236                  for (idx = 0; idx < (Z_EXTADDR_LEN - 2);)
   \                     ??zmain_ext_addr_3:
   \   000111   7E00         MOV     R6,#0x0
    237                  {
    238                    uint16 randy = osal_rand();
   \                     ??zmain_ext_addr_4:
   \   000113                ; Setup parameters for call to function osal_rand
   \   000113   12....       LCALL   ??osal_rand?relay
   \   000116   8A..         MOV     ?V0 + 0,R2
   \   000118   A8..         MOV     R0,?V0 + 0
    239                    aExtendedAddress[idx++] = LO_UINT16(randy);
   \   00011A   12....       LCALL   ?Subroutine0 & 0xFFFF
   \                     ??CrossCallReturnLabel_0:
   \   00011D   E8           MOV     A,R0
   \   00011E   F0           MOVX    @DPTR,A
   \   00011F   0E           INC     R6
    240                    aExtendedAddress[idx++] = HI_UINT16(randy);
   \   000120   12....       LCALL   ?Subroutine0 & 0xFFFF
    241                  }
   \                     ??CrossCallReturnLabel_1:
   \   000123   EB           MOV     A,R3
   \   000124   F0           MOVX    @DPTR,A
   \   000125   0E           INC     R6
   \   000126   EE           MOV     A,R6
   \   000127   C3           CLR     C
   \   000128   9406         SUBB    A,#0x6
   \   00012A   40E7         JC      ??zmain_ext_addr_4
    242                  // Next-to-MSB identifies ZigBee devicetype.
    243          #if ZG_BUILD_COORDINATOR_TYPE && !ZG_BUILD_JOINING_TYPE
    244                  aExtendedAddress[idx++] = 0x10;
   \   00012C   12....       LCALL   ?Subroutine0 & 0xFFFF
   \                     ??CrossCallReturnLabel_2:
   \   00012F   7410         MOV     A,#0x10
   \   000131   F0           MOVX    @DPTR,A
    245          #elif ZG_BUILD_RTRONLY_TYPE
    246                  aExtendedAddress[idx++] = 0x20;
    247          #else
    248                  aExtendedAddress[idx++] = 0x30;
    249          #endif
    250                  // MSB has historical signficance.
    251                  aExtendedAddress[idx] = 0xF8;
   \   000132   7401         MOV     A,#0x1
   \   000134   2E           ADD     A,R6
   \   000135   F8           MOV     R0,A
   \   000136   74..         MOV     A,#aExtendedAddress & 0xff
   \   000138   28           ADD     A,R0
   \   000139   F582         MOV     DPL,A
   \   00013B   74..         MOV     A,#(aExtendedAddress >> 8) & 0xff
   \   00013D   3400         ADDC    A,#0x0
   \   00013F   F583         MOV     DPH,A
   \   000141   74F8         MOV     A,#-0x8
   \   000143   F0           MOVX    @DPTR,A
    252                }
    253              }
    254          
    255              if (writeNV)
    256              {
    257                (void)osal_nv_write(ZCD_NV_EXTADDR, 0, Z_EXTADDR_LEN, aExtendedAddress);
   \                     ??zmain_ext_addr_2:
   \   000144                ; Setup parameters for call to function osal_nv_write
   \   000144   75....       MOV     ?V0 + 0,#aExtendedAddress & 0xff
   \   000147   75....       MOV     ?V0 + 1,#(aExtendedAddress >> 8) & 0xff
   \   00014A   78..         MOV     R0,#?V0 + 0
   \   00014C   12....       LCALL   ?PUSH_XSTACK_I_TWO
   \   00014F   75..08       MOV     ?V0 + 0,#0x8
   \   000152   75..00       MOV     ?V0 + 1,#0x0
   \   000155   78..         MOV     R0,#?V0 + 0
   \   000157   12....       LCALL   ?PUSH_XSTACK_I_TWO
   \   00015A   7C00         MOV     R4,#0x0
   \   00015C   7D00         MOV     R5,#0x0
   \   00015E   7A01         MOV     R2,#0x1
   \   000160   7B00         MOV     R3,#0x0
   \   000162   12....       LCALL   ??osal_nv_write?relay
   \   000165   7404         MOV     A,#0x4
   \   000167   12....       LCALL   ?DEALLOC_XSTACK8
    258              }
    259            }
    260          
    261            // Set the MAC PIB extended address according to results from above.
    262            (void)ZMacSetReq(MAC_EXTENDED_ADDRESS, aExtendedAddress);
   \                     ??zmain_ext_addr_1:
   \   00016A                ; Setup parameters for call to function ZMacSetReq
   \   00016A   7A..         MOV     R2,#aExtendedAddress & 0xff
   \   00016C   7B..         MOV     R3,#(aExtendedAddress >> 8) & 0xff
   \   00016E   79E2         MOV     R1,#-0x1e
   \   000170   12....       LCALL   ??ZMacSetReq?relay
    263          }
   \   000173   7408         MOV     A,#0x8
   \   000175   12....       LCALL   ?DEALLOC_XSTACK8
   \   000178   7F03         MOV     R7,#0x3
   \   00017A   02....       LJMP    ?BANKED_LEAVE_XDATA

   \                                 In  segment BANKED_CODE, align 1, keep-with-next
   \                     ?Subroutine0:
   \   000000   8E..         MOV     ?V0 + 0,R6
   \   000002   74..         MOV     A,#aExtendedAddress & 0xff
   \   000004   25..         ADD     A,?V0 + 0
   \   000006   F582         MOV     DPL,A
   \   000008   74..         MOV     A,#(aExtendedAddress >> 8) & 0xff
   \   00000A   3400         ADDC    A,#0x0
   \   00000C   F583         MOV     DPH,A
   \   00000E   22           RET

   \                                 In  segment XDATA_ID, align 1, keep-with-next
   \                     `?<Initializer for _zgConfigPANID>`:
   \   000000   FFFF         DW 65535

   \                                 In  segment BANK_RELAYS, align 1
   \                     ??main?relay:
   \   000000   12....       LCALL   ?BDISPATCH
   \   000003   ......       DC24    main

   \                                 In  segment BANK_RELAYS, align 1
   \                     ??zmain_ext_addr?relay:
   \   000000   12....       LCALL   ?BDISPATCH
   \   000003   ......       DC24    zmain_ext_addr

   \                                 In  segment XDATA_ROM_C, align 1
   \                     `?<Constant {255, 255, 255, 255, 255, 255, 255,`:
   \   000000   FF           DB 255
   \   000001   FF           DB 255
   \   000002   FF           DB 255
   \   000003   FF           DB 255
   \   000004   FF           DB 255
   \   000005   FF           DB 255
   \   000006   FF           DB 255
   \   000007   FF           DB 255

   \                                 In  segment XDATA_ROM_C, align 1
   \                     `?<Constant "TexasInstruments">`:
   \   000000   54657861     DB "TexasInstruments"
   \            73496E73
   \            7472756D
   \            656E7473
   \            00      

   \                                 In  segment XDATA_ROM_C, align 1
   \                     `?<Constant "NWK Coordinator">`:
   \   000000   4E574B20     DB "NWK Coordinator"
   \            436F6F72
   \            64696E61
   \            746F7200
    264          
    265          #if defined ZCL_KEY_ESTABLISH
    266          /**************************************************************************************************
    267           * @fn          zmain_cert_init
    268           *
    269           * @brief       Initialize the Certicom certificate information.
    270           *
    271           * input parameters
    272           *
    273           * None.
    274           *
    275           * output parameters
    276           *
    277           * None.
    278           *
    279           * @return      None.
    280           **************************************************************************************************
    281           */
    282          static void zmain_cert_init(void)
    283          {
    284            uint8 certData[ZCL_KE_IMPLICIT_CERTIFICATE_LEN];
    285            uint8 nullData[ZCL_KE_IMPLICIT_CERTIFICATE_LEN] = {
    286              0xFF, 0xFF, 0xFF, 0xFF, 0xFF, 0xFF, 0xFF, 0xFF,
    287              0xFF, 0xFF, 0xFF, 0xFF, 0xFF, 0xFF, 0xFF, 0xFF,
    288              0xFF, 0xFF, 0xFF, 0xFF, 0xFF, 0xFF, 0xFF, 0xFF,
    289              0xFF, 0xFF, 0xFF, 0xFF, 0xFF, 0xFF, 0xFF, 0xFF,
    290              0xFF, 0xFF, 0xFF, 0xFF, 0xFF, 0xFF, 0xFF, 0xFF,
    291              0xFF, 0xFF, 0xFF, 0xFF, 0xFF, 0xFF, 0xFF, 0xFF
    292            };
    293          
    294            (void)osal_nv_item_init(ZCD_NV_IMPLICIT_CERTIFICATE, ZCL_KE_IMPLICIT_CERTIFICATE_LEN, NULL);
    295            (void)osal_nv_item_init(ZCD_NV_DEVICE_PRIVATE_KEY, ZCL_KE_DEVICE_PRIVATE_KEY_LEN, NULL);
    296          
    297            // First check whether non-null certificate data exists in the OSAL NV. To save on code space,
    298            // just use the ZCD_NV_CA_PUBLIC_KEY as the bellwether for all three.
    299            if ((SUCCESS != osal_nv_item_init(ZCD_NV_CA_PUBLIC_KEY, ZCL_KE_CA_PUBLIC_KEY_LEN, NULL))    ||
    300                (SUCCESS != osal_nv_read(ZCD_NV_CA_PUBLIC_KEY, 0, ZCL_KE_CA_PUBLIC_KEY_LEN, certData))  ||
    301                (osal_memcmp(certData, nullData, ZCL_KE_CA_PUBLIC_KEY_LEN)))
    302            {
    303              // Attempt to read the certificate data from its corresponding location on the lock bits page.
    304              HalFlashRead(HAL_FLASH_IEEE_PAGE, HAL_FLASH_CA_PUBLIC_KEY_OSET, certData,
    305                                                   ZCL_KE_CA_PUBLIC_KEY_LEN);
    306              // If the certificate data is not NULL, use it to update the corresponding NV items.
    307              if (!osal_memcmp(certData, nullData, ZCL_KE_CA_PUBLIC_KEY_LEN))
    308              {
    309                (void)osal_nv_write(ZCD_NV_CA_PUBLIC_KEY, 0, ZCL_KE_CA_PUBLIC_KEY_LEN, certData);
    310                HalFlashRead(HAL_FLASH_IEEE_PAGE, HAL_FLASH_IMPLICIT_CERT_OSET, certData,
    311                                                     ZCL_KE_IMPLICIT_CERTIFICATE_LEN);
    312                (void)osal_nv_write(ZCD_NV_IMPLICIT_CERTIFICATE, 0,
    313                                    ZCL_KE_IMPLICIT_CERTIFICATE_LEN, certData);
    314                HalFlashRead(HAL_FLASH_IEEE_PAGE, HAL_FLASH_DEV_PRIVATE_KEY_OSET, certData,
    315                                                  ZCL_KE_DEVICE_PRIVATE_KEY_LEN);
    316                (void)osal_nv_write(ZCD_NV_DEVICE_PRIVATE_KEY, 0, ZCL_KE_DEVICE_PRIVATE_KEY_LEN, certData);
    317              }
    318            }
    319          }
    320          #endif
    321          
    322          /**************************************************************************************************
    323           * @fn          zmain_dev_info
    324           *
    325           * @brief       This displays the IEEE (MSB to LSB) on the LCD.
    326           *
    327           * input parameters
    328           *
    329           * None.
    330           *
    331           * output parameters
    332           *
    333           * None.
    334           *
    335           * @return      None.
    336           **************************************************************************************************
    337           */
    338          static void zmain_dev_info(void)
                             ^
Warning[Pe177]: function "zmain_dev_info" was declared but never referenced
    339          {
    340          #ifdef LCD_SUPPORTED
    341            uint8 i;
    342            uint8 *xad;
    343            uint8 lcd_buf[Z_EXTADDR_LEN*2+1];
    344          
    345            // Display the extended address.
    346            xad = aExtendedAddress + Z_EXTADDR_LEN - 1;
    347          
    348            for (i = 0; i < Z_EXTADDR_LEN*2; xad--)
    349            {
    350              uint8 ch;
    351              ch = (*xad >> 4) & 0x0F;
    352              lcd_buf[i++] = ch + (( ch < 10 ) ? '0' : '7');
    353              ch = *xad & 0x0F;
    354              lcd_buf[i++] = ch + (( ch < 10 ) ? '0' : '7');
    355            }
    356            lcd_buf[Z_EXTADDR_LEN*2] = '\0';
    357            HalLcdWriteString( "IEEE: ", HAL_LCD_LINE_1 );
    358            HalLcdWriteString( (char*)lcd_buf, HAL_LCD_LINE_2 );
    359          #endif
    360          }
    361          
    362          #ifdef LCD_SUPPORTED
    363          /*********************************************************************
    364           * @fn      zmain_lcd_init
    365           * @brief   Initialize LCD at start up.
    366           * @return  none
    367           *********************************************************************/
    368          static void zmain_lcd_init ( void )
    369          {
    370          #ifdef SERIAL_DEBUG_SUPPORTED
    371            {
    372              HalLcdWriteString( "TexasInstruments", HAL_LCD_LINE_1 );
    373          
    374          #if defined( MT_MAC_FUNC )
    375          #if defined( ZDO_COORDINATOR )
    376                HalLcdWriteString( "MAC-MT Coord", HAL_LCD_LINE_2 );
    377          #else
    378                HalLcdWriteString( "MAC-MT Device", HAL_LCD_LINE_2 );
    379          #endif // ZDO
    380          #elif defined( MT_NWK_FUNC )
    381          #if defined( ZDO_COORDINATOR )
    382                HalLcdWriteString( "NWK Coordinator", HAL_LCD_LINE_2 );
    383          #else
    384                HalLcdWriteString( "NWK Device", HAL_LCD_LINE_2 );
    385          #endif // ZDO
    386          #endif // MT_FUNC
    387            }
    388          #endif // SERIAL_DEBUG_SUPPORTED
    389          }
    390          #endif
    391          
    392          /*********************************************************************
    393          *********************************************************************/

   Maximum stack usage in bytes:

     Function               ISTACK PSTACK XSTACK
     --------               ------ ------ ------
     main                       0      0      4
       -> osal_int_disable      0      0      0
       -> HalAdcCheckVdd        0      0      0
       -> InitBoard             0      0      0
       -> HalDriverInit         0      0      0
       -> osal_nv_init          0      0      0
       -> osal_nv_item_len      0      0      0
       -> guu_osal_nv_read      0      0      8
       -> osal_nv_item_len      0      0      0
       -> guu_osal_nv_read      0      0      8
       -> ZMacInit              0      0      0
       -> zmain_ext_addr        0      0      0
       -> zgInit                0      0      0
       -> osal_init_system      0      0      0
       -> osal_int_enable       0      0      0
       -> InitBoard             0      0      0
       -> HalLcdWriteString     0      0      0
       -> HalLcdWriteString     0      0      0
       -> osal_start_system     0      0      0
     zmain_ext_addr             2      0     23
       -> osal_nv_item_init     0      0     42
       -> osal_nv_read          0      0     46
       -> osal_memcmp           0      0     44
       -> HalFlashRead          0      0     42
       -> osal_memcmp           0      0     44
       -> osal_memcmp           0      0     44
       -> osal_memcpy           0      0     44
       -> osal_rand             0      0     38
       -> osal_nv_write         0      0     46
       -> ZMacSetReq            0      0     38


   Segment part sizes:

     Function/Label                                 Bytes
     --------------                                 -----
     SLEEPSTA                                          1
     CLKCONSTA                                         1
     SLEEPCMD                                          1
     CLKCONCMD                                         1
     _zgDefaultChannelList                             4
     _zgConfigPANID                                    2
     main                                            237
     ?Subroutine1                                     16
     zmain_ext_addr                                  381
     ?Subroutine0                                     15
     ?<Initializer for _zgConfigPANID>                 2
     ??main?relay                                      6
     ??zmain_ext_addr?relay                            6
     ?<Constant {255, 255, 255, 255, 255, 255, 255,    8
     ?<Constant "TexasInstruments">                   17
     ?<Constant "NWK Coordinator">                    16

 
 649 bytes in segment BANKED_CODE
  12 bytes in segment BANK_RELAYS
   4 bytes in segment SFR_AN
   2 bytes in segment XDATA_I
   2 bytes in segment XDATA_ID
  41 bytes in segment XDATA_ROM_C
   4 bytes in segment XDATA_Z
 
 663 bytes of CODE  memory
  41 bytes of CONST memory
   0 bytes of DATA  memory (+ 4 bytes shared)
   6 bytes of XDATA memory

Errors: none
Warnings: 1
