###############################################################################
#                                                                             #
# IAR C/C++ Compiler V8.10.3.40338/W32 for 8051         25/Jan/2015  17:06:13 #
# Copyright 2004-2011 IAR Systems AB.                                         #
#                                                                             #
#    Core               =  plain                                              #
#    Code model         =  banked                                             #
#    Data model         =  large                                              #
#    Calling convention =  xdata reentrant                                    #
#    Constant location  =  data_rom                                           #
#    Dptr setup         =  1,16                                               #
#    Source file        =  C:\Texas Instruments\ZStack-CC2530-2.5.1a\Projects #
#                          \zstack\Samples\weikong\Source\guu_io.c            #
#    Command line       =  -f "C:\Texas Instruments\ZStack-CC2530-2.5.1a\Proj #
#                          ects\zstack\Samples\GenericApp\CC2531\..\..\..\Too #
#                          ls\CC2530DB\f8wRouter.cfg" (-DCPU32MHZ             #
#                          -DROOT=__near_func -DMAC_CFG_APP_PENDING_QUEUE=TRU #
#                          E -DMAC_CFG_TX_DATA_MAX=5 -DMAC_CFG_TX_MAX=8       #
#                          -DMAC_CFG_RX_MAX=5 -DRTR_NWK) -f "C:\Texas         #
#                          Instruments\ZStack-CC2530-2.5.1a\Projects\zstack\S #
#                          amples\GenericApp\CC2531\..\..\..\Tools\CC2530DB\f #
#                          8wConfig.cfg" (-DZIGBEEPRO -DSECURE=0              #
#                          -DZG_SECURE_DYNAMIC=0 -DREFLECTOR                  #
#                          -DDEFAULT_CHANLIST=0x00000800                      #
#                          -DZDAPP_CONFIG_PAN_ID=0xFFFF                       #
#                          -DNWK_START_DELAY=100 -DEXTENDED_JOINING_RANDOM_MA #
#                          SK=0x007F -DBEACON_REQUEST_DELAY=100               #
#                          -DBEACON_REQ_DELAY_MASK=0x00FF                     #
#                          -DLINK_STATUS_JITTER_MASK=0x007F                   #
#                          -DROUTE_EXPIRY_TIME=30 -DAPSC_ACK_WAIT_DURATION_PO #
#                          LLED=3000 -DNWK_INDIRECT_MSG_TIMEOUT=7             #
#                          -DMAX_RREQ_ENTRIES=8 -DAPSC_MAX_FRAME_RETRIES=3    #
#                          -DNWK_MAX_DATA_RETRIES=2                           #
#                          -DMAX_POLL_FAILURE_RETRIES=2 -DMAX_BCAST=9         #
#                          -DAPS_MAX_GROUPS=16 -DMAX_RTG_ENTRIES=40           #
#                          -DNWK_MAX_BINDING_ENTRIES=4                        #
#                          -DMAX_BINDING_CLUSTER_IDS=4 "-DDEFAULT_KEY={0x01,  #
#                          0x03, 0x05, 0x07, 0x09, 0x0B, 0x0D, 0x0F, 0x00,    #
#                          0x02, 0x04, 0x06, 0x08, 0x0A, 0x0C, 0x0D}"         #
#                          -DMAC_MAX_FRAME_SIZE=116                           #
#                          -DZDNWKMGR_MIN_TRANSMISSIONS=20 "-DCONST=const     #
#                          __code" -DGENERIC=__generic                        #
#                          -DRFD_RCVC_ALWAYS_ON=FALSE -DPOLL_RATE=1000        #
#                          -DQUEUED_POLL_RATE=100 -DRESPONSE_POLL_RATE=100)   #
#                          -DREJOIN_POLL_RATE=440 "C:\Texas                   #
#                          Instruments\ZStack-CC2530-2.5.1a\Projects\zstack\S #
#                          amples\weikong\Source\guu_io.c" -D ZTOOL_P1 -D     #
#                          MT_TASK -D MT_AF_FUNC -D MT_AF_CB_FUNC -D          #
#                          MT_APP_FUNC -D MT_DEBUG_FUNC -D MT_NWK_FUNC -D     #
#                          MT_NWK_CB_FUNC -D MT_SYS_FUNC -D MT_SYS_FUNC -D    #
#                          MT_ZDO_FUNC -D MT_UTIL_FUNC -D MT_ZDO_CB_FUNC -D   #
#                          MT_ZDO_MGMT -D LCD_SUPPORTED=FALSE -D              #
#                          HAL_LCD=FALSE -D HAL_LED=FALSE -D                  #
#                          GUU_HAL_LED=TRUE -D NV_INIT -D NV_RESTORE -D       #
#                          xPOWER_SAVING -lC "C:\Texas                        #
#                          Instruments\ZStack-CC2530-2.5.1a\Projects\zstack\S #
#                          amples\GenericApp\CC2531\Router\List\" -lA         #
#                          "C:\Texas Instruments\ZStack-CC2530-2.5.1a\Project #
#                          s\zstack\Samples\GenericApp\CC2531\Router\List\"   #
#                          --diag_suppress Pe001,Pa010 -o "C:\Texas           #
#                          Instruments\ZStack-CC2530-2.5.1a\Projects\zstack\S #
#                          amples\GenericApp\CC2531\Router\Obj\" -e           #
#                          --no_code_motion --debug --core=plain --dptr=16,1  #
#                          --data_model=large --code_model=banked             #
#                          --calling_convention=xdata_reentrant               #
#                          --place_constants=data_rom --nr_virtual_regs 16    #
#                          -I "C:\Texas Instruments\ZStack-CC2530-2.5.1a\Proj #
#                          ects\zstack\Samples\GenericApp\CC2531\" -I         #
#                          "C:\Texas Instruments\ZStack-CC2530-2.5.1a\Project #
#                          s\zstack\Samples\GenericApp\CC2531\..\Source\" -I  #
#                          "C:\Texas Instruments\ZStack-CC2530-2.5.1a\Project #
#                          s\zstack\Samples\GenericApp\CC2531\..\..\..\ZMain\ #
#                          TI2530DB\" -I "C:\Texas Instruments\ZStack-CC2530- #
#                          2.5.1a\Projects\zstack\Samples\GenericApp\CC2531\. #
#                          .\..\..\..\..\Components\hal\include\" -I          #
#                          "C:\Texas Instruments\ZStack-CC2530-2.5.1a\Project #
#                          s\zstack\Samples\GenericApp\CC2531\..\..\..\..\..\ #
#                          Components\hal\target\CC2530USB\" -I "C:\Texas     #
#                          Instruments\ZStack-CC2530-2.5.1a\Projects\zstack\S #
#                          amples\GenericApp\CC2531\..\..\..\..\..\Components #
#                          \hal\target\CC2530USB\usb\library\" -I "C:\Texas   #
#                          Instruments\ZStack-CC2530-2.5.1a\Projects\zstack\S #
#                          amples\GenericApp\CC2531\..\..\..\..\..\Components #
#                          \hal\target\CC2530USB\usb\library\cc2531\" -I      #
#                          "C:\Texas Instruments\ZStack-CC2530-2.5.1a\Project #
#                          s\zstack\Samples\GenericApp\CC2531\..\..\..\..\..\ #
#                          Components\hal\target\CC2530USB\usb\class_cdc\"    #
#                          -I "C:\Texas Instruments\ZStack-CC2530-2.5.1a\Proj #
#                          ects\zstack\Samples\GenericApp\CC2531\..\..\..\..\ #
#                          ..\Components\mac\include\" -I "C:\Texas           #
#                          Instruments\ZStack-CC2530-2.5.1a\Projects\zstack\S #
#                          amples\GenericApp\CC2531\..\..\..\..\..\Components #
#                          \mac\high_level\" -I "C:\Texas                     #
#                          Instruments\ZStack-CC2530-2.5.1a\Projects\zstack\S #
#                          amples\GenericApp\CC2531\..\..\..\..\..\Components #
#                          \mac\low_level\srf04\" -I "C:\Texas                #
#                          Instruments\ZStack-CC2530-2.5.1a\Projects\zstack\S #
#                          amples\GenericApp\CC2531\..\..\..\..\..\Components #
#                          \mac\low_level\srf04\single_chip\" -I "C:\Texas    #
#                          Instruments\ZStack-CC2530-2.5.1a\Projects\zstack\S #
#                          amples\GenericApp\CC2531\..\..\..\..\..\Components #
#                          \mt\" -I "C:\Texas Instruments\ZStack-CC2530-2.5.1 #
#                          a\Projects\zstack\Samples\GenericApp\CC2531\..\..\ #
#                          ..\..\..\Components\osal\include\" -I "C:\Texas    #
#                          Instruments\ZStack-CC2530-2.5.1a\Projects\zstack\S #
#                          amples\GenericApp\CC2531\..\..\..\..\..\Components #
#                          \services\saddr\" -I "C:\Texas                     #
#                          Instruments\ZStack-CC2530-2.5.1a\Projects\zstack\S #
#                          amples\GenericApp\CC2531\..\..\..\..\..\Components #
#                          \services\sdata\" -I "C:\Texas                     #
#                          Instruments\ZStack-CC2530-2.5.1a\Projects\zstack\S #
#                          amples\GenericApp\CC2531\..\..\..\..\..\Components #
#                          \stack\af\" -I "C:\Texas                           #
#                          Instruments\ZStack-CC2530-2.5.1a\Projects\zstack\S #
#                          amples\GenericApp\CC2531\..\..\..\..\..\Components #
#                          \stack\nwk\" -I "C:\Texas                          #
#                          Instruments\ZStack-CC2530-2.5.1a\Projects\zstack\S #
#                          amples\GenericApp\CC2531\..\..\..\..\..\Components #
#                          \stack\sapi\" -I "C:\Texas                         #
#                          Instruments\ZStack-CC2530-2.5.1a\Projects\zstack\S #
#                          amples\GenericApp\CC2531\..\..\..\..\..\Components #
#                          \stack\sec\" -I "C:\Texas                          #
#                          Instruments\ZStack-CC2530-2.5.1a\Projects\zstack\S #
#                          amples\GenericApp\CC2531\..\..\..\..\..\Components #
#                          \stack\sys\" -I "C:\Texas                          #
#                          Instruments\ZStack-CC2530-2.5.1a\Projects\zstack\S #
#                          amples\GenericApp\CC2531\..\..\..\..\..\Components #
#                          \stack\zdo\" -I "C:\Texas                          #
#                          Instruments\ZStack-CC2530-2.5.1a\Projects\zstack\S #
#                          amples\GenericApp\CC2531\..\..\..\..\..\Components #
#                          \zmac\" -I "C:\Texas Instruments\ZStack-CC2530-2.5 #
#                          .1a\Projects\zstack\Samples\GenericApp\CC2531\..\. #
#                          .\..\..\..\Components\zmac\f8w\" -I "C:\Texas      #
#                          Instruments\ZStack-CC2530-2.5.1a\Projects\zstack\S #
#                          amples\GenericApp\CC2531\..\..\weikong\Source\"    #
#                          -Ohz --require_prototypes                          #
#    List file          =  C:\Texas Instruments\ZStack-CC2530-2.5.1a\Projects #
#                          \zstack\Samples\GenericApp\CC2531\Router\List\guu_ #
#                          io.lst                                             #
#    Object file        =  C:\Texas Instruments\ZStack-CC2530-2.5.1a\Projects #
#                          \zstack\Samples\GenericApp\CC2531\Router\Obj\guu_i #
#                          o.r51                                              #
#                                                                             #
#                                                                             #
###############################################################################

C:\Texas Instruments\ZStack-CC2530-2.5.1a\Projects\zstack\Samples\weikong\Source\guu_io.c
      1          #include "OSAL.h"
      2          #include "OSAL_Nv.h"
      3          #include "AF.h"
      4          #include "ZDApp.h"
      5          #include "ZDObject.h"
      6          #include "ZDProfile.h"
      7          
      8          #include "MT_APP.h"
      9          
     10          #include "GenericApp.h"
     11          #include "DebugTrace.h"
     12          
     13          #if !defined( WIN32 )
     14            #include "OnBoard.h"

   \                                 In  segment SFR_AN, at 0x80
   \   union <unnamed> volatile __sfr _A_P0
   \                     _A_P0:
   \   000000                DS 1

   \                                 In  segment SFR_AN, at 0x90
   \   union <unnamed> volatile __sfr _A_P1
   \                     _A_P1:
   \   000000                DS 1

   \                                 In  segment SFR_AN, at 0xa0
   \   union <unnamed> volatile __sfr _A_P2
   \                     _A_P2:
   \   000000                DS 1

   \                                 In  segment SFR_AN, at 0xdc
   \   unsigned char volatile __sfr T1CC1L
   \                     T1CC1L:
   \   000000                DS 1

   \                                 In  segment SFR_AN, at 0xdd
   \   unsigned char volatile __sfr T1CC1H
   \                     T1CC1H:
   \   000000                DS 1

   \                                 In  segment SFR_AN, at 0xde
   \   unsigned char volatile __sfr T1CC2L
   \                     T1CC2L:
   \   000000                DS 1

   \                                 In  segment SFR_AN, at 0xdf
   \   unsigned char volatile __sfr T1CC2H
   \                     T1CC2H:
   \   000000                DS 1

   \                                 In  segment SFR_AN, at 0xf3
   \   unsigned char volatile __sfr P0SEL
   \                     P0SEL:
   \   000000                DS 1

   \                                 In  segment SFR_AN, at 0xf4
   \   unsigned char volatile __sfr P1SEL
   \                     P1SEL:
   \   000000                DS 1

   \                                 In  segment SFR_AN, at 0xfd
   \   unsigned char volatile __sfr P0DIR
   \                     P0DIR:
   \   000000                DS 1

   \                                 In  segment SFR_AN, at 0xfe
   \   unsigned char volatile __sfr P1DIR
   \                     P1DIR:
   \   000000                DS 1

   \                                 In  segment SFR_AN, at 0xff
   \   unsigned char volatile __sfr P2DIR
   \                     P2DIR:
   \   000000                DS 1
     15          #endif
     16          
     17          /* HAL */
     18          #include "hal_lcd.h"
     19          #include "hal_led.h"
     20          #include "hal_key.h"
     21          #include "hal_uart.h"
     22          #include "hal_board.h"
     23          
     24          #include "base.h"
     25          #include "guu_common_def.h"
     26          #include "guu_data.h"
     27          #include "guu_io.h"
     28          #include "guu_proto.h"
     29          

   \                                 In  segment XDATA_Z, align 1, keep-with-next
     30          io_cmd_data_t* sw_arr[4]; //长驻 16字节
   \                     sw_arr:
   \   000000                DS 8
   \   000008                REQUIRE __INIT_XDATA_Z
     31          

   \                                 In  segment XDATA_Z, align 1, keep-with-next
     32          uint32 io_types;// two bit decide io type
   \                     io_types:
   \   000000                DS 4
   \   000004                REQUIRE __INIT_XDATA_Z

   \                                 In  segment XDATA_Z, align 1, keep-with-next
     33          RGBA_t *RGBA;
   \                     RGBA:
   \   000000                DS 2
   \   000002                REQUIRE __INIT_XDATA_Z
     34          //00 ==input    0
     35          //01 ==output   1
     36          //10 ==pwm      2
     37          
     38          static void INIT_PWM_R(void)
     39          {
     40            PWM_R_DDR |= PWM_R_BV; PWM_R_SEL |= PWM_R_BV;
     41          }
     42          static void INIT_PWM_G(void) { PWM_G_DDR |= PWM_G_BV; PWM_G_SEL |= PWM_G_BV; }
     43          static void INIT_PWM_B(void) { PWM_B_DDR |= PWM_B_BV; PWM_B_SEL |= PWM_B_BV; }
     44          static void INIT_PWM_A(void) { PWM_A_DDR |= PWM_A_BV; PWM_A_SEL |= PWM_A_BV; }
     45          

   \                                 In  segment BANKED_CODE, align 1, keep-with-next
     46          void set_timer1_ch(uint8 a,uint8 b)
   \                     set_timer1_ch:
     47          {
   \   000000   C082         PUSH    DPL
   \   000002   C083         PUSH    DPH
   \   000004                ; Saved register size: 2
   \   000004                ; Auto size: 0
     48             switch(a)
   \   000004   E9           MOV     A,R1
   \   000005   14           DEC     A
   \   000006   600B         JZ      ??set_timer1_ch_0
   \   000008   14           DEC     A
   \   000009   6011         JZ      ??set_timer1_ch_1
   \   00000B   14           DEC     A
   \   00000C   6017         JZ      ??set_timer1_ch_2
   \   00000E   14           DEC     A
   \   00000F   601D         JZ      ??set_timer1_ch_3
   \   000011   8027         SJMP    ??set_timer1_ch_4
     49             {
     50             case 1:
     51               {
     52                 // R
     53                 T1CC1L = b;
   \                     ??set_timer1_ch_0:
   \   000013   8ADC         MOV     0xdc,R2
     54                 T1CC1H = b;
   \   000015   8ADD         MOV     0xdd,R2
     55                 //set to RGBA; 
     56                 RGBA->R=b;
   \   000017   12....       LCALL   ??Subroutine9_0 & 0xFFFF
     57               }break;
   \                     ??CrossCallReturnLabel_8:
   \   00001A   801C         SJMP    ??set_timer1_ch_5
     58             case 2:
     59               {
     60                 // G
     61                 T1CC2L = b;
   \                     ??set_timer1_ch_1:
   \   00001C   8ADE         MOV     0xde,R2
     62                 T1CC2H = b;
   \   00001E   8ADF         MOV     0xdf,R2
     63                 RGBA->G = b;       
   \   000020   12....       LCALL   ??Subroutine9_0 & 0xFFFF
     64               }break;
   \                     ??CrossCallReturnLabel_9:
   \   000023   8012         SJMP    ??set_timer1_ch_6
     65             case 3:
     66               {
     67                 // B
     68                 T1CC3L = b;
   \                     ??set_timer1_ch_2:
   \   000025   EA           MOV     A,R2
   \   000026   9062AC       MOV     DPTR,#0x62ac
   \   000029   12....       LCALL   ?Subroutine4 & 0xFFFF
     69                 T1CC3H = b;
     70                 
     71                 RGBA->B=b;
     72               }break;
   \                     ??CrossCallReturnLabel_6:
   \   00002C   8008         SJMP    ??set_timer1_ch_7
     73             case 4:
     74             {
     75                // A
     76                 T1CC4L = b;
   \                     ??set_timer1_ch_3:
   \   00002E   EA           MOV     A,R2
   \   00002F   9062AE       MOV     DPTR,#0x62ae
   \   000032   12....       LCALL   ?Subroutine4 & 0xFFFF
     77                 T1CC4H = b;
     78                 RGBA->A = b;
     79             }break;
   \                     ??CrossCallReturnLabel_7:
   \   000035   A3           INC     DPTR
   \                     ??set_timer1_ch_7:
   \   000036   A3           INC     DPTR
   \                     ??set_timer1_ch_6:
   \   000037   A3           INC     DPTR
   \                     ??set_timer1_ch_5:
   \   000038   EA           MOV     A,R2
   \   000039   F0           MOVX    @DPTR,A
     80             default:break;
     81             }
     82          }
   \                     ??set_timer1_ch_4:
   \   00003A                REQUIRE ?Subroutine0
   \   00003A                REQUIRE T1CC1L
   \   00003A                REQUIRE T1CC1H
   \   00003A                REQUIRE T1CC2L
   \   00003A                REQUIRE T1CC2H
   \   00003A                ; // Fall through to label ?Subroutine0

   \                                 In  segment BANKED_CODE, align 1, keep-with-next
   \                     ?Subroutine0:
   \   000000   D083         POP     DPH
   \   000002   D082         POP     DPL
   \   000004   02....       LJMP    ?BRET

   \                                 In  segment BANKED_CODE, align 1, keep-with-next
   \                     ?Subroutine4:
   \   000000   F0           MOVX    @DPTR,A
   \   000001   A3           INC     DPTR
   \   000002   F0           MOVX    @DPTR,A
   \   000003                REQUIRE ??Subroutine9_0
   \   000003                ; // Fall through to label ??Subroutine9_0

   \                                 In  segment BANKED_CODE, align 1, keep-with-next
   \                     ??Subroutine9_0:
   \   000000   90....       MOV     DPTR,#RGBA
   \   000003   E0           MOVX    A,@DPTR
   \   000004   F8           MOV     R0,A
   \   000005   A3           INC     DPTR
   \   000006   E0           MOVX    A,@DPTR
   \   000007   F583         MOV     DPH,A
   \   000009   8882         MOV     DPL,R0
   \   00000B   22           RET
     83          

   \                                 In  segment BANKED_CODE, align 1, keep-with-next
     84          static void pwm_switch(uint8 a)
   \                     pwm_switch:
     85          {
   \   000000   74F7         MOV     A,#-0x9
   \   000002   12....       LCALL   ?BANKED_ENTER_XDATA
   \   000005                ; Saved register size: 9
   \   000005                ; Auto size: 0
   \   000005   E9           MOV     A,R1
   \   000006   FE           MOV     R6,A
     86            uint8 tmp;
     87            
     88            if(HI_UINT8(a) & BV(0)) // 这表示要改变 这个pwma rgba 其中一个值
   \   000007   A2E4         MOV     C,0xE0 /* A   */.4
   \   000009   5011         JNC     ??pwm_switch_0
     89            {
     90              INIT_PWM_R();
   \   00000B   43FE02       ORL     0xfe,#0x2
   \   00000E   43F402       ORL     0xf4,#0x2
     91          
     92              tmp =  255 - RGBA->R;
     93              if( LO_UINT8(a) & BV(0) == 0)// 大于0 表示 上拉,反之,下拉
     94              {
     95                tmp = 0;
     96              }
     97              set_timer1_ch(1,tmp);   
   \   000011                ; Setup parameters for call to function set_timer1_ch
   \   000011   12....       LCALL   ??Subroutine9_0 & 0xFFFF
     98            }
   \                     ??CrossCallReturnLabel_10:
   \   000014   12....       LCALL   ??Subroutine11_0 & 0xFFFF
   \                     ??CrossCallReturnLabel_14:
   \   000017   7901         MOV     R1,#0x1
   \   000019   12....       LCALL   ??set_timer1_ch?relay
     99            
    100            if(HI_UINT8(a) & BV(1))
   \                     ??pwm_switch_0:
   \   00001C   EE           MOV     A,R6
   \   00001D   A2E5         MOV     C,0xE0 /* A   */.5
   \   00001F   5011         JNC     ??pwm_switch_1
    101            {
    102              INIT_PWM_G();
   \   000021   43FE01       ORL     0xfe,#0x1
   \   000024   43F401       ORL     0xf4,#0x1
    103              tmp =  255 - RGBA->G;
    104              if( LO_UINT8(a) & BV(1) == 0)
    105              {
    106                tmp = 0;    
    107              }
    108              set_timer1_ch(2,tmp);  
   \   000027                ; Setup parameters for call to function set_timer1_ch
   \   000027   12....       LCALL   ??Subroutine9_0 & 0xFFFF
    109            }
   \                     ??CrossCallReturnLabel_11:
   \   00002A   12....       LCALL   ??Subroutine10_0 & 0xFFFF
   \                     ??CrossCallReturnLabel_15:
   \   00002D   7902         MOV     R1,#0x2
   \   00002F   12....       LCALL   ??set_timer1_ch?relay
    110            
    111            if(HI_UINT8(a) & BV(2))
   \                     ??pwm_switch_1:
   \   000032   EE           MOV     A,R6
   \   000033   A2E6         MOV     C,0xE0 /* A   */.6
   \   000035   5011         JNC     ??pwm_switch_2
    112            { 
    113              INIT_PWM_B();
   \   000037   43FD80       ORL     0xfd,#0x80
   \   00003A   43F380       ORL     0xf3,#0x80
    114              tmp =  255 - RGBA->B;
    115              if( LO_UINT8(a) & BV(2) == 0)
    116              {
    117                tmp = 0; 
    118              }
    119              set_timer1_ch(3,tmp);  
   \   00003D                ; Setup parameters for call to function set_timer1_ch
   \   00003D   12....       LCALL   ??Subroutine9_0 & 0xFFFF
    120            }
   \                     ??CrossCallReturnLabel_12:
   \   000040   12....       LCALL   ?Subroutine3 & 0xFFFF
   \                     ??CrossCallReturnLabel_16:
   \   000043   7903         MOV     R1,#0x3
   \   000045   12....       LCALL   ??set_timer1_ch?relay
    121            
    122            if(HI_UINT8(a) & BV(3))
   \                     ??pwm_switch_2:
   \   000048   EE           MOV     A,R6
   \   000049   A2E7         MOV     C,0xE0 /* A   */.7
   \   00004B   5012         JNC     ??pwm_switch_3
    123            {
    124              INIT_PWM_A();
   \   00004D   43FD40       ORL     0xfd,#0x40
   \   000050   43F340       ORL     0xf3,#0x40
    125              tmp =  255 - RGBA->A;
    126              if( LO_UINT8(a) & BV(3) == 0)
    127              {
    128                tmp = 0;    
    129              }
    130              set_timer1_ch(4,tmp);  
   \   000053                ; Setup parameters for call to function set_timer1_ch
   \   000053   12....       LCALL   ??Subroutine9_0 & 0xFFFF
    131            }  
   \                     ??CrossCallReturnLabel_13:
   \   000056   A3           INC     DPTR
   \   000057   12....       LCALL   ?Subroutine3 & 0xFFFF
   \                     ??CrossCallReturnLabel_17:
   \   00005A   7904         MOV     R1,#0x4
   \   00005C   12....       LCALL   ??set_timer1_ch?relay
    132            
    133            //P1SEL |= 0x03; //p1_0,p1_1 用来当timer1的通道  G,R
    134            //P0SEL |= 0x80; //p0_7,用来当Timer1的通道  B
    135           
    136            return;
   \                     ??pwm_switch_3:
   \   00005F                REQUIRE ?Subroutine1
   \   00005F                REQUIRE P0DIR
   \   00005F                REQUIRE P0SEL
   \   00005F                REQUIRE P1DIR
   \   00005F                REQUIRE P1SEL
   \   00005F                ; // Fall through to label ?Subroutine1
    137          }

   \                                 In  segment BANKED_CODE, align 1, keep-with-next
   \                     ?Subroutine1:
   \   000000   7F01         MOV     R7,#0x1
   \   000002   02....       LJMP    ?BANKED_LEAVE_XDATA

   \                                 In  segment BANKED_CODE, align 1, keep-with-next
   \                     ?Subroutine3:
   \   000000   A3           INC     DPTR
   \   000001                REQUIRE ??Subroutine10_0
   \   000001                ; // Fall through to label ??Subroutine10_0

   \                                 In  segment BANKED_CODE, align 1, keep-with-next
   \                     ??Subroutine10_0:
   \   000000   A3           INC     DPTR
   \   000001                REQUIRE ??Subroutine11_0
   \   000001                ; // Fall through to label ??Subroutine11_0

   \                                 In  segment BANKED_CODE, align 1, keep-with-next
   \                     ??Subroutine11_0:
   \   000000   E0           MOVX    A,@DPTR
   \   000001   F8           MOV     R0,A
   \   000002   74FF         MOV     A,#-0x1
   \   000004   C3           CLR     C
   \   000005   98           SUBB    A,R0
   \   000006   FA           MOV     R2,A
   \   000007   22           RET
    138          

   \                                 In  segment BANKED_CODE, align 1, keep-with-next
    139          void guu_io_group_opera(guu_io_opera_t *ptr)
   \                     guu_io_group_opera:
    140          {
   \   000000   C082         PUSH    DPL
   \   000002   C083         PUSH    DPH
   \   000004                ; Saved register size: 2
   \   000004                ; Auto size: 0
    141            uint8 dir;
    142            dir = ptr->arg;//ptr->arg >> 4;/// 4-7
   \   000004   8A82         MOV     DPL,R2
   \   000006   8B83         MOV     DPH,R3
   \   000008   A3           INC     DPTR
   \   000009   E0           MOVX    A,@DPTR
   \   00000A   F8           MOV     R0,A
    143          
    144            switch(ptr->cmd)
   \   00000B   8A82         MOV     DPL,R2
   \   00000D   8B83         MOV     DPH,R3
   \   00000F   E0           MOVX    A,@DPTR
   \   000010   2417         ADD     A,#0x17
   \   000012   6006         JZ      ??guu_io_group_opera_0
   \   000014   14           DEC     A
   \   000015   604A         JZ      ??guu_io_group_opera_1
   \   000017   02....       LJMP    ??guu_io_group_opera_2 & 0xFFFF
    145            {
    146            case IO_BIT_OPERA1:
    147              {
    148                if( dir & BV(0) ) { INIT_LED7(); if(dir&BV(4)){ HAL_TURN_ON_LED7();}else{ HAL_TURN_OFF_LED7();} }
   \                     ??guu_io_group_opera_0:
   \   00001A   E8           MOV     A,R0
   \   00001B   A2E0         MOV     C,0xE0 /* A   */.0
   \   00001D   500D         JNC     ??guu_io_group_opera_3
   \   00001F   43FD02       ORL     0xfd,#0x2
   \   000022   A2E4         MOV     C,0xE0 /* A   */.4
   \   000024   5004         JNC     ??guu_io_group_opera_4
   \   000026   D281         SETB    0x80.1
   \   000028   8002         SJMP    ??guu_io_group_opera_3
   \                     ??guu_io_group_opera_4:
   \   00002A   C281         CLR     0x80.1
    149                if( dir & BV(1) ) { INIT_LED8(); if(dir&BV(5)){ HAL_TURN_ON_LED8();}else{ HAL_TURN_OFF_LED8();} }
   \                     ??guu_io_group_opera_3:
   \   00002C   A2E1         MOV     C,0xE0 /* A   */.1
   \   00002E   500D         JNC     ??guu_io_group_opera_5
   \   000030   43FD10       ORL     0xfd,#0x10
   \   000033   A2E5         MOV     C,0xE0 /* A   */.5
   \   000035   5004         JNC     ??guu_io_group_opera_6
   \   000037   D284         SETB    0x80.4
   \   000039   8002         SJMP    ??guu_io_group_opera_5
   \                     ??guu_io_group_opera_6:
   \   00003B   C284         CLR     0x80.4
    150                if( dir & BV(2) ) { INIT_LED5(); if(dir&BV(6)){ HAL_TURN_ON_LED5();}else{ HAL_TURN_OFF_LED5();} }
   \                     ??guu_io_group_opera_5:
   \   00003D   A2E2         MOV     C,0xE0 /* A   */.2
   \   00003F   500D         JNC     ??guu_io_group_opera_7
   \   000041   43FE08       ORL     0xfe,#0x8
   \   000044   A2E6         MOV     C,0xE0 /* A   */.6
   \   000046   5004         JNC     ??guu_io_group_opera_8
   \   000048   D293         SETB    0x90.3
   \   00004A   8002         SJMP    ??guu_io_group_opera_7
   \                     ??guu_io_group_opera_8:
   \   00004C   C293         CLR     0x90.3
    151                if( dir & BV(3) ) { INIT_LED6(); if(dir&BV(7)){ HAL_TURN_ON_LED6();}else{ HAL_TURN_OFF_LED6();} }
   \                     ??guu_io_group_opera_7:
   \   00004E   A2E3         MOV     C,0xE0 /* A   */.3
   \   000050   5060         JNC     ??guu_io_group_opera_2
   \   000052   43FE20       ORL     0xfe,#0x20
   \   000055   A2E7         MOV     C,0xE0 /* A   */.7
   \   000057   5004         JNC     ??guu_io_group_opera_9
   \   000059   D295         SETB    0x90.5
   \   00005B   8055         SJMP    ??guu_io_group_opera_2
   \                     ??guu_io_group_opera_9:
   \   00005D   C295         CLR     0x90.5
   \   00005F   8051         SJMP    ??guu_io_group_opera_2
    152          
    153              }break;
    154            case IO_BIT_OPERA2:
    155              {
    156                if( dir & BV(0) ) { INIT_LED3(); if(dir&BV(4)){ HAL_TURN_ON_LED3();}else{ HAL_TURN_OFF_LED3();} }
   \                     ??guu_io_group_opera_1:
   \   000061   E8           MOV     A,R0
   \   000062   A2E0         MOV     C,0xE0 /* A   */.0
   \   000064   5010         JNC     ??guu_io_group_opera_10
   \   000066   53F3BF       ANL     0xf3,#0xbf
   \   000069   43FD40       ORL     0xfd,#0x40
   \   00006C   A2E4         MOV     C,0xE0 /* A   */.4
   \   00006E   5004         JNC     ??guu_io_group_opera_11
   \   000070   D286         SETB    0x80.6
   \   000072   8002         SJMP    ??guu_io_group_opera_10
   \                     ??guu_io_group_opera_11:
   \   000074   C286         CLR     0x80.6
    157                if( dir & BV(1) ) { INIT_LED4(); if(dir&BV(5)){ HAL_TURN_ON_LED4();}else{ HAL_TURN_OFF_LED4();} }
   \                     ??guu_io_group_opera_10:
   \   000076   A2E1         MOV     C,0xE0 /* A   */.1
   \   000078   5010         JNC     ??guu_io_group_opera_12
   \   00007A   53F37F       ANL     0xf3,#0x7f
   \   00007D   43FD80       ORL     0xfd,#0x80
   \   000080   A2E5         MOV     C,0xE0 /* A   */.5
   \   000082   5004         JNC     ??guu_io_group_opera_13
   \   000084   D287         SETB    0x80.7
   \   000086   8002         SJMP    ??guu_io_group_opera_12
   \                     ??guu_io_group_opera_13:
   \   000088   C287         CLR     0x80.7
    158                if( dir & BV(2) ) { INIT_LED1(); if(dir&BV(6)){ HAL_TURN_ON_LED1();}else{ HAL_TURN_OFF_LED1();} }
   \                     ??guu_io_group_opera_12:
   \   00008A   A2E2         MOV     C,0xE0 /* A   */.2
   \   00008C   5010         JNC     ??guu_io_group_opera_14
   \   00008E   53F4FE       ANL     0xf4,#0xfe
   \   000091   43FE01       ORL     0xfe,#0x1
   \   000094   A2E6         MOV     C,0xE0 /* A   */.6
   \   000096   5004         JNC     ??guu_io_group_opera_15
   \   000098   D290         SETB    0x90.0
   \   00009A   8002         SJMP    ??guu_io_group_opera_14
   \                     ??guu_io_group_opera_15:
   \   00009C   C290         CLR     0x90.0
    159                if( dir & BV(3) ) { INIT_LED2(); if(dir&BV(7)){ HAL_TURN_ON_LED2();}else{ HAL_TURN_OFF_LED2();} }      
   \                     ??guu_io_group_opera_14:
   \   00009E   A2E3         MOV     C,0xE0 /* A   */.3
   \   0000A0   5010         JNC     ??guu_io_group_opera_2
   \   0000A2   53F4FD       ANL     0xf4,#0xfd
   \   0000A5   43FE02       ORL     0xfe,#0x2
   \   0000A8   A2E7         MOV     C,0xE0 /* A   */.7
   \   0000AA   5004         JNC     ??guu_io_group_opera_16
   \   0000AC   D291         SETB    0x90.1
   \   0000AE   8002         SJMP    ??guu_io_group_opera_2
   \                     ??guu_io_group_opera_16:
   \   0000B0   C291         CLR     0x90.1
    160              }break;
    161            default:break;
    162            }
    163          }
   \                     ??guu_io_group_opera_2:
   \   0000B2   02....       LJMP    ?Subroutine0 & 0xFFFF
   \   0000B5                REQUIRE P0DIR
   \   0000B5                REQUIRE _A_P0
   \   0000B5                REQUIRE P1DIR
   \   0000B5                REQUIRE _A_P1
   \   0000B5                REQUIRE P0SEL
   \   0000B5                REQUIRE P1SEL
    164          

   \                                 In  segment BANKED_CODE, align 1, keep-with-next
    165          void guu_io_opera(guu_io_opera_t *ptr)
   \                     guu_io_opera:
    166          {
   \   000000   74F6         MOV     A,#-0xa
   \   000002   12....       LCALL   ?BANKED_ENTER_XDATA
   \   000005                ; Saved register size: 10
   \   000005                ; Auto size: 0
    167            uint8 dir;
    168            uint8 number;
    169            dir = HI_UINT8(ptr->arg);/// 4-7
   \   000005   8A82         MOV     DPL,R2
   \   000007   8B83         MOV     DPH,R3
   \   000009   A3           INC     DPTR
   \   00000A   E0           MOVX    A,@DPTR
   \   00000B   F8           MOV     R0,A
   \   00000C   C4           SWAP    A
   \   00000D   540F         ANL     A,#0xf
   \   00000F   F9           MOV     R1,A
    170            number = LO_UINT8(ptr->arg); // 0-3
   \   000010   740F         MOV     A,#0xf
   \   000012   58           ANL     A,R0
   \   000013   FC           MOV     R4,A
    171            
    172          //#define HI_UINT8(a) (((a) >> 4) & 0x0F)
    173          //#define LO_UINT8(a) ((a) & 0x0F)
    174            
    175            switch(ptr->cmd)
   \   000014   8A82         MOV     DPL,R2
   \   000016   8B83         MOV     DPH,R3
   \   000018   E0           MOVX    A,@DPTR
   \   000019   2414         ADD     A,#0x14
   \   00001B   7003         JNZ     $+5
   \   00001D   02....       LJMP    ??guu_io_opera_0 & 0xFFFF
   \   000020   14           DEC     A
   \   000021   6010         JZ      ??guu_io_opera_1
   \   000023   24FE         ADD     A,#-0x2
   \   000025   7003         JNZ     $+5
   \   000027   02....       LJMP    ??guu_io_opera_2 & 0xFFFF
   \   00002A   14           DEC     A
   \   00002B   7003         JNZ     $+5
   \   00002D   02....       LJMP    ??guu_io_opera_3 & 0xFFFF
   \   000030   02....       LJMP    ??guu_io_opera_4 & 0xFFFF
    176            {
    177            case 0xed:
    178              {
    179                if(dir == 0)
   \                     ??guu_io_opera_1:
   \   000033   E9           MOV     A,R1
   \   000034   7030         JNZ     ??guu_io_opera_5
    180                {
    181          				if(number == 6 || number == 7)
   \   000036   7406         MOV     A,#0x6
   \   000038   6C           XRL     A,R4
   \   000039   6005         JZ      ??guu_io_opera_6
   \   00003B   7407         MOV     A,#0x7
   \   00003D   6C           XRL     A,R4
   \   00003E   7011         JNZ     ??guu_io_opera_7
    182          				{
    183          					P0SEL &= ~BV(number);
   \                     ??guu_io_opera_6:
   \   000040   75..01       MOV     ?V0 + 0,#0x1
   \   000043   75..00       MOV     ?V0 + 1,#0x0
   \   000046   EC           MOV     A,R4
   \   000047   78..         MOV     R0,#?V0 + 0
   \   000049   12....       LCALL   ?S_SHL
   \   00004C   E5..         MOV     A,?V0 + 0
   \   00004E   F4           CPL     A
   \   00004F   52F3         ANL     0xf3,A
    184          				}
    185                  P0DIR |= BV(number);
   \                     ??guu_io_opera_7:
   \   000051   75..01       MOV     ?V0 + 0,#0x1
   \   000054   75..00       MOV     ?V0 + 1,#0x0
   \   000057   EC           MOV     A,R4
   \   000058   78..         MOV     R0,#?V0 + 0
   \   00005A   12....       LCALL   ?S_SHL
   \   00005D   E5..         MOV     A,?V0 + 0
   \   00005F   42FD         ORL     0xfd,A
    186                  P0 |= BV(number);
   \                     ??guu_io_opera_8:
   \   000061   4280         ORL     0x80,A
   \   000063   02....       LJMP    ??guu_io_opera_4 & 0xFFFF
    187          
    188                }else if( dir== 1)
   \                     ??guu_io_opera_5:
   \   000066   7401         MOV     A,#0x1
   \   000068   69           XRL     A,R1
   \   000069   702E         JNZ     ??guu_io_opera_9
    189                {
    190          				if(number == 0 || number == 1)
   \   00006B   EC           MOV     A,R4
   \   00006C   6005         JZ      ??guu_io_opera_10
   \   00006E   7401         MOV     A,#0x1
   \   000070   6C           XRL     A,R4
   \   000071   7011         JNZ     ??guu_io_opera_11
    191          				{
    192          					P1SEL &= ~BV(number);
   \                     ??guu_io_opera_10:
   \   000073   75..01       MOV     ?V0 + 0,#0x1
   \   000076   75..00       MOV     ?V0 + 1,#0x0
   \   000079   EC           MOV     A,R4
   \   00007A   78..         MOV     R0,#?V0 + 0
   \   00007C   12....       LCALL   ?S_SHL
   \   00007F   E5..         MOV     A,?V0 + 0
   \   000081   F4           CPL     A
   \   000082   52F4         ANL     0xf4,A
    193          				}
    194                  P1DIR |=BV(number);
   \                     ??guu_io_opera_11:
   \   000084   75..01       MOV     ?V0 + 0,#0x1
   \   000087   75..00       MOV     ?V0 + 1,#0x0
   \   00008A   EC           MOV     A,R4
   \   00008B   78..         MOV     R0,#?V0 + 0
   \   00008D   12....       LCALL   ?S_SHL
   \   000090   E5..         MOV     A,?V0 + 0
   \   000092   42FE         ORL     0xfe,A
    195                  P1 |= BV(number);
   \                     ??guu_io_opera_12:
   \   000094   4290         ORL     0x90,A
   \   000096   02....       LJMP    ??guu_io_opera_4 & 0xFFFF
    196                }
    197                else if (dir == 2)
   \                     ??guu_io_opera_9:
   \   000099   7402         MOV     A,#0x2
   \   00009B   69           XRL     A,R1
   \   00009C   6003         JZ      $+5
   \   00009E   02....       LJMP    ??guu_io_opera_4 & 0xFFFF
    198                {
    199                  P2DIR |= BV(number);
   \   0000A1   75..01       MOV     ?V0 + 0,#0x1
   \   0000A4   75..00       MOV     ?V0 + 1,#0x0
   \   0000A7   EC           MOV     A,R4
   \   0000A8   78..         MOV     R0,#?V0 + 0
   \   0000AA   12....       LCALL   ?S_SHL
   \   0000AD   E5..         MOV     A,?V0 + 0
   \   0000AF   42FF         ORL     0xff,A
    200                  P2 |= BV(number);
   \                     ??guu_io_opera_13:
   \   0000B1   42A0         ORL     0xa0,A
   \   0000B3   02....       LJMP    ??guu_io_opera_4 & 0xFFFF
    201                }
    202              }break;
    203            case 0xef:
    204              {
    205                if(dir == 0)
   \                     ??guu_io_opera_2:
   \   0000B6   E9           MOV     A,R1
   \   0000B7   7031         JNZ     ??guu_io_opera_14
    206                {
    207          				if(number == 6 || number == 7)
   \   0000B9   7406         MOV     A,#0x6
   \   0000BB   6C           XRL     A,R4
   \   0000BC   6005         JZ      ??guu_io_opera_15
   \   0000BE   7407         MOV     A,#0x7
   \   0000C0   6C           XRL     A,R4
   \   0000C1   7011         JNZ     ??guu_io_opera_16
    208          				{
    209          					P0SEL &= ~BV(number);
   \                     ??guu_io_opera_15:
   \   0000C3   75..01       MOV     ?V0 + 0,#0x1
   \   0000C6   75..00       MOV     ?V0 + 1,#0x0
   \   0000C9   EC           MOV     A,R4
   \   0000CA   78..         MOV     R0,#?V0 + 0
   \   0000CC   12....       LCALL   ?S_SHL
   \   0000CF   E5..         MOV     A,?V0 + 0
   \   0000D1   F4           CPL     A
   \   0000D2   52F3         ANL     0xf3,A
    210          				}
    211                  P0DIR |= BV(number);
   \                     ??guu_io_opera_16:
   \   0000D4   75..01       MOV     ?V0 + 0,#0x1
   \   0000D7   75..00       MOV     ?V0 + 1,#0x0
   \   0000DA   EC           MOV     A,R4
   \   0000DB   78..         MOV     R0,#?V0 + 0
   \   0000DD   12....       LCALL   ?S_SHL
   \   0000E0   E5..         MOV     A,?V0 + 0
   \   0000E2   42FD         ORL     0xfd,A
    212                  P0 &= ~BV(number);
   \                     ??guu_io_opera_17:
   \   0000E4   F4           CPL     A
   \   0000E5   5280         ANL     0x80,A
   \   0000E7   02....       LJMP    ??guu_io_opera_4 & 0xFFFF
    213          
    214                }else if( dir== 1)
   \                     ??guu_io_opera_14:
   \   0000EA   7401         MOV     A,#0x1
   \   0000EC   69           XRL     A,R1
   \   0000ED   702F         JNZ     ??guu_io_opera_18
    215                {
    216          				if(number == 0 || number == 1)
   \   0000EF   EC           MOV     A,R4
   \   0000F0   6005         JZ      ??guu_io_opera_19
   \   0000F2   7401         MOV     A,#0x1
   \   0000F4   6C           XRL     A,R4
   \   0000F5   7011         JNZ     ??guu_io_opera_20
    217          				{
    218          					P1SEL &= ~BV(number);
   \                     ??guu_io_opera_19:
   \   0000F7   75..01       MOV     ?V0 + 0,#0x1
   \   0000FA   75..00       MOV     ?V0 + 1,#0x0
   \   0000FD   EC           MOV     A,R4
   \   0000FE   78..         MOV     R0,#?V0 + 0
   \   000100   12....       LCALL   ?S_SHL
   \   000103   E5..         MOV     A,?V0 + 0
   \   000105   F4           CPL     A
   \   000106   52F4         ANL     0xf4,A
    219          				}
    220                  P1DIR |=BV(number);
   \                     ??guu_io_opera_20:
   \   000108   75..01       MOV     ?V0 + 0,#0x1
   \   00010B   75..00       MOV     ?V0 + 1,#0x0
   \   00010E   EC           MOV     A,R4
   \   00010F   78..         MOV     R0,#?V0 + 0
   \   000111   12....       LCALL   ?S_SHL
   \   000114   E5..         MOV     A,?V0 + 0
   \   000116   42FE         ORL     0xfe,A
    221                  P1 &= ~BV(number);
   \                     ??guu_io_opera_21:
   \   000118   F4           CPL     A
   \   000119   5290         ANL     0x90,A
   \   00011B   02....       LJMP    ??guu_io_opera_4 & 0xFFFF
    222                }
    223                else if (dir == 2)
   \                     ??guu_io_opera_18:
   \   00011E   7402         MOV     A,#0x2
   \   000120   69           XRL     A,R1
   \   000121   6003         JZ      $+5
   \   000123   02....       LJMP    ??guu_io_opera_4 & 0xFFFF
    224                {
    225                  P2DIR |= BV(number);
   \   000126   75..01       MOV     ?V0 + 0,#0x1
   \   000129   75..00       MOV     ?V0 + 1,#0x0
   \   00012C   EC           MOV     A,R4
   \   00012D   78..         MOV     R0,#?V0 + 0
   \   00012F   12....       LCALL   ?S_SHL
   \   000132   E5..         MOV     A,?V0 + 0
   \   000134   42FF         ORL     0xff,A
    226                  P2 &= ~BV(number);
   \                     ??guu_io_opera_22:
   \   000136   F4           CPL     A
   \   000137   52A0         ANL     0xa0,A
   \   000139   02....       LJMP    ??guu_io_opera_4 & 0xFFFF
    227                }
    228              }break;
    229            case 0xec:
    230              {
    231                if(dir == 0)
   \                     ??guu_io_opera_0:
   \   00013C   E9           MOV     A,R1
   \   00013D   7049         JNZ     ??guu_io_opera_23
    232                {
    233          				if(number == 6 || number == 7)
   \   00013F   7406         MOV     A,#0x6
   \   000141   6C           XRL     A,R4
   \   000142   6005         JZ      ??guu_io_opera_24
   \   000144   7407         MOV     A,#0x7
   \   000146   6C           XRL     A,R4
   \   000147   7011         JNZ     ??guu_io_opera_25
    234          				{
    235          					P0SEL &= ~BV(number);
   \                     ??guu_io_opera_24:
   \   000149   75..01       MOV     ?V0 + 0,#0x1
   \   00014C   75..00       MOV     ?V0 + 1,#0x0
   \   00014F   EC           MOV     A,R4
   \   000150   78..         MOV     R0,#?V0 + 0
   \   000152   12....       LCALL   ?S_SHL
   \   000155   E5..         MOV     A,?V0 + 0
   \   000157   F4           CPL     A
   \   000158   52F3         ANL     0xf3,A
    236          				}
    237                  P0DIR |= BV(number);
   \                     ??guu_io_opera_25:
   \   00015A   75..01       MOV     ?V0 + 0,#0x1
   \   00015D   75..00       MOV     ?V0 + 1,#0x0
   \   000160   EC           MOV     A,R4
   \   000161   78..         MOV     R0,#?V0 + 0
   \   000163   12....       LCALL   ?S_SHL
   \   000166   A8..         MOV     R0,?V0 + 0
   \   000168   E8           MOV     A,R0
   \   000169   42FD         ORL     0xfd,A
    238                  if(P0 & BV(number))
   \   00016B   E580         MOV     A,0x80
   \   00016D   12....       LCALL   ?Subroutine7 & 0xFFFF
   \                     ??CrossCallReturnLabel_3:
   \   000170   600B         JZ      ??guu_io_opera_26
    239                  {
    240                    P0 &= ~BV(number);
   \   000172   EC           MOV     A,R4
   \   000173   78..         MOV     R0,#?V0 + 0
   \   000175   12....       LCALL   ?S_SHL
   \   000178   E5..         MOV     A,?V0 + 0
   \   00017A   02....       LJMP    ??guu_io_opera_17 & 0xFFFF
    241                  }else
    242                  {
    243                    P0 |= BV(number);
   \                     ??guu_io_opera_26:
   \   00017D   EC           MOV     A,R4
   \   00017E   78..         MOV     R0,#?V0 + 0
   \   000180   12....       LCALL   ?S_SHL
   \   000183   E5..         MOV     A,?V0 + 0
   \   000185   02....       LJMP    ??guu_io_opera_8 & 0xFFFF
    244                  }
    245                }
    246                else if(dir ==1)
   \                     ??guu_io_opera_23:
   \   000188   7401         MOV     A,#0x1
   \   00018A   69           XRL     A,R1
   \   00018B   7047         JNZ     ??guu_io_opera_27
    247                {
    248          				if(number == 0 || number == 1)
   \   00018D   EC           MOV     A,R4
   \   00018E   6005         JZ      ??guu_io_opera_28
   \   000190   7401         MOV     A,#0x1
   \   000192   6C           XRL     A,R4
   \   000193   7011         JNZ     ??guu_io_opera_29
    249          				{
    250          					P1SEL &= ~BV(number);
   \                     ??guu_io_opera_28:
   \   000195   75..01       MOV     ?V0 + 0,#0x1
   \   000198   75..00       MOV     ?V0 + 1,#0x0
   \   00019B   EC           MOV     A,R4
   \   00019C   78..         MOV     R0,#?V0 + 0
   \   00019E   12....       LCALL   ?S_SHL
   \   0001A1   E5..         MOV     A,?V0 + 0
   \   0001A3   F4           CPL     A
   \   0001A4   52F4         ANL     0xf4,A
    251          				}
    252                  P1DIR |= BV(number);
   \                     ??guu_io_opera_29:
   \   0001A6   75..01       MOV     ?V0 + 0,#0x1
   \   0001A9   75..00       MOV     ?V0 + 1,#0x0
   \   0001AC   EC           MOV     A,R4
   \   0001AD   78..         MOV     R0,#?V0 + 0
   \   0001AF   12....       LCALL   ?S_SHL
   \   0001B2   A8..         MOV     R0,?V0 + 0
   \   0001B4   E8           MOV     A,R0
   \   0001B5   42FE         ORL     0xfe,A
    253                  if(P1 & BV(number))
   \   0001B7   E590         MOV     A,0x90
   \   0001B9   12....       LCALL   ?Subroutine7 & 0xFFFF
   \                     ??CrossCallReturnLabel_4:
   \   0001BC   600B         JZ      ??guu_io_opera_30
    254                  {
    255                    P1 &= ~BV(number);
   \   0001BE   EC           MOV     A,R4
   \   0001BF   78..         MOV     R0,#?V0 + 0
   \   0001C1   12....       LCALL   ?S_SHL
   \   0001C4   E5..         MOV     A,?V0 + 0
   \   0001C6   02....       LJMP    ??guu_io_opera_21 & 0xFFFF
    256                  }else
    257                  {
    258                    P1 |= BV(number);
   \                     ??guu_io_opera_30:
   \   0001C9   EC           MOV     A,R4
   \   0001CA   78..         MOV     R0,#?V0 + 0
   \   0001CC   12....       LCALL   ?S_SHL
   \   0001CF   E5..         MOV     A,?V0 + 0
   \   0001D1   02....       LJMP    ??guu_io_opera_12 & 0xFFFF
    259                  }
    260                }
    261                else if(dir == 2)
   \                     ??guu_io_opera_27:
   \   0001D4   7402         MOV     A,#0x2
   \   0001D6   69           XRL     A,R1
   \   0001D7   7034         JNZ     ??guu_io_opera_4
    262                {
    263                  P2DIR |= BV(number);
   \   0001D9   75..01       MOV     ?V0 + 0,#0x1
   \   0001DC   75..00       MOV     ?V0 + 1,#0x0
   \   0001DF   EC           MOV     A,R4
   \   0001E0   78..         MOV     R0,#?V0 + 0
   \   0001E2   12....       LCALL   ?S_SHL
   \   0001E5   A8..         MOV     R0,?V0 + 0
   \   0001E7   E8           MOV     A,R0
   \   0001E8   42FF         ORL     0xff,A
    264                  if(P2 & BV(number))
   \   0001EA   E5A0         MOV     A,0xa0
   \   0001EC   12....       LCALL   ?Subroutine7 & 0xFFFF
   \                     ??CrossCallReturnLabel_5:
   \   0001EF   600B         JZ      ??guu_io_opera_31
    265                  {
    266                    P2 &= ~BV(number);
   \   0001F1   EC           MOV     A,R4
   \   0001F2   78..         MOV     R0,#?V0 + 0
   \   0001F4   12....       LCALL   ?S_SHL
   \   0001F7   E5..         MOV     A,?V0 + 0
   \   0001F9   02....       LJMP    ??guu_io_opera_22 & 0xFFFF
    267                  }else
    268                  {
    269                    P2 |= BV(number);
   \                     ??guu_io_opera_31:
   \   0001FC   EC           MOV     A,R4
   \   0001FD   78..         MOV     R0,#?V0 + 0
   \   0001FF   12....       LCALL   ?S_SHL
   \   000202   E5..         MOV     A,?V0 + 0
   \   000204   02....       LJMP    ??guu_io_opera_13 & 0xFFFF
    270                  }
    271                }
    272              }break;
    273            case 0xf0:
    274              {
    275                pwm_switch(ptr->arg);
   \                     ??guu_io_opera_3:
   \   000207                ; Setup parameters for call to function pwm_switch
   \   000207   A3           INC     DPTR
   \   000208   E0           MOVX    A,@DPTR
   \   000209   F9           MOV     R1,A
   \   00020A   12....       LCALL   ??pwm_switch?relay
    276              }break;
    277            default:break;
    278            }
    279          }
   \                     ??guu_io_opera_4:
   \   00020D   7F02         MOV     R7,#0x2
   \   00020F   02....       LJMP    ?BANKED_LEAVE_XDATA
   \   000212                REQUIRE P0SEL
   \   000212                REQUIRE P0DIR
   \   000212                REQUIRE _A_P0
   \   000212                REQUIRE P1SEL
   \   000212                REQUIRE P1DIR
   \   000212                REQUIRE _A_P1
   \   000212                REQUIRE P2DIR
   \   000212                REQUIRE _A_P2

   \                                 In  segment BANKED_CODE, align 1, keep-with-next
   \                     ?Subroutine7:
   \   000000   58           ANL     A,R0
   \   000001   75..01       MOV     ?V0 + 0,#0x1
   \   000004   75..00       MOV     ?V0 + 1,#0x0
   \   000007   22           RET
    280          

   \                                 In  segment BANKED_CODE, align 1, keep-with-next
    281          void exec_io(io_cmd_t *p)
   \                     exec_io:
    282          {
   \   000000                ; Saved register size: 0
   \   000000                ; Auto size: 0
    283            io_cmd_data_t *ptr;
    284          
    285            if(p->number >3) return;
   \   000000   02....       LJMP    ?BRET
    286            ptr = sw_arr[p->number];
    287            
    288            if(ptr != NULL)
    289            {
    290              if(ptr->saddr != INVALID_NODE_ADDR || ptr->saddr != 0xFFFF)//s_d == 0xfffe有两种情况，一种是人为指定了为了区别本地操作与否，一种是代表了从FLASH中读出来就是这样的
    291              {
    292                //uprint("not local");
    293                //s_d不能为0xffff,0xffff代表了 全局广播 
    294                //SendData(s_d, pbuf,2);
    295                //用MT_AFxxxxx发出
    296                //guu_mt_af_req(p->saddr,(uint8*)ptr+2,2);
    297              }else // 这代表了指向本地设备自身的操作
    298              {
    299                //ptr1 = (guu_io_opera_t*)((uint8*)ptr+2);
    300                guu_io_opera( &ptr->cmd_t);
    301              }
    302            }
    303          }
    304          

   \                                 In  segment BANKED_CODE, align 1, keep-with-next
    305          void exec_io_cmd(io_cmd_t *p)
   \                     exec_io_cmd:
    306          {
   \   000000   74F1         MOV     A,#-0xf
   \   000002   12....       LCALL   ?BANKED_ENTER_XDATA
   \   000005                ; Saved register size: 15
   \   000005                ; Auto size: 0
   \   000005   8A..         MOV     ?V0 + 2,R2
   \   000007   8B..         MOV     ?V0 + 3,R3
    307            uint16 nvId;
    308            uint8 nvItemLen=0;
    309            uint8 *pCpyBuf=NULL;
    310            if(p->number > 3) return;
   \   000009   8A82         MOV     DPL,R2
   \   00000B   8B83         MOV     DPH,R3
   \   00000D   E0           MOVX    A,@DPTR
   \   00000E   C3           CLR     C
   \   00000F   9404         SUBB    A,#0x4
   \   000011   4003         JC      $+5
   \   000013   02....       LJMP    ??exec_io_cmd_0 & 0xFFFF
    311            nvId = HIGHADDR + p->number;
   \   000016   E0           MOVX    A,@DPTR
   \   000017   2479         ADD     A,#0x79
   \   000019   FE           MOV     R6,A
   \   00001A   E4           CLR     A
   \   00001B   3404         ADDC    A,#0x4
   \   00001D   FF           MOV     R7,A
    312            
    313            HalLedSet (HAL_LED_1, HAL_LED_MODE_BLINK); 
   \   00001E                ; Setup parameters for call to function HalLedSet
   \   00001E   7A02         MOV     R2,#0x2
   \   000020   7901         MOV     R1,#0x1
   \   000022   12....       LCALL   ??HalLedSet?relay
    314            
    315            if(P0& BV(1))
   \   000025   A281         MOV     C,0x80.1
   \   000027   5004         JNC     ??exec_io_cmd_1
    316            {
    317              P0 &= ~BV(1);
   \   000029   C281         CLR     0x80.1
   \   00002B   8002         SJMP    ??exec_io_cmd_2
    318            }else
    319            {
    320              P0 |= BV(1);
   \                     ??exec_io_cmd_1:
   \   00002D   D281         SETB    0x80.1
    321            }
    322              nvItemLen = sizeof(io_cmd_data_t);
    323              if(p->number < 4)// 0123
   \                     ??exec_io_cmd_2:
   \   00002F   85..82       MOV     DPL,?V0 + 2
   \   000032   85..83       MOV     DPH,?V0 + 3
   \   000035   E0           MOVX    A,@DPTR
   \   000036   C3           CLR     C
   \   000037   9404         SUBB    A,#0x4
   \   000039   4003         JC      $+5
   \   00003B   02....       LJMP    ??exec_io_cmd_0 & 0xFFFF
    324              {
    325                if(sw_arr[p->number]==NULL)
   \   00003E   E0           MOVX    A,@DPTR
   \   00003F   12....       LCALL   ?Subroutine5 & 0xFFFF
   \                     ??CrossCallReturnLabel_0:
   \   000042   6003         JZ      $+5
   \   000044   02....       LJMP    ??exec_io_cmd_0 & 0xFFFF
    326                {
    327                    pCpyBuf = osal_mem_alloc( nvItemLen+1);
   \   000047                ; Setup parameters for call to function osal_mem_alloc
   \   000047   7A05         MOV     R2,#0x5
   \   000049   7B00         MOV     R3,#0x0
   \   00004B   12....       LCALL   ??osal_mem_alloc?relay
   \   00004E   8A..         MOV     ?V0 + 0,R2
   \   000050   8B..         MOV     ?V0 + 1,R3
    328                    if (pCpyBuf != NULL)
   \   000052   EA           MOV     A,R2
   \   000053   45..         ORL     A,?V0 + 1
   \   000055   7003         JNZ     $+5
   \   000057   02....       LJMP    ??exec_io_cmd_0 & 0xFFFF
    329                    {
    330                      osal_memset(pCpyBuf, 0, nvItemLen+1);
   \   00005A                ; Setup parameters for call to function osal_memset
   \   00005A   7C05         MOV     R4,#0x5
   \   00005C   7D00         MOV     R5,#0x0
   \   00005E   7900         MOV     R1,#0x0
   \   000060   12....       LCALL   ??osal_memset?relay
    331                      pCpyBuf[0]= ZFailure;
   \   000063   85..82       MOV     DPL,?V0 + 0
   \   000066   85..83       MOV     DPH,?V0 + 1
   \   000069   7401         MOV     A,#0x1
   \   00006B   F0           MOVX    @DPTR,A
    332                      guu_osal_nv_item_init(nvId,(uint16)nvItemLen,NULL);
   \   00006C                ; Setup parameters for call to function guu_osal_nv_item_init
   \   00006C   E4           CLR     A
   \   00006D   F5..         MOV     ?V0 + 4,A
   \   00006F   F5..         MOV     ?V0 + 5,A
   \   000071   78..         MOV     R0,#?V0 + 4
   \   000073   12....       LCALL   ?PUSH_XSTACK_I_TWO
   \   000076   7C04         MOV     R4,#0x4
   \   000078   7D00         MOV     R5,#0x0
   \   00007A   EE           MOV     A,R6
   \   00007B   FA           MOV     R2,A
   \   00007C   EF           MOV     A,R7
   \   00007D   FB           MOV     R3,A
   \   00007E   12....       LCALL   ??guu_osal_nv_item_init?relay
   \   000081   7402         MOV     A,#0x2
   \   000083   12....       LCALL   ?DEALLOC_XSTACK8
    333                      if( ((osal_nv_read( nvId, 0, (uint16)nvItemLen, &pCpyBuf[1])) == ZSUCCESS) )
   \   000086                ; Setup parameters for call to function osal_nv_read
   \   000086   85..82       MOV     DPL,?V0 + 0
   \   000089   85..83       MOV     DPH,?V0 + 1
   \   00008C   A3           INC     DPTR
   \   00008D   8582..       MOV     ?V0 + 4,DPL
   \   000090   8583..       MOV     ?V0 + 5,DPH
   \   000093   78..         MOV     R0,#?V0 + 4
   \   000095   12....       LCALL   ?PUSH_XSTACK_I_TWO
   \   000098   75..04       MOV     ?V0 + 4,#0x4
   \   00009B   75..00       MOV     ?V0 + 5,#0x0
   \   00009E   78..         MOV     R0,#?V0 + 4
   \   0000A0   12....       LCALL   ?PUSH_XSTACK_I_TWO
   \   0000A3   7C00         MOV     R4,#0x0
   \   0000A5   7D00         MOV     R5,#0x0
   \   0000A7   EE           MOV     A,R6
   \   0000A8   FA           MOV     R2,A
   \   0000A9   EF           MOV     A,R7
   \   0000AA   FB           MOV     R3,A
   \   0000AB   12....       LCALL   ??osal_nv_read?relay
   \   0000AE   7404         MOV     A,#0x4
   \   0000B0   12....       LCALL   ?DEALLOC_XSTACK8
   \   0000B3   E9           MOV     A,R1
   \   0000B4   85..82       MOV     DPL,?V0 + 0
   \   0000B7   85..83       MOV     DPH,?V0 + 1
   \   0000BA   7004         JNZ     ??exec_io_cmd_3
    334                      {
    335                        pCpyBuf[0] = ZSuccess;
   \   0000BC   E4           CLR     A
   \   0000BD   F0           MOVX    @DPTR,A
   \   0000BE   8003         SJMP    ??exec_io_cmd_4
    336                      }
    337                      if(pCpyBuf[0] == ZSuccess)
   \                     ??exec_io_cmd_3:
   \   0000C0   E0           MOVX    A,@DPTR
   \   0000C1   7063         JNZ     ??exec_io_cmd_5
    338                      {
    339                        sw_arr[p->number] = osal_mem_alloc(sizeof(io_cmd_data_t) );
   \                     ??exec_io_cmd_4:
   \   0000C3                ; Setup parameters for call to function osal_mem_alloc
   \   0000C3   7A04         MOV     R2,#0x4
   \   0000C5   7B00         MOV     R3,#0x0
   \   0000C7   12....       LCALL   ??osal_mem_alloc?relay
   \   0000CA   8A..         MOV     ?V0 + 4,R2
   \   0000CC   8B..         MOV     ?V0 + 5,R3
   \   0000CE   85..82       MOV     DPL,?V0 + 2
   \   0000D1   85..83       MOV     DPH,?V0 + 3
   \   0000D4   E0           MOVX    A,@DPTR
   \   0000D5   C3           CLR     C
   \   0000D6   33           RLC     A
   \   0000D7   FA           MOV     R2,A
   \   0000D8   E4           CLR     A
   \   0000D9   33           RLC     A
   \   0000DA   FB           MOV     R3,A
   \   0000DB   74..         MOV     A,#sw_arr & 0xff
   \   0000DD   2A           ADD     A,R2
   \   0000DE   F582         MOV     DPL,A
   \   0000E0   74..         MOV     A,#(sw_arr >> 8) & 0xff
   \   0000E2   3B           ADDC    A,R3
   \   0000E3   F583         MOV     DPH,A
   \   0000E5   E5..         MOV     A,?V0 + 4
   \   0000E7   F0           MOVX    @DPTR,A
   \   0000E8   A3           INC     DPTR
   \   0000E9   E5..         MOV     A,?V0 + 5
   \   0000EB   F0           MOVX    @DPTR,A
    340                        osal_memcpy( (uint8*)&sw_arr[p->number], (uint8*)&pCpyBuf[1], nvItemLen);
   \   0000EC                ; Setup parameters for call to function osal_memcpy
   \   0000EC   85..82       MOV     DPL,?V0 + 0
   \   0000EF   85..83       MOV     DPH,?V0 + 1
   \   0000F2   A3           INC     DPTR
   \   0000F3   A982         MOV     R1,DPL
   \   0000F5   AA83         MOV     R2,DPH
   \   0000F7   89..         MOV     ?V0 + 4,R1
   \   0000F9   8A..         MOV     ?V0 + 5,R2
   \   0000FB   75..00       MOV     ?V0 + 6,#0x0
   \   0000FE   78..         MOV     R0,#?V0 + 4
   \   000100   12....       LCALL   ?PUSH_XSTACK_I_THREE
   \   000103   7C04         MOV     R4,#0x4
   \   000105   7D00         MOV     R5,#0x0
   \   000107   85..82       MOV     DPL,?V0 + 2
   \   00010A   85..83       MOV     DPH,?V0 + 3
   \   00010D   E0           MOVX    A,@DPTR
   \   00010E   C3           CLR     C
   \   00010F   33           RLC     A
   \   000110   F8           MOV     R0,A
   \   000111   E4           CLR     A
   \   000112   33           RLC     A
   \   000113   F9           MOV     R1,A
   \   000114   74..         MOV     A,#sw_arr & 0xff
   \   000116   28           ADD     A,R0
   \   000117   FA           MOV     R2,A
   \   000118   74..         MOV     A,#(sw_arr >> 8) & 0xff
   \   00011A   39           ADDC    A,R1
   \   00011B   FB           MOV     R3,A
   \   00011C   12....       LCALL   ??osal_memcpy?relay
   \   00011F   7403         MOV     A,#0x3
   \   000121   12....       LCALL   ?DEALLOC_XSTACK8
   \   000124   8007         SJMP    ??exec_io_cmd_6
    341                      }
    342                      else
    343                      {
    344                        HalLedSet (HAL_LED_1, HAL_LED_MODE_FLASH); 
   \                     ??exec_io_cmd_5:
   \   000126                ; Setup parameters for call to function HalLedSet
   \   000126   7A04         MOV     R2,#0x4
   \   000128   7901         MOV     R1,#0x1
   \   00012A   12....       LCALL   ??HalLedSet?relay
    345                      }
    346                      guu_osal_mem_free(pCpyBuf);
   \                     ??exec_io_cmd_6:
   \   00012D                ; Setup parameters for call to function guu_osal_mem_free
   \   00012D   AA..         MOV     R2,?V0 + 0
   \   00012F   AB..         MOV     R3,?V0 + 1
   \   000131   12....       LCALL   ??guu_osal_mem_free?relay
    347                      exec_io(p);
    348                    }
    349                 }
    350              }
   \                     ??exec_io_cmd_0:
   \   000134                REQUIRE ?Subroutine2
   \   000134                REQUIRE _A_P0
   \   000134                ; // Fall through to label ?Subroutine2
    351          }

   \                                 In  segment BANKED_CODE, align 1, keep-with-next
   \                     ?Subroutine2:
   \   000000   7F07         MOV     R7,#0x7
   \   000002   02....       LJMP    ?BANKED_LEAVE_XDATA

   \                                 In  segment BANKED_CODE, align 1, keep-with-next
   \                     ?Subroutine8:
   \   000000   C3           CLR     C
   \   000001   33           RLC     A
   \   000002   F8           MOV     R0,A
   \   000003   E4           CLR     A
   \   000004   33           RLC     A
   \   000005   F9           MOV     R1,A
   \   000006   74..         MOV     A,#sw_arr & 0xff
   \   000008   28           ADD     A,R0
   \   000009   F582         MOV     DPL,A
   \   00000B   74..         MOV     A,#(sw_arr >> 8) & 0xff
   \   00000D   39           ADDC    A,R1
   \   00000E   F583         MOV     DPH,A
   \   000010   22           RET

   \                                 In  segment BANKED_CODE, align 1, keep-with-next
   \                     ?Subroutine5:
   \   000000   12....       LCALL   ?Subroutine8 & 0xFFFF
   \                     ??CrossCallReturnLabel_21:
   \   000003   E0           MOVX    A,@DPTR
   \   000004   F8           MOV     R0,A
   \   000005   A3           INC     DPTR
   \   000006   E0           MOVX    A,@DPTR
   \   000007   F9           MOV     R1,A
   \   000008   E8           MOV     A,R0
   \   000009   49           ORL     A,R1
   \   00000A   22           RET
    352          

   \                                 In  segment BANKED_CODE, align 1, keep-with-next
    353          uint8* guu_get_iostat(uint8 mode)
   \                     guu_get_iostat:
    354          {
   \   000000   74F7         MOV     A,#-0x9
   \   000002   12....       LCALL   ?BANKED_ENTER_XDATA
   \   000005                ; Saved register size: 9
   \   000005                ; Auto size: 3
   \   000005   74FD         MOV     A,#-0x3
   \   000007   12....       LCALL   ?ALLOC_XSTACK8
   \   00000A   E9           MOV     A,R1
   \   00000B   FE           MOV     R6,A
    355          	uint8 io_stat[3];
    356          	io_stat[0] = P0;
   \   00000C   E580         MOV     A,0x80
   \   00000E   85..82       MOV     DPL,?XSP + 0
   \   000011   85..83       MOV     DPH,?XSP + 1
   \   000014   F0           MOVX    @DPTR,A
    357          	io_stat[1] = P1;
   \   000015   E590         MOV     A,0x90
   \   000017   C0E0         PUSH    A
   \   000019   7401         MOV     A,#0x1
   \   00001B   12....       LCALL   ?XSTACK_DISP0_8
   \   00001E   D0E0         POP     A
   \   000020   F0           MOVX    @DPTR,A
    358          	io_stat[2] = P2;
   \   000021   E5A0         MOV     A,0xa0
   \   000023   C0E0         PUSH    A
   \   000025   7402         MOV     A,#0x2
   \   000027   12....       LCALL   ?XSTACK_DISP0_8
   \   00002A   D0E0         POP     A
   \   00002C   F0           MOVX    @DPTR,A
    359          
    360          	if(mode == PWM_R_HEX)//一般是pwm_switch之后，用这些单独模式，反回取反了的pwm状态
   \   00002D   740F         MOV     A,#0xf
   \   00002F   6E           XRL     A,R6
   \   000030   704B         JNZ     ??guu_get_iostat_0
    361          	{
    362          		if(PWM_R_CH > 0) io_stat[2] &= ~BV(4); else io_stat[2] |= BV(4);
   \   000032   E5DD         MOV     A,0xdd
   \   000034   604B         JZ      ??guu_get_iostat_1
   \                     ??guu_get_iostat_2:
   \   000036   E0           MOVX    A,@DPTR
   \   000037   C2E4         CLR     0xE0 /* A   */.4
   \                     ??guu_get_iostat_3:
   \   000039   F0           MOVX    @DPTR,A
    363          	}
    364          	else
    365          	{
    366          		if(PWM_R_CH > 0) io_stat[2] |= BV(4); else io_stat[2] &=~BV(4);
    367          	}
    368          
    369          	if(mode == PWM_G_HEX)
   \   00003A   7410         MOV     A,#0x10
   \   00003C   6E           XRL     A,R6
   \   00003D   7047         JNZ     ??guu_get_iostat_4
    370          	{
    371          		if(PWM_G_CH > 0) io_stat[2] &= ~BV(5); else io_stat[2] |= BV(5);
   \   00003F   E5DF         MOV     A,0xdf
   \   000041   6047         JZ      ??guu_get_iostat_5
   \                     ??guu_get_iostat_6:
   \   000043   E0           MOVX    A,@DPTR
   \   000044   C2E5         CLR     0xE0 /* A   */.5
   \                     ??guu_get_iostat_7:
   \   000046   F0           MOVX    @DPTR,A
    372          	}
    373          	else
    374          	{
    375          		if(PWM_G_CH > 0) io_stat[2] |= BV(5); else io_stat[2] &=~BV(5);
    376          	}
    377          
    378          	if(mode == PWM_B_HEX)
   \   000047   7411         MOV     A,#0x11
   \   000049   6E           XRL     A,R6
   \   00004A   9062AD       MOV     DPTR,#0x62ad
   \   00004D   7040         JNZ     ??guu_get_iostat_8
    379          	{
    380          		if(PWM_B_CH > 0) io_stat[2] &= ~BV(6); else io_stat[2] |= BV(6);
   \   00004F   E0           MOVX    A,@DPTR
   \   000050   6040         JZ      ??guu_get_iostat_9
   \                     ??guu_get_iostat_10:
   \   000052   7402         MOV     A,#0x2
   \   000054   12....       LCALL   ?XSTACK_DISP0_8
   \   000057   E0           MOVX    A,@DPTR
   \   000058   C2E6         CLR     0xE0 /* A   */.6
   \                     ??guu_get_iostat_11:
   \   00005A   F0           MOVX    @DPTR,A
    381          	}
    382          	else
    383          	{
    384          		if(PWM_B_CH > 0) io_stat[2] |= BV(6); else io_stat[2] &=~BV(6);
    385          	}
    386          
    387          	if(mode == PWM_A_HEX)
   \   00005B   7412         MOV     A,#0x12
   \   00005D   6E           XRL     A,R6
   \   00005E   9062AF       MOV     DPTR,#0x62af
   \   000061   7039         JNZ     ??guu_get_iostat_12
    388          	{
    389          		if(PWM_A_CH > 0) io_stat[2] &= ~BV(7); else io_stat[2] |= BV(7);
   \   000063   E0           MOVX    A,@DPTR
   \   000064   6039         JZ      ??guu_get_iostat_13
   \                     ??guu_get_iostat_14:
   \   000066   7402         MOV     A,#0x2
   \   000068   12....       LCALL   ?XSTACK_DISP0_8
   \   00006B   E0           MOVX    A,@DPTR
   \   00006C   C2E7         CLR     0xE0 /* A   */.7
   \                     ??guu_get_iostat_15:
   \   00006E   F0           MOVX    @DPTR,A
    390          	}
    391          	else
    392          	{
    393          		if(PWM_A_CH > 0) io_stat[2] |= BV(7); else io_stat[2] &=~BV(7);
    394          	}
    395          
    396          	if(mode == PWM_RGBA_HEX)//平时就用这个模式
   \   00006F   740C         MOV     A,#0xc
   \   000071   6E           XRL     A,R6
   \   000072   7078         JNZ     ??guu_get_iostat_16
    397          	{
    398          		if(PWM_R_CH > 0) io_stat[2] |= BV(4); else io_stat[2] &=~BV(4);
   \   000074   E5DD         MOV     A,0xdd
   \   000076   6031         JZ      ??guu_get_iostat_17
   \   000078   E0           MOVX    A,@DPTR
   \   000079   D2E4         SETB    0xE0 /* A   */.4
   \   00007B   802F         SJMP    ??guu_get_iostat_18
   \                     ??guu_get_iostat_0:
   \   00007D   E5DD         MOV     A,0xdd
   \   00007F   60B5         JZ      ??guu_get_iostat_2
   \                     ??guu_get_iostat_1:
   \   000081   E0           MOVX    A,@DPTR
   \   000082   D2E4         SETB    0xE0 /* A   */.4
   \   000084   80B3         SJMP    ??guu_get_iostat_3
   \                     ??guu_get_iostat_4:
   \   000086   E5DF         MOV     A,0xdf
   \   000088   60B9         JZ      ??guu_get_iostat_6
   \                     ??guu_get_iostat_5:
   \   00008A   E0           MOVX    A,@DPTR
   \   00008B   D2E5         SETB    0xE0 /* A   */.5
   \   00008D   80B7         SJMP    ??guu_get_iostat_7
   \                     ??guu_get_iostat_8:
   \   00008F   E0           MOVX    A,@DPTR
   \   000090   60C0         JZ      ??guu_get_iostat_10
   \                     ??guu_get_iostat_9:
   \   000092   7402         MOV     A,#0x2
   \   000094   12....       LCALL   ?XSTACK_DISP0_8
   \   000097   E0           MOVX    A,@DPTR
   \   000098   D2E6         SETB    0xE0 /* A   */.6
   \   00009A   80BE         SJMP    ??guu_get_iostat_11
   \                     ??guu_get_iostat_12:
   \   00009C   E0           MOVX    A,@DPTR
   \   00009D   60C7         JZ      ??guu_get_iostat_14
   \                     ??guu_get_iostat_13:
   \   00009F   7402         MOV     A,#0x2
   \   0000A1   12....       LCALL   ?XSTACK_DISP0_8
   \   0000A4   E0           MOVX    A,@DPTR
   \   0000A5   D2E7         SETB    0xE0 /* A   */.7
   \   0000A7   80C5         SJMP    ??guu_get_iostat_15
   \                     ??guu_get_iostat_17:
   \   0000A9   E0           MOVX    A,@DPTR
   \   0000AA   C2E4         CLR     0xE0 /* A   */.4
   \                     ??guu_get_iostat_18:
   \   0000AC   F0           MOVX    @DPTR,A
    399          		if(PWM_G_CH > 0) io_stat[2] |= BV(5); else io_stat[2] &=~BV(5);
   \   0000AD   E5DF         MOV     A,0xdf
   \   0000AF   6005         JZ      ??guu_get_iostat_19
   \   0000B1   E0           MOVX    A,@DPTR
   \   0000B2   D2E5         SETB    0xE0 /* A   */.5
   \   0000B4   8003         SJMP    ??guu_get_iostat_20
   \                     ??guu_get_iostat_19:
   \   0000B6   E0           MOVX    A,@DPTR
   \   0000B7   C2E5         CLR     0xE0 /* A   */.5
   \                     ??guu_get_iostat_20:
   \   0000B9   F0           MOVX    @DPTR,A
    400          		if(PWM_B_CH > 0) io_stat[2] |= BV(6); else io_stat[2] &=~BV(6);
   \   0000BA   9062AD       MOV     DPTR,#0x62ad
   \   0000BD   E0           MOVX    A,@DPTR
   \   0000BE   600A         JZ      ??guu_get_iostat_21
   \   0000C0   7402         MOV     A,#0x2
   \   0000C2   12....       LCALL   ?XSTACK_DISP0_8
   \   0000C5   E0           MOVX    A,@DPTR
   \   0000C6   D2E6         SETB    0xE0 /* A   */.6
   \   0000C8   8008         SJMP    ??guu_get_iostat_22
   \                     ??guu_get_iostat_21:
   \   0000CA   7402         MOV     A,#0x2
   \   0000CC   12....       LCALL   ?XSTACK_DISP0_8
   \   0000CF   E0           MOVX    A,@DPTR
   \   0000D0   C2E6         CLR     0xE0 /* A   */.6
   \                     ??guu_get_iostat_22:
   \   0000D2   F0           MOVX    @DPTR,A
    401          		if(PWM_A_CH > 0) io_stat[2] |= BV(7); else io_stat[2] &=~BV(7);
   \   0000D3   9062AF       MOV     DPTR,#0x62af
   \   0000D6   E0           MOVX    A,@DPTR
   \   0000D7   600A         JZ      ??guu_get_iostat_23
   \   0000D9   7402         MOV     A,#0x2
   \   0000DB   12....       LCALL   ?XSTACK_DISP0_8
   \   0000DE   E0           MOVX    A,@DPTR
   \   0000DF   D2E7         SETB    0xE0 /* A   */.7
   \   0000E1   8008         SJMP    ??guu_get_iostat_24
   \                     ??guu_get_iostat_23:
   \   0000E3   7402         MOV     A,#0x2
   \   0000E5   12....       LCALL   ?XSTACK_DISP0_8
   \   0000E8   E0           MOVX    A,@DPTR
   \   0000E9   C2E7         CLR     0xE0 /* A   */.7
   \                     ??guu_get_iostat_24:
   \   0000EB   F0           MOVX    @DPTR,A
    402          	}
    403          	
    404          	return guu_build_pack(RETURN_IO_STAT,3,io_stat);
   \                     ??guu_get_iostat_16:
   \   0000EC                ; Setup parameters for call to function guu_build_pack
   \   0000EC   85..82       MOV     DPL,?XSP + 0
   \   0000EF   85..83       MOV     DPH,?XSP + 1
   \   0000F2   AC82         MOV     R4,DPL
   \   0000F4   AD83         MOV     R5,DPH
   \   0000F6   7A03         MOV     R2,#0x3
   \   0000F8   7934         MOV     R1,#0x34
   \   0000FA   12....       LCALL   ??guu_build_pack?relay
   \   0000FD   7403         MOV     A,#0x3
   \   0000FF   12....       LCALL   ?DEALLOC_XSTACK8
   \   000102   02....       LJMP    ?Subroutine1 & 0xFFFF
   \   000105                REQUIRE _A_P0
   \   000105                REQUIRE _A_P1
   \   000105                REQUIRE _A_P2
   \   000105                REQUIRE T1CC1H
   \   000105                REQUIRE T1CC2H
    405          }
    406          

   \                                 In  segment BANKED_CODE, align 1, keep-with-next
    407          uint8* guu_get_io_cmd(void)
   \                     guu_get_io_cmd:
    408          {
   \   000000   74F4         MOV     A,#-0xc
   \   000002   12....       LCALL   ?BANKED_ENTER_XDATA
   \   000005                ; Saved register size: 12
   \   000005                ; Auto size: 16
   \   000005   74F0         MOV     A,#-0x10
   \   000007   12....       LCALL   ?ALLOC_XSTACK8
    409          	uint8 i;
    410          	uint8 nvId;
    411          	uint8 buf[16];
    412          
    413          	for(i=0;i<4;i++)
   \   00000A   75..00       MOV     ?V0 + 3,#0x0
    414          	{
    415          		if(sw_arr[i] == NULL)
   \                     ??guu_get_io_cmd_0:
   \   00000D   E5..         MOV     A,?V0 + 3
   \   00000F   12....       LCALL   ?Subroutine5 & 0xFFFF
   \                     ??CrossCallReturnLabel_1:
   \   000012   703D         JNZ     ??guu_get_io_cmd_1
    416          		{
    417          			nvId = HIGHADDR+i;
   \   000014   7479         MOV     A,#0x79
   \   000016   25..         ADD     A,?V0 + 3
   \   000018   FE           MOV     R6,A
    418          			guu_osal_nv_item_init(nvId,sizeof(io_cmd_data_t),NULL);
   \   000019                ; Setup parameters for call to function guu_osal_nv_item_init
   \   000019   E4           CLR     A
   \   00001A   F5..         MOV     ?V0 + 0,A
   \   00001C   F5..         MOV     ?V0 + 1,A
   \   00001E   78..         MOV     R0,#?V0 + 0
   \   000020   12....       LCALL   ?PUSH_XSTACK_I_TWO
   \   000023   7C04         MOV     R4,#0x4
   \   000025   7D00         MOV     R5,#0x0
   \   000027   EE           MOV     A,R6
   \   000028   FA           MOV     R2,A
   \   000029   7B00         MOV     R3,#0x0
   \   00002B   12....       LCALL   ??guu_osal_nv_item_init?relay
   \   00002E   7402         MOV     A,#0x2
   \   000030   12....       LCALL   ?DEALLOC_XSTACK8
    419          			if( ((osal_nv_read( nvId, 0, sizeof(io_cmd_data_t), (uint8*)sw_arr[i])) == ZSUCCESS) )
   \   000033                ; Setup parameters for call to function osal_nv_read
   \   000033   12....       LCALL   ?Subroutine6 & 0xFFFF
    420          			{		
    421          			}			
    422          		}
    423          	}
   \                     ??CrossCallReturnLabel_19:
   \   000036   12....       LCALL   ?PUSH_XSTACK8_X_TWO
   \   000039   75..04       MOV     ?V0 + 0,#0x4
   \   00003C   78..         MOV     R0,#?V0 + 0
   \   00003E   12....       LCALL   ?PUSH_XSTACK_I_TWO
   \   000041   7C00         MOV     R4,#0x0
   \   000043   7D00         MOV     R5,#0x0
   \   000045   EE           MOV     A,R6
   \   000046   FA           MOV     R2,A
   \   000047   7B00         MOV     R3,#0x0
   \   000049   12....       LCALL   ??osal_nv_read?relay
   \   00004C   7404         MOV     A,#0x4
   \   00004E   12....       LCALL   ?DEALLOC_XSTACK8
   \                     ??guu_get_io_cmd_1:
   \   000051   05..         INC     ?V0 + 3
   \   000053   E5..         MOV     A,?V0 + 3
   \   000055   C3           CLR     C
   \   000056   9404         SUBB    A,#0x4
   \   000058   40B3         JC      ??guu_get_io_cmd_0
    424          	nvId=0;
   \   00005A   7E00         MOV     R6,#0x0
    425          	for(i=0;i<4;i++)
   \   00005C   8E..         MOV     ?V0 + 3,R6
    426          	{
    427          		osal_memcpy(&buf[nvId], (uint8*)sw_arr[i], sizeof(io_cmd_data_t));
   \                     ??guu_get_io_cmd_2:
   \   00005E                ; Setup parameters for call to function osal_memcpy
   \   00005E   12....       LCALL   ?Subroutine6 & 0xFFFF
   \                     ??CrossCallReturnLabel_20:
   \   000061   E0           MOVX    A,@DPTR
   \   000062   F5..         MOV     ?V0 + 0,A
   \   000064   A3           INC     DPTR
   \   000065   E0           MOVX    A,@DPTR
   \   000066   F5..         MOV     ?V0 + 1,A
   \   000068   75..00       MOV     ?V0 + 2,#0x0
   \   00006B   78..         MOV     R0,#?V0 + 0
   \   00006D   12....       LCALL   ?PUSH_XSTACK_I_THREE
   \   000070   7C04         MOV     R4,#0x4
   \   000072   7D00         MOV     R5,#0x0
   \   000074   8E..         MOV     ?V0 + 0,R6
   \   000076   7403         MOV     A,#0x3
   \   000078   12....       LCALL   ?XSTACK_DISP0_8
   \   00007B   E582         MOV     A,DPL
   \   00007D   25..         ADD     A,?V0 + 0
   \   00007F   FA           MOV     R2,A
   \   000080   E583         MOV     A,DPH
   \   000082   3400         ADDC    A,#0x0
   \   000084   FB           MOV     R3,A
   \   000085   12....       LCALL   ??osal_memcpy?relay
   \   000088   7403         MOV     A,#0x3
   \   00008A   12....       LCALL   ?DEALLOC_XSTACK8
    428          		nvId+= sizeof(io_cmd_data_t);
   \   00008D   7404         MOV     A,#0x4
   \   00008F   2E           ADD     A,R6
   \   000090   FE           MOV     R6,A
    429          	}
   \   000091   05..         INC     ?V0 + 3
   \   000093   E5..         MOV     A,?V0 + 3
   \   000095   C3           CLR     C
   \   000096   9404         SUBB    A,#0x4
   \   000098   40C4         JC      ??guu_get_io_cmd_2
    430          
    431          	return guu_build_pack(RETURN_IO_CMD,4*sizeof(io_cmd_data_t), buf);
   \   00009A                ; Setup parameters for call to function guu_build_pack
   \   00009A   85..82       MOV     DPL,?XSP + 0
   \   00009D   85..83       MOV     DPH,?XSP + 1
   \   0000A0   AC82         MOV     R4,DPL
   \   0000A2   AD83         MOV     R5,DPH
   \   0000A4   7A10         MOV     R2,#0x10
   \   0000A6   7932         MOV     R1,#0x32
   \   0000A8   12....       LCALL   ??guu_build_pack?relay
   \   0000AB   7410         MOV     A,#0x10
   \   0000AD   12....       LCALL   ?DEALLOC_XSTACK8
   \   0000B0   7F04         MOV     R7,#0x4
   \   0000B2   02....       LJMP    ?BANKED_LEAVE_XDATA
    432          }

   \                                 In  segment BANKED_CODE, align 1, keep-with-next
   \                     ?Subroutine6:
   \   000000   E5..         MOV     A,?V0 + 3
   \   000002                REQUIRE ??Subroutine12_0
   \   000002                ; // Fall through to label ??Subroutine12_0

   \                                 In  segment BANKED_CODE, align 1, keep-with-next
   \                     ??Subroutine12_0:
   \   000000   12....       LCALL   ?Subroutine8 & 0xFFFF
   \                     ??CrossCallReturnLabel_22:
   \   000003   22           RET
    433          

   \                                 In  segment BANKED_CODE, align 1, keep-with-next
    434          void bind_io_cmd(uint8 n,io_cmd_data_t*data)
   \                     bind_io_cmd:
    435          {
   \   000000   74F1         MOV     A,#-0xf
   \   000002   12....       LCALL   ?BANKED_ENTER_XDATA
   \   000005                ; Saved register size: 15
   \   000005                ; Auto size: 0
   \   000005   89..         MOV     ?V0 + 2,R1
   \   000007   8A..         MOV     ?V0 + 0,R2
   \   000009   8B..         MOV     ?V0 + 1,R3
    436          	//we all know the length of data is 4 ,so skip it to be argument	
    437          	uint8 nvId;
    438          	if(n > 3 ) return;
   \   00000B   E9           MOV     A,R1
   \   00000C   C3           CLR     C
   \   00000D   9404         SUBB    A,#0x4
   \   00000F   4003         JC      $+5
   \   000011   02....       LJMP    ??bind_io_cmd_0 & 0xFFFF
    439          	nvId = HIGHADDR+n;
   \   000014   7479         MOV     A,#0x79
   \   000016   25..         ADD     A,?V0 + 2
   \   000018   F8           MOV     R0,A
    440          	guu_osal_nv_item_init(nvId,sizeof(io_cmd_data_t),NULL);
   \   000019   8882         MOV     DPL,R0
   \   00001B   AE82         MOV     R6,DPL
   \   00001D                ; Setup parameters for call to function guu_osal_nv_item_init
   \   00001D   E4           CLR     A
   \   00001E   F5..         MOV     ?V0 + 4,A
   \   000020   F5..         MOV     ?V0 + 5,A
   \   000022   78..         MOV     R0,#?V0 + 4
   \   000024   12....       LCALL   ?PUSH_XSTACK_I_TWO
   \   000027   7C04         MOV     R4,#0x4
   \   000029   7D00         MOV     R5,#0x0
   \   00002B   EE           MOV     A,R6
   \   00002C   FA           MOV     R2,A
   \   00002D   7B00         MOV     R3,#0x0
   \   00002F   12....       LCALL   ??guu_osal_nv_item_init?relay
   \   000032   7402         MOV     A,#0x2
   \   000034   12....       LCALL   ?DEALLOC_XSTACK8
    441          	if( ((osal_nv_write( nvId, 0, sizeof(io_cmd_data_t), (uint8*)data)) == ZSUCCESS) )
   \   000037                ; Setup parameters for call to function osal_nv_write
   \   000037   78..         MOV     R0,#?V0 + 0
   \   000039   12....       LCALL   ?PUSH_XSTACK_I_TWO
   \   00003C   75..04       MOV     ?V0 + 4,#0x4
   \   00003F   78..         MOV     R0,#?V0 + 4
   \   000041   12....       LCALL   ?PUSH_XSTACK_I_TWO
   \   000044   7C00         MOV     R4,#0x0
   \   000046   7D00         MOV     R5,#0x0
   \   000048   EE           MOV     A,R6
   \   000049   FA           MOV     R2,A
   \   00004A   7B00         MOV     R3,#0x0
   \   00004C   12....       LCALL   ??osal_nv_write?relay
   \   00004F   7404         MOV     A,#0x4
   \   000051   12....       LCALL   ?DEALLOC_XSTACK8
   \   000054   E9           MOV     A,R1
   \   000055   7067         JNZ     ??bind_io_cmd_0
    442          	{
    443          			if(sw_arr[n] !=NULL)
   \   000057   E5..         MOV     A,?V0 + 2
   \   000059   12....       LCALL   ?Subroutine5 & 0xFFFF
   \                     ??CrossCallReturnLabel_2:
   \   00005C   6019         JZ      ??bind_io_cmd_1
    444          			{
    445          				osal_memcpy(sw_arr[n], (uint8*)data, sizeof(io_cmd_data_t));	
   \   00005E                ; Setup parameters for call to function osal_memcpy
   \   00005E   85....       MOV     ?V0 + 4,?V0 + 0
   \   000061   85....       MOV     ?V0 + 5,?V0 + 1
   \   000064   75..00       MOV     ?V0 + 6,#0x0
   \   000067   78..         MOV     R0,#?V0 + 4
   \   000069   12....       LCALL   ?PUSH_XSTACK_I_THREE
   \   00006C   7C04         MOV     R4,#0x4
   \   00006E   7D00         MOV     R5,#0x0
   \   000070   E5..         MOV     A,?V0 + 2
   \   000072   12....       LCALL   ??Subroutine12_0 & 0xFFFF
    446          			}else
   \                     ??CrossCallReturnLabel_18:
   \   000075   803A         SJMP    ??bind_io_cmd_2
    447          			{
    448          				sw_arr[n] = osal_mem_alloc(sizeof(io_cmd_data_t) );
   \                     ??bind_io_cmd_1:
   \   000077   E5..         MOV     A,?V0 + 2
   \   000079   C3           CLR     C
   \   00007A   33           RLC     A
   \   00007B   F8           MOV     R0,A
   \   00007C   E4           CLR     A
   \   00007D   33           RLC     A
   \   00007E   F9           MOV     R1,A
   \   00007F   74..         MOV     A,#sw_arr & 0xff
   \   000081   28           ADD     A,R0
   \   000082   F8           MOV     R0,A
   \   000083   74..         MOV     A,#(sw_arr >> 8) & 0xff
   \   000085   39           ADDC    A,R1
   \   000086   F9           MOV     R1,A
   \   000087   E8           MOV     A,R0
   \   000088   FE           MOV     R6,A
   \   000089   E9           MOV     A,R1
   \   00008A   FF           MOV     R7,A
   \   00008B                ; Setup parameters for call to function osal_mem_alloc
   \   00008B   7A04         MOV     R2,#0x4
   \   00008D   7B00         MOV     R3,#0x0
   \   00008F   12....       LCALL   ??osal_mem_alloc?relay
   \   000092   8E82         MOV     DPL,R6
   \   000094   8F83         MOV     DPH,R7
   \   000096   EA           MOV     A,R2
   \   000097   F0           MOVX    @DPTR,A
   \   000098   A3           INC     DPTR
   \   000099   EB           MOV     A,R3
   \   00009A   F0           MOVX    @DPTR,A
    449          				osal_memcpy(sw_arr[n], (uint8*)data, sizeof(io_cmd_data_t));	
   \   00009B                ; Setup parameters for call to function osal_memcpy
   \   00009B   85....       MOV     ?V0 + 4,?V0 + 0
   \   00009E   85....       MOV     ?V0 + 5,?V0 + 1
   \   0000A1   75..00       MOV     ?V0 + 6,#0x0
   \   0000A4   78..         MOV     R0,#?V0 + 4
   \   0000A6   12....       LCALL   ?PUSH_XSTACK_I_THREE
   \   0000A9   7C04         MOV     R4,#0x4
   \   0000AB   7D00         MOV     R5,#0x0
   \   0000AD   8E82         MOV     DPL,R6
   \   0000AF   8F83         MOV     DPH,R7
   \                     ??bind_io_cmd_2:
   \   0000B1   E0           MOVX    A,@DPTR
   \   0000B2   FA           MOV     R2,A
   \   0000B3   A3           INC     DPTR
   \   0000B4   E0           MOVX    A,@DPTR
   \   0000B5   FB           MOV     R3,A
   \   0000B6   12....       LCALL   ??osal_memcpy?relay
   \   0000B9   7403         MOV     A,#0x3
   \   0000BB   12....       LCALL   ?DEALLOC_XSTACK8
    450          			}
    451          	}			
   \                     ??bind_io_cmd_0:
   \   0000BE   02....       LJMP    ?Subroutine2 & 0xFFFF
    452          	
    453          }

   \                                 In  segment BANK_RELAYS, align 1
   \                     ??set_timer1_ch?relay:
   \   000000   12....       LCALL   ?BDISPATCH
   \   000003   ......       DC24    set_timer1_ch

   \                                 In  segment BANK_RELAYS, align 1
   \                     ??pwm_switch?relay:
   \   000000   12....       LCALL   ?BDISPATCH
   \   000003   ......       DC24    pwm_switch

   \                                 In  segment BANK_RELAYS, align 1
   \                     ??guu_io_group_opera?relay:
   \   000000   12....       LCALL   ?BDISPATCH
   \   000003   ......       DC24    guu_io_group_opera

   \                                 In  segment BANK_RELAYS, align 1
   \                     ??guu_io_opera?relay:
   \   000000   12....       LCALL   ?BDISPATCH
   \   000003   ......       DC24    guu_io_opera

   \                                 In  segment BANK_RELAYS, align 1
   \                     ??exec_io?relay:
   \   000000   12....       LCALL   ?BDISPATCH
   \   000003   ......       DC24    exec_io

   \                                 In  segment BANK_RELAYS, align 1
   \                     ??exec_io_cmd?relay:
   \   000000   12....       LCALL   ?BDISPATCH
   \   000003   ......       DC24    exec_io_cmd

   \                                 In  segment BANK_RELAYS, align 1
   \                     ??guu_get_iostat?relay:
   \   000000   12....       LCALL   ?BDISPATCH
   \   000003   ......       DC24    guu_get_iostat

   \                                 In  segment BANK_RELAYS, align 1
   \                     ??guu_get_io_cmd?relay:
   \   000000   12....       LCALL   ?BDISPATCH
   \   000003   ......       DC24    guu_get_io_cmd

   \                                 In  segment BANK_RELAYS, align 1
   \                     ??bind_io_cmd?relay:
   \   000000   12....       LCALL   ?BDISPATCH
   \   000003   ......       DC24    bind_io_cmd

   Maximum stack usage in bytes:

     Function                   ISTACK PSTACK XSTACK
     --------                   ------ ------ ------
     bind_io_cmd                    0      0     19
       -> guu_osal_nv_item_init     0      0     34
       -> osal_nv_write             0      0     38
       -> osal_memcpy               0      0     36
       -> osal_mem_alloc            0      0     30
       -> osal_memcpy               0      0     36
     exec_io                        0      0      0
     exec_io_cmd                    0      0     19
       -> HalLedSet                 0      0     30
       -> osal_mem_alloc            0      0     30
       -> osal_memset               0      0     30
       -> guu_osal_nv_item_init     0      0     34
       -> osal_nv_read              0      0     38
       -> osal_mem_alloc            0      0     30
       -> osal_memcpy               0      0     36
       -> HalLedSet                 0      0     30
       -> guu_osal_mem_free         0      0     30
     guu_get_io_cmd                 0      0     32
       -> guu_osal_nv_item_init     0      0     60
       -> osal_nv_read              0      0     64
       -> osal_memcpy               0      0     62
       -> guu_build_pack            0      0     56
     guu_get_iostat                 1      0     12
       -> guu_build_pack            0      0     24
     guu_io_group_opera             2      0      0
     guu_io_opera                   0      0     10
       -> pwm_switch                0      0     20
     pwm_switch                     0      0     19
       -> set_timer1_ch             0      0     18
       -> set_timer1_ch             0      0     18
       -> set_timer1_ch             0      0     18
       -> set_timer1_ch             0      0     18
     set_timer1_ch                  3      0      9


   Segment part sizes:

     Function/Label             Bytes
     --------------             -----
     _A_P0                         1
     _A_P1                         1
     _A_P2                         1
     T1CC1L                        1
     T1CC1H                        1
     T1CC2L                        1
     T1CC2H                        1
     P0SEL                         1
     P1SEL                         1
     P0DIR                         1
     P1DIR                         1
     P2DIR                         1
     sw_arr                        8
     io_types                      4
     RGBA                          2
     set_timer1_ch                58
     ?Subroutine0                  7
     ?Subroutine4                  3
     ??Subroutine9_0              12
     pwm_switch                   95
     ?Subroutine1                  5
     ?Subroutine3                  1
     ??Subroutine10_0              1
     ??Subroutine11_0              8
     guu_io_group_opera          181
     guu_io_opera                530
     ?Subroutine7                  8
     exec_io                       3
     exec_io_cmd                 308
     ?Subroutine2                  5
     ?Subroutine8                 17
     ?Subroutine5                 11
     guu_get_iostat              261
     guu_get_io_cmd              181
     ?Subroutine6                  2
     ??Subroutine12_0              4
     bind_io_cmd                 193
     ??set_timer1_ch?relay         6
     ??pwm_switch?relay            6
     ??guu_io_group_opera?relay    6
     ??guu_io_opera?relay          6
     ??exec_io?relay               6
     ??exec_io_cmd?relay           6
     ??guu_get_iostat?relay        6
     ??guu_get_io_cmd?relay        6
     ??bind_io_cmd?relay           6

 
 1 894 bytes in segment BANKED_CODE
    54 bytes in segment BANK_RELAYS
    12 bytes in segment SFR_AN
    14 bytes in segment XDATA_Z
 
 1 948 bytes of CODE  memory
     0 bytes of DATA  memory (+ 12 bytes shared)
    14 bytes of XDATA memory

Errors: none
Warnings: none
