///////////////////////////////////////////////////////////////////////////////
//                                                                            /
// IAR C/C++ Compiler V8.10.3.40338/W32 for 8051        25/Jan/2015  17:06:15 /
// Copyright 2004-2011 IAR Systems AB.                                        /
//                                                                            /
//    Core               =  plain                                             /
//    Code model         =  banked                                            /
//    Data model         =  large                                             /
//    Calling convention =  xdata reentrant                                   /
//    Constant location  =  data_rom                                          /
//    Dptr setup         =  1,16                                              /
//    Source file        =  C:\Texas Instruments\ZStack-CC2530-2.5.1a\Project /
//                          s\zstack\Samples\weikong\Source\guu_timer.c       /
//    Command line       =  -f "C:\Texas Instruments\ZStack-CC2530-2.5.1a\Pro /
//                          jects\zstack\Samples\GenericApp\CC2531\..\..\..\T /
//                          ools\CC2530DB\f8wRouter.cfg" (-DCPU32MHZ          /
//                          -DROOT=__near_func -DMAC_CFG_APP_PENDING_QUEUE=TR /
//                          UE -DMAC_CFG_TX_DATA_MAX=5 -DMAC_CFG_TX_MAX=8     /
//                          -DMAC_CFG_RX_MAX=5 -DRTR_NWK) -f "C:\Texas        /
//                          Instruments\ZStack-CC2530-2.5.1a\Projects\zstack\ /
//                          Samples\GenericApp\CC2531\..\..\..\Tools\CC2530DB /
//                          \f8wConfig.cfg" (-DZIGBEEPRO -DSECURE=0           /
//                          -DZG_SECURE_DYNAMIC=0 -DREFLECTOR                 /
//                          -DDEFAULT_CHANLIST=0x00000800                     /
//                          -DZDAPP_CONFIG_PAN_ID=0xFFFF                      /
//                          -DNWK_START_DELAY=100 -DEXTENDED_JOINING_RANDOM_M /
//                          ASK=0x007F -DBEACON_REQUEST_DELAY=100             /
//                          -DBEACON_REQ_DELAY_MASK=0x00FF                    /
//                          -DLINK_STATUS_JITTER_MASK=0x007F                  /
//                          -DROUTE_EXPIRY_TIME=30 -DAPSC_ACK_WAIT_DURATION_P /
//                          OLLED=3000 -DNWK_INDIRECT_MSG_TIMEOUT=7           /
//                          -DMAX_RREQ_ENTRIES=8 -DAPSC_MAX_FRAME_RETRIES=3   /
//                          -DNWK_MAX_DATA_RETRIES=2                          /
//                          -DMAX_POLL_FAILURE_RETRIES=2 -DMAX_BCAST=9        /
//                          -DAPS_MAX_GROUPS=16 -DMAX_RTG_ENTRIES=40          /
//                          -DNWK_MAX_BINDING_ENTRIES=4                       /
//                          -DMAX_BINDING_CLUSTER_IDS=4                       /
//                          "-DDEFAULT_KEY={0x01, 0x03, 0x05, 0x07, 0x09,     /
//                          0x0B, 0x0D, 0x0F, 0x00, 0x02, 0x04, 0x06, 0x08,   /
//                          0x0A, 0x0C, 0x0D}" -DMAC_MAX_FRAME_SIZE=116       /
//                          -DZDNWKMGR_MIN_TRANSMISSIONS=20 "-DCONST=const    /
//                          __code" -DGENERIC=__generic                       /
//                          -DRFD_RCVC_ALWAYS_ON=FALSE -DPOLL_RATE=1000       /
//                          -DQUEUED_POLL_RATE=100 -DRESPONSE_POLL_RATE=100)  /
//                          -DREJOIN_POLL_RATE=440 "C:\Texas                  /
//                          Instruments\ZStack-CC2530-2.5.1a\Projects\zstack\ /
//                          Samples\weikong\Source\guu_timer.c" -D ZTOOL_P1   /
//                          -D MT_TASK -D MT_AF_FUNC -D MT_AF_CB_FUNC -D      /
//                          MT_APP_FUNC -D MT_DEBUG_FUNC -D MT_NWK_FUNC -D    /
//                          MT_NWK_CB_FUNC -D MT_SYS_FUNC -D MT_SYS_FUNC -D   /
//                          MT_ZDO_FUNC -D MT_UTIL_FUNC -D MT_ZDO_CB_FUNC -D  /
//                          MT_ZDO_MGMT -D LCD_SUPPORTED=FALSE -D             /
//                          HAL_LCD=FALSE -D HAL_LED=FALSE -D                 /
//                          GUU_HAL_LED=TRUE -D NV_INIT -D NV_RESTORE -D      /
//                          xPOWER_SAVING -lC "C:\Texas                       /
//                          Instruments\ZStack-CC2530-2.5.1a\Projects\zstack\ /
//                          Samples\GenericApp\CC2531\Router\List\" -lA       /
//                          "C:\Texas Instruments\ZStack-CC2530-2.5.1a\Projec /
//                          ts\zstack\Samples\GenericApp\CC2531\Router\List\" /
//                           --diag_suppress Pe001,Pa010 -o "C:\Texas         /
//                          Instruments\ZStack-CC2530-2.5.1a\Projects\zstack\ /
//                          Samples\GenericApp\CC2531\Router\Obj\" -e         /
//                          --no_code_motion --debug --core=plain             /
//                          --dptr=16,1 --data_model=large                    /
//                          --code_model=banked --calling_convention=xdata_re /
//                          entrant --place_constants=data_rom                /
//                          --nr_virtual_regs 16 -I "C:\Texas                 /
//                          Instruments\ZStack-CC2530-2.5.1a\Projects\zstack\ /
//                          Samples\GenericApp\CC2531\" -I "C:\Texas          /
//                          Instruments\ZStack-CC2530-2.5.1a\Projects\zstack\ /
//                          Samples\GenericApp\CC2531\..\Source\" -I          /
//                          "C:\Texas Instruments\ZStack-CC2530-2.5.1a\Projec /
//                          ts\zstack\Samples\GenericApp\CC2531\..\..\..\ZMai /
//                          n\TI2530DB\" -I "C:\Texas                         /
//                          Instruments\ZStack-CC2530-2.5.1a\Projects\zstack\ /
//                          Samples\GenericApp\CC2531\..\..\..\..\..\Componen /
//                          ts\hal\include\" -I "C:\Texas                     /
//                          Instruments\ZStack-CC2530-2.5.1a\Projects\zstack\ /
//                          Samples\GenericApp\CC2531\..\..\..\..\..\Componen /
//                          ts\hal\target\CC2530USB\" -I "C:\Texas            /
//                          Instruments\ZStack-CC2530-2.5.1a\Projects\zstack\ /
//                          Samples\GenericApp\CC2531\..\..\..\..\..\Componen /
//                          ts\hal\target\CC2530USB\usb\library\" -I          /
//                          "C:\Texas Instruments\ZStack-CC2530-2.5.1a\Projec /
//                          ts\zstack\Samples\GenericApp\CC2531\..\..\..\..\. /
//                          .\Components\hal\target\CC2530USB\usb\library\cc2 /
//                          531\" -I "C:\Texas Instruments\ZStack-CC2530-2.5. /
//                          1a\Projects\zstack\Samples\GenericApp\CC2531\..\. /
//                          .\..\..\..\Components\hal\target\CC2530USB\usb\cl /
//                          ass_cdc\" -I "C:\Texas Instruments\ZStack-CC2530- /
//                          2.5.1a\Projects\zstack\Samples\GenericApp\CC2531\ /
//                          ..\..\..\..\..\Components\mac\include\" -I        /
//                          "C:\Texas Instruments\ZStack-CC2530-2.5.1a\Projec /
//                          ts\zstack\Samples\GenericApp\CC2531\..\..\..\..\. /
//                          .\Components\mac\high_level\" -I "C:\Texas        /
//                          Instruments\ZStack-CC2530-2.5.1a\Projects\zstack\ /
//                          Samples\GenericApp\CC2531\..\..\..\..\..\Componen /
//                          ts\mac\low_level\srf04\" -I "C:\Texas             /
//                          Instruments\ZStack-CC2530-2.5.1a\Projects\zstack\ /
//                          Samples\GenericApp\CC2531\..\..\..\..\..\Componen /
//                          ts\mac\low_level\srf04\single_chip\" -I           /
//                          "C:\Texas Instruments\ZStack-CC2530-2.5.1a\Projec /
//                          ts\zstack\Samples\GenericApp\CC2531\..\..\..\..\. /
//                          .\Components\mt\" -I "C:\Texas                    /
//                          Instruments\ZStack-CC2530-2.5.1a\Projects\zstack\ /
//                          Samples\GenericApp\CC2531\..\..\..\..\..\Componen /
//                          ts\osal\include\" -I "C:\Texas                    /
//                          Instruments\ZStack-CC2530-2.5.1a\Projects\zstack\ /
//                          Samples\GenericApp\CC2531\..\..\..\..\..\Componen /
//                          ts\services\saddr\" -I "C:\Texas                  /
//                          Instruments\ZStack-CC2530-2.5.1a\Projects\zstack\ /
//                          Samples\GenericApp\CC2531\..\..\..\..\..\Componen /
//                          ts\services\sdata\" -I "C:\Texas                  /
//                          Instruments\ZStack-CC2530-2.5.1a\Projects\zstack\ /
//                          Samples\GenericApp\CC2531\..\..\..\..\..\Componen /
//                          ts\stack\af\" -I "C:\Texas                        /
//                          Instruments\ZStack-CC2530-2.5.1a\Projects\zstack\ /
//                          Samples\GenericApp\CC2531\..\..\..\..\..\Componen /
//                          ts\stack\nwk\" -I "C:\Texas                       /
//                          Instruments\ZStack-CC2530-2.5.1a\Projects\zstack\ /
//                          Samples\GenericApp\CC2531\..\..\..\..\..\Componen /
//                          ts\stack\sapi\" -I "C:\Texas                      /
//                          Instruments\ZStack-CC2530-2.5.1a\Projects\zstack\ /
//                          Samples\GenericApp\CC2531\..\..\..\..\..\Componen /
//                          ts\stack\sec\" -I "C:\Texas                       /
//                          Instruments\ZStack-CC2530-2.5.1a\Projects\zstack\ /
//                          Samples\GenericApp\CC2531\..\..\..\..\..\Componen /
//                          ts\stack\sys\" -I "C:\Texas                       /
//                          Instruments\ZStack-CC2530-2.5.1a\Projects\zstack\ /
//                          Samples\GenericApp\CC2531\..\..\..\..\..\Componen /
//                          ts\stack\zdo\" -I "C:\Texas                       /
//                          Instruments\ZStack-CC2530-2.5.1a\Projects\zstack\ /
//                          Samples\GenericApp\CC2531\..\..\..\..\..\Componen /
//                          ts\zmac\" -I "C:\Texas Instruments\ZStack-CC2530- /
//                          2.5.1a\Projects\zstack\Samples\GenericApp\CC2531\ /
//                          ..\..\..\..\..\Components\zmac\f8w\" -I           /
//                          "C:\Texas Instruments\ZStack-CC2530-2.5.1a\Projec /
//                          ts\zstack\Samples\GenericApp\CC2531\..\..\weikong /
//                          \Source\" -Ohz --require_prototypes               /
//    List file          =  C:\Texas Instruments\ZStack-CC2530-2.5.1a\Project /
//                          s\zstack\Samples\GenericApp\CC2531\Router\List\gu /
//                          u_timer.s51                                       /
//                                                                            /
//                                                                            /
///////////////////////////////////////////////////////////////////////////////

        NAME guu_timer

        RTMODEL "__SystemLibrary", "CLib"
        RTMODEL "__calling_convention", "xdata_reentrant"
        RTMODEL "__code_model", "banked"
        RTMODEL "__core", "plain"
        RTMODEL "__data_model", "large"
        RTMODEL "__dptr_size", "16"
        RTMODEL "__extended_stack", "disabled"
        RTMODEL "__location_for_constants", "data"
        RTMODEL "__number_of_dptrs", "1"
        RTMODEL "__rt_version", "1"

        RSEG DOVERLAY:DATA:NOROOT(0)
        RSEG IOVERLAY:IDATA:NOROOT(0)
        RSEG ISTACK:IDATA:NOROOT(0)
        RSEG PSTACK:XDATA:NOROOT(0)
        RSEG XSTACK:XDATA:NOROOT(0)

        EXTERN ?BANKED_ENTER_XDATA
        EXTERN ?BANKED_LEAVE_XDATA
        EXTERN ?BDISPATCH
        EXTERN ?BRET
        EXTERN ?DEALLOC_XSTACK8
        EXTERN ?PUSH_XSTACK8_X_TWO
        EXTERN ?PUSH_XSTACK_I_TWO
        EXTERN ?V0

        PUBLIC ??guu_init_timer1?relay
        FUNCTION ??guu_init_timer1?relay,0203H
        PUBLIC ??init_timer3_as_second_counter?relay
        FUNCTION ??init_timer3_as_second_counter?relay,0203H
        PUBLIC ??init_timer4_as_half_ms_counter?relay
        FUNCTION ??init_timer4_as_half_ms_counter?relay,0203H
        PUBWEAK PERCFG
        PUBWEAK T1CC0H
        PUBWEAK T1CC0L
        PUBWEAK T1CC1H
        PUBWEAK T1CC1L
        PUBWEAK T1CC2H
        PUBWEAK T1CC2L
        PUBWEAK T1CCTL1
        PUBWEAK T1CCTL2
        PUBWEAK T1CTL
        PUBWEAK T3CTL
        FUNCTION T3_IRQ,0233H
        ARGFRAME XSTACK, 0, STACK
        LOCFRAME ISTACK, 1, STACK
        PUBWEAK T4CTL
        FUNCTION T4_IRQ,0233H
        ARGFRAME XSTACK, 0, STACK
        LOCFRAME ISTACK, 1, STACK
        PUBWEAK _A_IEN1
        PUBLIC guu_init_timer1
        FUNCTION guu_init_timer1,021203H
        ARGFRAME XSTACK, 0, STACK
        LOCFRAME XSTACK, 14, STACK
        PUBLIC init_timer3_as_second_counter
        FUNCTION init_timer3_as_second_counter,0203H
        ARGFRAME XSTACK, 0, STACK
        PUBLIC init_timer4_as_half_ms_counter
        FUNCTION init_timer4_as_half_ms_counter,0203H
        ARGFRAME XSTACK, 0, STACK
        
        CFI Names cfiNames0
        CFI StackFrame CFA_SP SP IDATA
        CFI StackFrame CFA_PSP16 PSP16 XDATA
        CFI StackFrame CFA_XSP16 XSP16 XDATA
        CFI StaticOverlayFrame CFA_IOVERLAY IOVERLAY
        CFI StaticOverlayFrame CFA_DOVERLAY DOVERLAY
        CFI Resource `PSW.CY`:1, `B.BR0`:1, `B.BR1`:1, `B.BR2`:1, `B.BR3`:1
        CFI Resource `B.BR4`:1, `B.BR5`:1, `B.BR6`:1, `B.BR7`:1, `VB.BR8`:1
        CFI Resource `VB.BR9`:1, `VB.BR10`:1, `VB.BR11`:1, `VB.BR12`:1
        CFI Resource `VB.BR13`:1, `VB.BR14`:1, `VB.BR15`:1, VB:8, B:8, A:8
        CFI Resource PSW:8, DPL0:8, DPH0:8, R0:8, R1:8, R2:8, R3:8, R4:8, R5:8
        CFI Resource R6:8, R7:8, V0:8, V1:8, V2:8, V3:8, V4:8, V5:8, V6:8, V7:8
        CFI Resource V8:8, V9:8, V10:8, V11:8, V12:8, V13:8, V14:8, V15:8, SP:8
        CFI Resource PSPH:8, PSPL:8, PSP16:16, XSPH:8, XSPL:8, XSP16:16
        CFI VirtualResource ?RET:24
        CFI Resource ?BRET_EXT:8
        CFI VirtualResource ?RET_HIGH:8, ?RET_LOW:8
        CFI ResourceParts PSP16 PSPH, PSPL
        CFI ResourceParts XSP16 XSPH, XSPL
        CFI ResourceParts ?RET ?BRET_EXT, ?RET_HIGH, ?RET_LOW
        CFI EndNames cfiNames0
        
        CFI Common cfiCommon0 Using cfiNames0
        CFI CodeAlign 1
        CFI DataAlign -1
        CFI ReturnAddress ?RET CODE
        CFI CFA_DOVERLAY Used
        CFI CFA_IOVERLAY Used
        CFI CFA_SP SP+-3
        CFI CFA_PSP16 PSP16+0
        CFI CFA_XSP16 XSP16+0
        CFI `PSW.CY` SameValue
        CFI `B.BR0` SameValue
        CFI `B.BR1` SameValue
        CFI `B.BR2` SameValue
        CFI `B.BR3` SameValue
        CFI `B.BR4` SameValue
        CFI `B.BR5` SameValue
        CFI `B.BR6` SameValue
        CFI `B.BR7` SameValue
        CFI `VB.BR8` SameValue
        CFI `VB.BR9` SameValue
        CFI `VB.BR10` SameValue
        CFI `VB.BR11` SameValue
        CFI `VB.BR12` SameValue
        CFI `VB.BR13` SameValue
        CFI `VB.BR14` SameValue
        CFI `VB.BR15` SameValue
        CFI VB SameValue
        CFI B Undefined
        CFI A Undefined
        CFI PSW SameValue
        CFI DPL0 SameValue
        CFI DPH0 SameValue
        CFI R0 Undefined
        CFI R1 Undefined
        CFI R2 Undefined
        CFI R3 Undefined
        CFI R4 Undefined
        CFI R5 Undefined
        CFI R6 SameValue
        CFI R7 SameValue
        CFI V0 SameValue
        CFI V1 SameValue
        CFI V2 SameValue
        CFI V3 SameValue
        CFI V4 SameValue
        CFI V5 SameValue
        CFI V6 SameValue
        CFI V7 SameValue
        CFI V8 SameValue
        CFI V9 SameValue
        CFI V10 SameValue
        CFI V11 SameValue
        CFI V12 SameValue
        CFI V13 SameValue
        CFI V14 SameValue
        CFI V15 SameValue
        CFI PSPH Undefined
        CFI PSPL Undefined
        CFI XSPH Undefined
        CFI XSPL Undefined
        CFI ?RET Concat
        CFI ?BRET_EXT Frame(CFA_SP, 3)
        CFI ?RET_HIGH Frame(CFA_SP, 2)
        CFI ?RET_LOW Frame(CFA_SP, 1)
        CFI EndCommon cfiCommon0
        
        
        CFI Common cfiCommon1 Using cfiNames0
        CFI CodeAlign 1
        CFI DataAlign -1
        CFI ReturnAddress ?RET CODE
        CFI CFA_DOVERLAY Used
        CFI CFA_IOVERLAY Used
        CFI CFA_SP SP+-2
        CFI CFA_PSP16 PSP16+0
        CFI CFA_XSP16 XSP16+0
        CFI `PSW.CY` SameValue
        CFI `B.BR0` SameValue
        CFI `B.BR1` SameValue
        CFI `B.BR2` SameValue
        CFI `B.BR3` SameValue
        CFI `B.BR4` SameValue
        CFI `B.BR5` SameValue
        CFI `B.BR6` SameValue
        CFI `B.BR7` SameValue
        CFI `VB.BR8` SameValue
        CFI `VB.BR9` SameValue
        CFI `VB.BR10` SameValue
        CFI `VB.BR11` SameValue
        CFI `VB.BR12` SameValue
        CFI `VB.BR13` SameValue
        CFI `VB.BR14` SameValue
        CFI `VB.BR15` SameValue
        CFI VB SameValue
        CFI B SameValue
        CFI A SameValue
        CFI PSW SameValue
        CFI DPL0 SameValue
        CFI DPH0 SameValue
        CFI R0 SameValue
        CFI R1 SameValue
        CFI R2 SameValue
        CFI R3 SameValue
        CFI R4 SameValue
        CFI R5 SameValue
        CFI R6 SameValue
        CFI R7 SameValue
        CFI V0 SameValue
        CFI V1 SameValue
        CFI V2 SameValue
        CFI V3 SameValue
        CFI V4 SameValue
        CFI V5 SameValue
        CFI V6 SameValue
        CFI V7 SameValue
        CFI V8 SameValue
        CFI V9 SameValue
        CFI V10 SameValue
        CFI V11 SameValue
        CFI V12 SameValue
        CFI V13 SameValue
        CFI V14 SameValue
        CFI V15 SameValue
        CFI PSPH Undefined
        CFI PSPL Undefined
        CFI XSPH Undefined
        CFI XSPL Undefined
        CFI ?RET Concat
        CFI ?BRET_EXT SameValue
        CFI ?RET_HIGH Frame(CFA_SP, 2)
        CFI ?RET_LOW Frame(CFA_SP, 1)
        CFI EndCommon cfiCommon1
        
guu_osal_nv_read    SYMBOL "guu_osal_nv_read"
set_timer1_ch       SYMBOL "set_timer1_ch"
??guu_osal_nv_read?relay SYMBOL "?relay", guu_osal_nv_read
??set_timer1_ch?relay SYMBOL "?relay", set_timer1_ch
guu_init_timer1     SYMBOL "guu_init_timer1"
??guu_init_timer1?relay SYMBOL "?relay", guu_init_timer1
init_timer3_as_second_counter SYMBOL "init_timer3_as_second_counter"
??init_timer3_as_second_counter?relay SYMBOL "?relay", init_timer3_as_second_counter
init_timer4_as_half_ms_counter SYMBOL "init_timer4_as_half_ms_counter"
??init_timer4_as_half_ms_counter?relay SYMBOL "?relay", init_timer4_as_half_ms_counter

        EXTERN guu_osal_nv_read
        FUNCTION guu_osal_nv_read,0202H
        ARGFRAME ISTACK, 0, STACK
        ARGFRAME PSTACK, 0, STACK
        ARGFRAME XSTACK, 14, STACK
        ARGFRAME IOVERLAY, 0, STATIC
        ARGFRAME DOVERLAY, 0, STATIC
        EXTERN set_timer1_ch
        FUNCTION set_timer1_ch,0202H
        ARGFRAME ISTACK, 0, STACK
        ARGFRAME PSTACK, 0, STACK
        ARGFRAME XSTACK, 10, STACK
        ARGFRAME IOVERLAY, 0, STATIC
        ARGFRAME DOVERLAY, 0, STATIC
        EXTERN ??guu_osal_nv_read?relay
        FUNCTION ??guu_osal_nv_read?relay,00H
        EXTERN ??set_timer1_ch?relay
        FUNCTION ??set_timer1_ch?relay,00H
        EXTERN RGBA

// C:\Texas Instruments\ZStack-CC2530-2.5.1a\Projects\zstack\Samples\weikong\Source\guu_timer.c
//    1 /*
//    2 Timer中断 和函数 做到独立很难，是因为有些变量会根据需求，要extern进来
//    3 这样就变的复杂了
//    4 
//    5 */
//    6 #include "ZComDef.h"
//    7 #include "hal_drivers.h"
//    8 #include "OSAL.h"
//    9 #include "OSAL_Tasks.h"
//   10 #include "OSAL_Nv.h"
//   11 
//   12 //#include "OSAL_Custom.h"
//   13 
//   14 #if defined ( MT_TASK )
//   15   #include "MT.h"
//   16   #include "MT_TASK.h"
//   17 #endif
//   18 #include <stdio.h>
//   19 #include <stdlib.h>
//   20 #include <string.h>
//   21 
//   22 
//   23 #include "nwk.h"
//   24 #include "APS.h"
//   25 #include "ZDApp.h"
//   26 
//   27 #include "osal_nv.h"
//   28 #include "NLMEDE.h"
//   29 #include "AF.h"
//   30 #include "OnBoard.h"

        ASEGN SFR_AN:DATA:NOROOT,0b8H
// union <unnamed> volatile __sfr _A_IEN1
_A_IEN1:
        DATA8
        DS 1

        ASEGN SFR_AN:DATA:NOROOT,0cbH
// unsigned char volatile __sfr T3CTL
T3CTL:
        DATA8
        DS 1

        ASEGN SFR_AN:DATA:NOROOT,0daH
// unsigned char volatile __sfr T1CC0L
T1CC0L:
        DATA8
        DS 1

        ASEGN SFR_AN:DATA:NOROOT,0dbH
// unsigned char volatile __sfr T1CC0H
T1CC0H:
        DATA8
        DS 1

        ASEGN SFR_AN:DATA:NOROOT,0dcH
// unsigned char volatile __sfr T1CC1L
T1CC1L:
        DATA8
        DS 1

        ASEGN SFR_AN:DATA:NOROOT,0ddH
// unsigned char volatile __sfr T1CC1H
T1CC1H:
        DATA8
        DS 1

        ASEGN SFR_AN:DATA:NOROOT,0deH
// unsigned char volatile __sfr T1CC2L
T1CC2L:
        DATA8
        DS 1

        ASEGN SFR_AN:DATA:NOROOT,0dfH
// unsigned char volatile __sfr T1CC2H
T1CC2H:
        DATA8
        DS 1

        ASEGN SFR_AN:DATA:NOROOT,0e4H
// unsigned char volatile __sfr T1CTL
T1CTL:
        DATA8
        DS 1

        ASEGN SFR_AN:DATA:NOROOT,0e6H
// unsigned char volatile __sfr T1CCTL1
T1CCTL1:
        DATA8
        DS 1

        ASEGN SFR_AN:DATA:NOROOT,0e7H
// unsigned char volatile __sfr T1CCTL2
T1CCTL2:
        DATA8
        DS 1

        ASEGN SFR_AN:DATA:NOROOT,0ebH
// unsigned char volatile __sfr T4CTL
T4CTL:
        DATA8
        DS 1

        ASEGN SFR_AN:DATA:NOROOT,0f1H
// unsigned char volatile __sfr PERCFG
PERCFG:
        DATA8
        DS 1
//   31 #include "nwk_util.h"
//   32 #include "ZDProfile.h"
//   33 #include "ZDObject.h"
//   34 
//   35 #include "hal_adc.h"
//   36 #include "hal_key.h"
//   37 
//   38 #include "guu_common_def.h"
//   39 #include "serial.h"
//   40 #include "crc.h"
//   41 #include "base.h"
//   42 #include "guu_io.h"
//   43 #include "guu_timer.h"
//   44 

        RSEG BANKED_CODE:CODE:NOROOT(0)
//   45 void init_timer4_as_half_ms_counter(void)
init_timer4_as_half_ms_counter:
        CFI Block cfiBlock0 Using cfiCommon0
        CFI Function init_timer4_as_half_ms_counter
        CODE
//   46 {
        ; Saved register size: 0
        ; Auto size: 0
//   47 
//   48     T4CTL &= ~0x10;             // Stop timer 4 (if it was running)
        ANL     0xeb,#0xef
//   49     T4CTL |= 0x04;              // Clear timer 4
        ORL     0xeb,#0x4
//   50     T4CTL |= 0x08;             // enable Timer 4 overflow interrupts
        ORL     0xeb,#0x8
//   51     T4CTL |= 0x00;              // Timer 4 guu_mode = free-running guu_mode,with overflowe interrupt
        MOV     0xeb,0xeb
//   52     T4CTL |= 0xc0; //  Tick frequency/64 这样，0.5ms一次，500us
        ORL     0xeb,#0xc0
//   53     T4CTL |= 0x10; // START IT
        ORL     0xeb,#0x10
//   54     T4IE = 1;    
        SETB    0xb8.4
//   55 }
        LJMP    ?BRET
        CFI EndBlock cfiBlock0
        REQUIRE T4CTL
        REQUIRE _A_IEN1
//   56 

        RSEG BANKED_CODE:CODE:NOROOT(0)
//   57 void init_timer3_as_second_counter(void)
init_timer3_as_second_counter:
        CFI Block cfiBlock1 Using cfiCommon0
        CFI Function init_timer3_as_second_counter
        CODE
//   58 {
        ; Saved register size: 0
        ; Auto size: 0
//   59     T3CTL &= ~0x10;             // Stop timer 3 (if it was running)
        ANL     0xcb,#0xef
//   60     T3CTL = 0; // 清空所有设置,此时分频是1
        MOV     0xcb,#0x0
//   61     T3CTL |= 0x04;              // Clear timer 3
        ORL     0xcb,#0x4
//   62     T3CTL |= 0x08;             // enable Timer 3 overflow interrupts
        ORL     0xcb,#0x8
//   63     T3CTL |= 0x00;              // Timer 3 guu_mode = free-running guu_mode,with overflowe interrupt
        MOV     0xcb,0xcb
//   64     T3CTL |= 224; //  Tick frequency/128
        ORL     0xcb,#0xe0
//   65     T3IE = 1;
        SETB    0xb8.3
//   66     T3CTL |= 0x10; // Start Timer
        ORL     0xcb,#0x10
//   67       
//   68     
//   69 }
        LJMP    ?BRET
        CFI EndBlock cfiBlock1
        REQUIRE T3CTL
        REQUIRE _A_IEN1
//   70 

        RSEG BANKED_CODE:CODE:NOROOT(0)
//   71 void guu_init_timer1(void)
guu_init_timer1:
        CFI Block cfiBlock2 Using cfiCommon0
        CFI Function guu_init_timer1
        CODE
//   72 {
        FUNCALL guu_init_timer1, guu_osal_nv_read
        LOCFRAME ISTACK, 0, STACK
        LOCFRAME PSTACK, 0, STACK
        LOCFRAME XSTACK, 14, STACK
        LOCFRAME IOVERLAY, 0, STATIC
        LOCFRAME DOVERLAY, 0, STATIC
        ARGFRAME ISTACK, 0, STACK
        ARGFRAME PSTACK, 0, STACK
        ARGFRAME XSTACK, 14, STACK
        ARGFRAME IOVERLAY, 0, STATIC
        ARGFRAME DOVERLAY, 0, STATIC
        FUNCALL guu_init_timer1, set_timer1_ch
        LOCFRAME ISTACK, 0, STACK
        LOCFRAME PSTACK, 0, STACK
        LOCFRAME XSTACK, 10, STACK
        LOCFRAME IOVERLAY, 0, STATIC
        LOCFRAME DOVERLAY, 0, STATIC
        ARGFRAME ISTACK, 0, STACK
        ARGFRAME PSTACK, 0, STACK
        ARGFRAME XSTACK, 10, STACK
        ARGFRAME IOVERLAY, 0, STATIC
        ARGFRAME DOVERLAY, 0, STATIC
        FUNCALL guu_init_timer1, set_timer1_ch
        LOCFRAME ISTACK, 0, STACK
        LOCFRAME PSTACK, 0, STACK
        LOCFRAME XSTACK, 10, STACK
        LOCFRAME IOVERLAY, 0, STATIC
        LOCFRAME DOVERLAY, 0, STATIC
        ARGFRAME ISTACK, 0, STACK
        ARGFRAME PSTACK, 0, STACK
        ARGFRAME XSTACK, 10, STACK
        ARGFRAME IOVERLAY, 0, STATIC
        ARGFRAME DOVERLAY, 0, STATIC
        FUNCALL guu_init_timer1, set_timer1_ch
        LOCFRAME ISTACK, 0, STACK
        LOCFRAME PSTACK, 0, STACK
        LOCFRAME XSTACK, 10, STACK
        LOCFRAME IOVERLAY, 0, STATIC
        LOCFRAME DOVERLAY, 0, STATIC
        ARGFRAME ISTACK, 0, STACK
        ARGFRAME PSTACK, 0, STACK
        ARGFRAME XSTACK, 10, STACK
        ARGFRAME IOVERLAY, 0, STATIC
        ARGFRAME DOVERLAY, 0, STATIC
        FUNCALL guu_init_timer1, set_timer1_ch
        LOCFRAME ISTACK, 0, STACK
        LOCFRAME PSTACK, 0, STACK
        LOCFRAME XSTACK, 10, STACK
        LOCFRAME IOVERLAY, 0, STATIC
        LOCFRAME DOVERLAY, 0, STATIC
        ARGFRAME ISTACK, 0, STACK
        ARGFRAME PSTACK, 0, STACK
        ARGFRAME XSTACK, 10, STACK
        ARGFRAME IOVERLAY, 0, STATIC
        ARGFRAME DOVERLAY, 0, STATIC
        MOV     A,#-0xa
        LCALL   ?BANKED_ENTER_XDATA
        CFI DPH0 load(1, XDATA, add(CFA_XSP16, literal(-1)))
        CFI DPL0 load(1, XDATA, add(CFA_XSP16, literal(-2)))
        CFI ?BRET_EXT load(1, XDATA, add(CFA_XSP16, literal(-3)))
        CFI ?RET_HIGH load(1, XDATA, add(CFA_XSP16, literal(-4)))
        CFI ?RET_LOW load(1, XDATA, add(CFA_XSP16, literal(-5)))
        CFI R7 load(1, XDATA, add(CFA_XSP16, literal(-6)))
        CFI V1 load(1, XDATA, add(CFA_XSP16, literal(-7)))
        CFI V0 load(1, XDATA, add(CFA_XSP16, literal(-8)))
        CFI VB load(1, XDATA, add(CFA_XSP16, literal(-9)))
        CFI R6 load(1, XDATA, add(CFA_XSP16, literal(-10)))
        CFI CFA_SP SP+0
        CFI CFA_XSP16 add(XSP16, 10)
        ; Saved register size: 10
        ; Auto size: 0
//   73   //time1 init
//   74    T1CTL |=0x02;
        ORL     0xe4,#0x2
//   75    PERCFG |= 0x40; // move time1 to alt2 location
        ORL     0xf1,#0x40
//   76    T1CTL |=0x02; // module mode
        ORL     0xe4,#0x2
//   77    T1CC0L=0xff;
        MOV     0xda,#-0x1
//   78    T1CC0H=0xff;
        MOV     0xdb,#-0x1
//   79    
//   80    T1CCTL1 |= 0x1c;//比较模式，定时器T1，通道1 模式4
        ORL     0xe6,#0x1c
//   81    T1CC1L = 0x00;//比较值 高电平时间
        MOV     0xdc,#0x0
//   82    T1CC1H = 0x00;
        MOV     0xdd,#0x0
//   83 	 
//   84    T1CCTL2 |= 0x1c;//比较模式，定时器T1，通道1 模式4
        ORL     0xe7,#0x1c
//   85    T1CC2L = 0x00;//比较值 高电平时间
        MOV     0xde,#0x0
//   86    T1CC2H = 0x00;
        MOV     0xdf,#0x0
//   87 
//   88    T1CCTL3 |= 0x1c;//比较模式，定时器T1，通道1 模式4
        MOV     DPTR,#0x62a3
        MOVX    A,@DPTR
        ORL     A,#0x1c
        MOVX    @DPTR,A
//   89    T1CC3L = 0x00;//比较值 高电平时间
        MOV     DPTR,#0x62ac
        CLR     A
        MOVX    @DPTR,A
//   90    T1CC3H = 0x00;
        INC     DPTR
        MOVX    @DPTR,A
//   91 
//   92    T1CCTL4 |= 0x1c;//比较模式，定时器T1，通道1 模式4
        MOV     DPTR,#0x62a4
        MOVX    A,@DPTR
        ORL     A,#0x1c
        MOVX    @DPTR,A
//   93    T1CC4L = 0x00;//比较值 高电平时间
        MOV     DPTR,#0x62ae
        CLR     A
        MOVX    @DPTR,A
//   94    T1CC4H = 0x00;
        INC     DPTR
        MOVX    @DPTR,A
//   95 
//   96 //   RGBA->R=0; RGBA->G=0; RGBA->B=0;RGBA->A=0;
//   97 
//   98 	/*
//   99   P0DIR |= BV(6);
//  100 	P0DIR |= BV(7);
//  101 	P1DIR |= 0x03;
//  102   P1SEL |= 0x03; //p1_0,p1_1 用来当timer1的通道 
//  103   P0SEL |= 0xc0; //p0_6,p0_7,用来当Timer1的通道  
//  104 	//此处不能在初始化时进行端口的配置 ,特别是P1_0,会影响到cc2530/1的USB初始化
//  105 	*/
//  106 	//从Flash中读取RGBA四个值,再赋于Timer1 4个通道 
//  107 	guu_osal_nv_read(PWM_ADDR,0,sizeof(RGBA_t), (uint8*)RGBA);
        ; Setup parameters for call to function guu_osal_nv_read
        MOV     DPTR,#RGBA
        LCALL   ?PUSH_XSTACK8_X_TWO
        CFI CFA_XSP16 add(XSP16, 12)
        MOV     ?V0 + 0,#0x4
        MOV     ?V0 + 1,#0x0
        MOV     R0,#?V0 + 0
        LCALL   ?PUSH_XSTACK_I_TWO
        CFI CFA_XSP16 add(XSP16, 14)
        MOV     R4,#0x0
        MOV     R5,#0x0
        MOV     R2,#0x2
        MOV     R3,#0x4
        LCALL   ??guu_osal_nv_read?relay
        MOV     A,#0x4
        LCALL   ?DEALLOC_XSTACK8
        CFI CFA_XSP16 add(XSP16, 10)
//  108 
//  109 	set_timer1_ch(1,RGBA->R);
        ; Setup parameters for call to function set_timer1_ch
        LCALL   ?Subroutine1 & 0xFFFF
??CrossCallReturnLabel_2:
        MOVX    A,@DPTR
        MOV     R2,A
        MOV     R1,#0x1
        LCALL   ??set_timer1_ch?relay
//  110 	set_timer1_ch(2,RGBA->G);
        ; Setup parameters for call to function set_timer1_ch
        LCALL   ?Subroutine1 & 0xFFFF
??CrossCallReturnLabel_3:
        INC     DPTR
        MOVX    A,@DPTR
        MOV     R2,A
        MOV     R1,#0x2
        LCALL   ?Subroutine0 & 0xFFFF
//  111 	set_timer1_ch(3,RGBA->B);
??CrossCallReturnLabel_0:
        MOVX    A,@DPTR
        MOV     R2,A
        MOV     R1,#0x3
        LCALL   ?Subroutine0 & 0xFFFF
//  112 	set_timer1_ch(4,RGBA->A);
??CrossCallReturnLabel_1:
        INC     DPTR
        MOVX    A,@DPTR
        MOV     R2,A
        MOV     R1,#0x4
        LCALL   ??set_timer1_ch?relay
//  113 
//  114 	
//  115 }
        MOV     R7,#0x2
        LJMP    ?BANKED_LEAVE_XDATA
        CFI EndBlock cfiBlock2
        REQUIRE T1CTL
        REQUIRE PERCFG
        REQUIRE T1CC0L
        REQUIRE T1CC0H
        REQUIRE T1CCTL1
        REQUIRE T1CC1L
        REQUIRE T1CC1H
        REQUIRE T1CCTL2
        REQUIRE T1CC2L
        REQUIRE T1CC2H

        RSEG BANKED_CODE:CODE:NOROOT(0)
?Subroutine1:
        CFI Block cfiCond3 Using cfiCommon0
        CFI NoFunction
        CFI Conditional ??CrossCallReturnLabel_2
        CFI R6 load(1, XDATA, add(CFA_XSP16, literal(-10)))
        CFI VB load(1, XDATA, add(CFA_XSP16, literal(-9)))
        CFI V0 load(1, XDATA, add(CFA_XSP16, literal(-8)))
        CFI V1 load(1, XDATA, add(CFA_XSP16, literal(-7)))
        CFI R7 load(1, XDATA, add(CFA_XSP16, literal(-6)))
        CFI ?RET_LOW load(1, XDATA, add(CFA_XSP16, literal(-5)))
        CFI ?RET_HIGH load(1, XDATA, add(CFA_XSP16, literal(-4)))
        CFI ?BRET_EXT load(1, XDATA, add(CFA_XSP16, literal(-3)))
        CFI DPL0 load(1, XDATA, add(CFA_XSP16, literal(-2)))
        CFI DPH0 load(1, XDATA, add(CFA_XSP16, literal(-1)))
        CFI CFA_SP SP+0
        CFI CFA_XSP16 add(XSP16, 10)
        CFI Block cfiCond4 Using cfiCommon0
        CFI (cfiCond4) NoFunction
        CFI (cfiCond4) Conditional ??CrossCallReturnLabel_3
        CFI (cfiCond4) R6 load(1, XDATA, add(CFA_XSP16, literal(-10)))
        CFI (cfiCond4) VB load(1, XDATA, add(CFA_XSP16, literal(-9)))
        CFI (cfiCond4) V0 load(1, XDATA, add(CFA_XSP16, literal(-8)))
        CFI (cfiCond4) V1 load(1, XDATA, add(CFA_XSP16, literal(-7)))
        CFI (cfiCond4) R7 load(1, XDATA, add(CFA_XSP16, literal(-6)))
        CFI (cfiCond4) ?RET_LOW load(1, XDATA, add(CFA_XSP16, literal(-5)))
        CFI (cfiCond4) ?RET_HIGH load(1, XDATA, add(CFA_XSP16, literal(-4)))
        CFI (cfiCond4) ?BRET_EXT load(1, XDATA, add(CFA_XSP16, literal(-3)))
        CFI (cfiCond4) DPL0 load(1, XDATA, add(CFA_XSP16, literal(-2)))
        CFI (cfiCond4) DPH0 load(1, XDATA, add(CFA_XSP16, literal(-1)))
        CFI (cfiCond4) CFA_SP SP+0
        CFI (cfiCond4) CFA_XSP16 add(XSP16, 10)
        CFI Block cfiPicker5 Using cfiCommon1
        CFI (cfiPicker5) NoFunction
        CFI (cfiPicker5) Picker
        LCALL   ?Subroutine2 & 0xFFFF
??CrossCallReturnLabel_5:
        RET
        CFI EndBlock cfiCond3
        CFI EndBlock cfiCond4
        CFI EndBlock cfiPicker5

        RSEG BANKED_CODE:CODE:NOROOT(0)
?Subroutine2:
        CFI Block cfiCond6 Using cfiCommon0
        CFI NoFunction
        CFI Conditional ??CrossCallReturnLabel_5, ??CrossCallReturnLabel_2
        CFI R6 load(1, XDATA, add(CFA_XSP16, literal(-10)))
        CFI VB load(1, XDATA, add(CFA_XSP16, literal(-9)))
        CFI V0 load(1, XDATA, add(CFA_XSP16, literal(-8)))
        CFI V1 load(1, XDATA, add(CFA_XSP16, literal(-7)))
        CFI R7 load(1, XDATA, add(CFA_XSP16, literal(-6)))
        CFI ?RET_LOW load(1, XDATA, add(CFA_XSP16, literal(-5)))
        CFI ?RET_HIGH load(1, XDATA, add(CFA_XSP16, literal(-4)))
        CFI ?BRET_EXT load(1, XDATA, add(CFA_XSP16, literal(-3)))
        CFI DPL0 load(1, XDATA, add(CFA_XSP16, literal(-2)))
        CFI DPH0 load(1, XDATA, add(CFA_XSP16, literal(-1)))
        CFI CFA_SP SP+0
        CFI CFA_XSP16 add(XSP16, 10)
        CFI Block cfiCond7 Using cfiCommon0
        CFI (cfiCond7) NoFunction
        CFI (cfiCond7) Conditional ??CrossCallReturnLabel_5, ??CrossCallReturnLabel_3
        CFI (cfiCond7) R6 load(1, XDATA, add(CFA_XSP16, literal(-10)))
        CFI (cfiCond7) VB load(1, XDATA, add(CFA_XSP16, literal(-9)))
        CFI (cfiCond7) V0 load(1, XDATA, add(CFA_XSP16, literal(-8)))
        CFI (cfiCond7) V1 load(1, XDATA, add(CFA_XSP16, literal(-7)))
        CFI (cfiCond7) R7 load(1, XDATA, add(CFA_XSP16, literal(-6)))
        CFI (cfiCond7) ?RET_LOW load(1, XDATA, add(CFA_XSP16, literal(-5)))
        CFI (cfiCond7) ?RET_HIGH load(1, XDATA, add(CFA_XSP16, literal(-4)))
        CFI (cfiCond7) ?BRET_EXT load(1, XDATA, add(CFA_XSP16, literal(-3)))
        CFI (cfiCond7) DPL0 load(1, XDATA, add(CFA_XSP16, literal(-2)))
        CFI (cfiCond7) DPH0 load(1, XDATA, add(CFA_XSP16, literal(-1)))
        CFI (cfiCond7) CFA_SP SP+0
        CFI (cfiCond7) CFA_XSP16 add(XSP16, 10)
        CFI Block cfiCond8 Using cfiCommon0
        CFI (cfiCond8) NoFunction
        CFI (cfiCond8) Conditional ??CrossCallReturnLabel_4, ??CrossCallReturnLabel_0
        CFI (cfiCond8) R6 load(1, XDATA, add(CFA_XSP16, literal(-10)))
        CFI (cfiCond8) VB load(1, XDATA, add(CFA_XSP16, literal(-9)))
        CFI (cfiCond8) V0 load(1, XDATA, add(CFA_XSP16, literal(-8)))
        CFI (cfiCond8) V1 load(1, XDATA, add(CFA_XSP16, literal(-7)))
        CFI (cfiCond8) R7 load(1, XDATA, add(CFA_XSP16, literal(-6)))
        CFI (cfiCond8) ?RET_LOW load(1, XDATA, add(CFA_XSP16, literal(-5)))
        CFI (cfiCond8) ?RET_HIGH load(1, XDATA, add(CFA_XSP16, literal(-4)))
        CFI (cfiCond8) ?BRET_EXT load(1, XDATA, add(CFA_XSP16, literal(-3)))
        CFI (cfiCond8) DPL0 load(1, XDATA, add(CFA_XSP16, literal(-2)))
        CFI (cfiCond8) DPH0 load(1, XDATA, add(CFA_XSP16, literal(-1)))
        CFI (cfiCond8) CFA_SP SP+0
        CFI (cfiCond8) CFA_XSP16 add(XSP16, 10)
        CFI Block cfiCond9 Using cfiCommon0
        CFI (cfiCond9) NoFunction
        CFI (cfiCond9) Conditional ??CrossCallReturnLabel_4, ??CrossCallReturnLabel_1
        CFI (cfiCond9) R6 load(1, XDATA, add(CFA_XSP16, literal(-10)))
        CFI (cfiCond9) VB load(1, XDATA, add(CFA_XSP16, literal(-9)))
        CFI (cfiCond9) V0 load(1, XDATA, add(CFA_XSP16, literal(-8)))
        CFI (cfiCond9) V1 load(1, XDATA, add(CFA_XSP16, literal(-7)))
        CFI (cfiCond9) R7 load(1, XDATA, add(CFA_XSP16, literal(-6)))
        CFI (cfiCond9) ?RET_LOW load(1, XDATA, add(CFA_XSP16, literal(-5)))
        CFI (cfiCond9) ?RET_HIGH load(1, XDATA, add(CFA_XSP16, literal(-4)))
        CFI (cfiCond9) ?BRET_EXT load(1, XDATA, add(CFA_XSP16, literal(-3)))
        CFI (cfiCond9) DPL0 load(1, XDATA, add(CFA_XSP16, literal(-2)))
        CFI (cfiCond9) DPH0 load(1, XDATA, add(CFA_XSP16, literal(-1)))
        CFI (cfiCond9) CFA_SP SP+0
        CFI (cfiCond9) CFA_XSP16 add(XSP16, 10)
        CFI Block cfiPicker10 Using cfiCommon1
        CFI (cfiPicker10) NoFunction
        CFI (cfiPicker10) Picker
        MOV     DPTR,#RGBA
        MOVX    A,@DPTR
        MOV     R0,A
        INC     DPTR
        MOVX    A,@DPTR
        MOV     DPH,A
        MOV     DPL,R0
        RET
        CFI EndBlock cfiCond6
        CFI EndBlock cfiCond7
        CFI EndBlock cfiCond8
        CFI EndBlock cfiCond9
        CFI EndBlock cfiPicker10

        RSEG BANKED_CODE:CODE:NOROOT(0)
?Subroutine0:
        CFI Block cfiCond11 Using cfiCommon0
        CFI NoFunction
        CFI Conditional ??CrossCallReturnLabel_0
        CFI R6 load(1, XDATA, add(CFA_XSP16, literal(-10)))
        CFI VB load(1, XDATA, add(CFA_XSP16, literal(-9)))
        CFI V0 load(1, XDATA, add(CFA_XSP16, literal(-8)))
        CFI V1 load(1, XDATA, add(CFA_XSP16, literal(-7)))
        CFI R7 load(1, XDATA, add(CFA_XSP16, literal(-6)))
        CFI ?RET_LOW load(1, XDATA, add(CFA_XSP16, literal(-5)))
        CFI ?RET_HIGH load(1, XDATA, add(CFA_XSP16, literal(-4)))
        CFI ?BRET_EXT load(1, XDATA, add(CFA_XSP16, literal(-3)))
        CFI DPL0 load(1, XDATA, add(CFA_XSP16, literal(-2)))
        CFI DPH0 load(1, XDATA, add(CFA_XSP16, literal(-1)))
        CFI CFA_SP SP+0
        CFI CFA_XSP16 add(XSP16, 10)
        CFI Block cfiCond12 Using cfiCommon0
        CFI (cfiCond12) NoFunction
        CFI (cfiCond12) Conditional ??CrossCallReturnLabel_1
        CFI (cfiCond12) R6 load(1, XDATA, add(CFA_XSP16, literal(-10)))
        CFI (cfiCond12) VB load(1, XDATA, add(CFA_XSP16, literal(-9)))
        CFI (cfiCond12) V0 load(1, XDATA, add(CFA_XSP16, literal(-8)))
        CFI (cfiCond12) V1 load(1, XDATA, add(CFA_XSP16, literal(-7)))
        CFI (cfiCond12) R7 load(1, XDATA, add(CFA_XSP16, literal(-6)))
        CFI (cfiCond12) ?RET_LOW load(1, XDATA, add(CFA_XSP16, literal(-5)))
        CFI (cfiCond12) ?RET_HIGH load(1, XDATA, add(CFA_XSP16, literal(-4)))
        CFI (cfiCond12) ?BRET_EXT load(1, XDATA, add(CFA_XSP16, literal(-3)))
        CFI (cfiCond12) DPL0 load(1, XDATA, add(CFA_XSP16, literal(-2)))
        CFI (cfiCond12) DPH0 load(1, XDATA, add(CFA_XSP16, literal(-1)))
        CFI (cfiCond12) CFA_SP SP+0
        CFI (cfiCond12) CFA_XSP16 add(XSP16, 10)
        CFI Block cfiPicker13 Using cfiCommon1
        CFI (cfiPicker13) NoFunction
        CFI (cfiPicker13) Picker
        LCALL   ??set_timer1_ch?relay
        ; Setup parameters for call to function set_timer1_ch
        ; Setup parameters for call to function set_timer1_ch
        LCALL   ?Subroutine2 & 0xFFFF
??CrossCallReturnLabel_4:
        INC     DPTR
        INC     DPTR
        RET
        CFI EndBlock cfiCond11
        CFI EndBlock cfiCond12
        CFI EndBlock cfiPicker13
//  116 
//  117 
//  118 #pragma vector=T3_VECTOR

        RSEG NEAR_CODE:CODE:NOROOT(0)
//  119 __interrupt static void T3_IRQ(void)
T3_IRQ:
        CFI Block cfiBlock14 Using cfiCommon1
        CFI Function T3_IRQ
        CODE
//  120 {
        ; Saved register size: 1
        ; Auto size: 0
//  121   
//  122 }
        RETI
        CFI EndBlock cfiBlock14
//  123 
//  124 
//  125 #pragma vector=T4_VECTOR

        RSEG NEAR_CODE:CODE:NOROOT(0)
//  126 __interrupt static void T4_IRQ(void)
T4_IRQ:
        CFI Block cfiBlock15 Using cfiCommon1
        CFI Function T4_IRQ
        CODE
//  127 {
        ; Saved register size: 1
        ; Auto size: 0
//  128   
//  129   /*
//  130   guu_t4_counter++;
//  131   if( guu_t4_counter >0 && guu_t4_counter < 16)
//  132   {
//  133      if(RESET_NETWORK == 0)
//  134      {
//  135        if( _NIB.nwkDevAddress != 0x0000 &&  _NIB.nwkDevAddress != INVALID_NODE_ADDR )
//  136        {
//  137           send_self_address_to_coordi(1);
//  138        }
//  139      }
//  140   }
//  141   else if(guu_t4_counter > 6644 )
//  142   {
//  143     //check p0_5
//  144     if(RESET_NETWORK == 0 &&  _NIB.nwkDevAddress != 0x0000 )// 按下 清除网络的 按纽
//  145     {
//  146        _NIB.nwkDevAddress=0xfffe;
//  147        NLME_UpdateNV(0x01);
//  148       if(_NIB.nwkPanId == 0xfffe) //no network
//  149       {
//  150         guu_sa =_NIB.nwkLogicalChannel;
//  151         guu_sa++;
//  152         if( guu_sa > 0x1a)
//  153         {
//  154           guu_sa = 0x0b;
//  155         }
//  156         set_channel( (uint8)guu_sa);        
//  157         set_router();
//  158       }else
//  159       {
//  160         guu_sa =_NIB.nwkLogicalChannel;
//  161         guu_sa++;
//  162         if( guu_sa > 0x1a)
//  163         {
//  164           guu_sa = 0x0b;
//  165         }
//  166         set_channel( (uint8)guu_sa);
//  167         set_panid( 0xffff);
//  168         if(_NIB.nwkPanId == 0xffff)
//  169         {
//  170           zgWriteStartupOptions (ZG_STARTUP_SET, ZCD_STARTOPT_DEFAULT_NETWORK_STATE);
//  171           SystemReset();
//  172         }
//  173       }
//  174       guu_t4_counter = 0;
//  175       usart_debug("reset",5);
//  176     }
//  177     
//  178   }
//  179   
//  180   
//  181 #ifdef USE_PM25
//  182   
//  183   if(guu_pm25_30_counter != 0xffff ) // 在命令的时候，reset guu_pm25_30_counter 为0 ,开始计数
//  184   {
//  185     guu_pm25_30_counter ++;
//  186     
//  187     //if(PM2_PORT)
//  188     //{
//  189     //  _guu_pm25_hi++;
//  190     //}
//  191     //else 
//  192     
//  193     if(!PM2_PORT)
//  194     {
//  195       guu_pm25_low++;
//  196     }
//  197   
//  198   if(guu_pm25_30_counter >= PM_COUNTER_MAX)
//  199     { 
//  200       send_pm25_data();
//  201     }
//  202       
//  203   }
//  204 #endif
//  205   
//  206    if(guu_t4_counter > 65534) 
//  207    {
//  208      guu_t4_counter = 0;
//  209      
//  210    }
//  211   */
//  212 }
        RETI
        CFI EndBlock cfiBlock15

        COMMON INTVEC:CODE:ROOT(0)
        ORG 91
        LJMP       (T3_IRQ)

        COMMON INTVEC:CODE:ROOT(0)
        ORG 99
        LJMP       (T4_IRQ)

        RSEG BANK_RELAYS:CODE:REORDER:NOROOT(0)
??init_timer4_as_half_ms_counter?relay:
        LCALL   ?BDISPATCH
        DATA
        DC24    init_timer4_as_half_ms_counter

        RSEG BANK_RELAYS:CODE:REORDER:NOROOT(0)
??init_timer3_as_second_counter?relay:
        LCALL   ?BDISPATCH
        DATA
        DC24    init_timer3_as_second_counter

        RSEG BANK_RELAYS:CODE:REORDER:NOROOT(0)
??guu_init_timer1?relay:
        LCALL   ?BDISPATCH
        DATA
        DC24    guu_init_timer1

        END
//  213 
//  214 
// 
// 214 bytes in segment BANKED_CODE
//  18 bytes in segment BANK_RELAYS
//   6 bytes in segment INTVEC
//   2 bytes in segment NEAR_CODE
//  13 bytes in segment SFR_AN
// 
// 234 bytes of CODE memory (+  6 bytes shared)
//   0 bytes of DATA memory (+ 13 bytes shared)
//
//Errors: none
//Warnings: none
