///////////////////////////////////////////////////////////////////////////////
//                                                                            /
// IAR C/C++ Compiler V8.10.3.40338/W32 for 8051        25/Jan/2015  17:06:15 /
// Copyright 2004-2011 IAR Systems AB.                                        /
//                                                                            /
//    Core               =  plain                                             /
//    Code model         =  banked                                            /
//    Data model         =  large                                             /
//    Calling convention =  xdata reentrant                                   /
//    Constant location  =  data_rom                                          /
//    Dptr setup         =  1,16                                              /
//    Source file        =  C:\Texas Instruments\ZStack-CC2530-2.5.1a\Compone /
//                          nts\hal\common\hal_assert.c                       /
//    Command line       =  -f "C:\Texas Instruments\ZStack-CC2530-2.5.1a\Pro /
//                          jects\zstack\Samples\GenericApp\CC2531\..\..\..\T /
//                          ools\CC2530DB\f8wRouter.cfg" (-DCPU32MHZ          /
//                          -DROOT=__near_func -DMAC_CFG_APP_PENDING_QUEUE=TR /
//                          UE -DMAC_CFG_TX_DATA_MAX=5 -DMAC_CFG_TX_MAX=8     /
//                          -DMAC_CFG_RX_MAX=5 -DRTR_NWK) -f "C:\Texas        /
//                          Instruments\ZStack-CC2530-2.5.1a\Projects\zstack\ /
//                          Samples\GenericApp\CC2531\..\..\..\Tools\CC2530DB /
//                          \f8wConfig.cfg" (-DZIGBEEPRO -DSECURE=0           /
//                          -DZG_SECURE_DYNAMIC=0 -DREFLECTOR                 /
//                          -DDEFAULT_CHANLIST=0x00000800                     /
//                          -DZDAPP_CONFIG_PAN_ID=0xFFFF                      /
//                          -DNWK_START_DELAY=100 -DEXTENDED_JOINING_RANDOM_M /
//                          ASK=0x007F -DBEACON_REQUEST_DELAY=100             /
//                          -DBEACON_REQ_DELAY_MASK=0x00FF                    /
//                          -DLINK_STATUS_JITTER_MASK=0x007F                  /
//                          -DROUTE_EXPIRY_TIME=30 -DAPSC_ACK_WAIT_DURATION_P /
//                          OLLED=3000 -DNWK_INDIRECT_MSG_TIMEOUT=7           /
//                          -DMAX_RREQ_ENTRIES=8 -DAPSC_MAX_FRAME_RETRIES=3   /
//                          -DNWK_MAX_DATA_RETRIES=2                          /
//                          -DMAX_POLL_FAILURE_RETRIES=2 -DMAX_BCAST=9        /
//                          -DAPS_MAX_GROUPS=16 -DMAX_RTG_ENTRIES=40          /
//                          -DNWK_MAX_BINDING_ENTRIES=4                       /
//                          -DMAX_BINDING_CLUSTER_IDS=4                       /
//                          "-DDEFAULT_KEY={0x01, 0x03, 0x05, 0x07, 0x09,     /
//                          0x0B, 0x0D, 0x0F, 0x00, 0x02, 0x04, 0x06, 0x08,   /
//                          0x0A, 0x0C, 0x0D}" -DMAC_MAX_FRAME_SIZE=116       /
//                          -DZDNWKMGR_MIN_TRANSMISSIONS=20 "-DCONST=const    /
//                          __code" -DGENERIC=__generic                       /
//                          -DRFD_RCVC_ALWAYS_ON=FALSE -DPOLL_RATE=1000       /
//                          -DQUEUED_POLL_RATE=100 -DRESPONSE_POLL_RATE=100)  /
//                          -DREJOIN_POLL_RATE=440 "C:\Texas                  /
//                          Instruments\ZStack-CC2530-2.5.1a\Components\hal\c /
//                          ommon\hal_assert.c" -D ZTOOL_P1 -D MT_TASK -D     /
//                          MT_AF_FUNC -D MT_AF_CB_FUNC -D MT_APP_FUNC -D     /
//                          MT_DEBUG_FUNC -D MT_NWK_FUNC -D MT_NWK_CB_FUNC    /
//                          -D MT_SYS_FUNC -D MT_SYS_FUNC -D MT_ZDO_FUNC -D   /
//                          MT_UTIL_FUNC -D MT_ZDO_CB_FUNC -D MT_ZDO_MGMT -D  /
//                          LCD_SUPPORTED=FALSE -D HAL_LCD=FALSE -D           /
//                          HAL_LED=FALSE -D GUU_HAL_LED=TRUE -D NV_INIT -D   /
//                          NV_RESTORE -D xPOWER_SAVING -lC "C:\Texas         /
//                          Instruments\ZStack-CC2530-2.5.1a\Projects\zstack\ /
//                          Samples\GenericApp\CC2531\Router\List\" -lA       /
//                          "C:\Texas Instruments\ZStack-CC2530-2.5.1a\Projec /
//                          ts\zstack\Samples\GenericApp\CC2531\Router\List\" /
//                           --diag_suppress Pe001,Pa010 -o "C:\Texas         /
//                          Instruments\ZStack-CC2530-2.5.1a\Projects\zstack\ /
//                          Samples\GenericApp\CC2531\Router\Obj\" -e         /
//                          --no_code_motion --debug --core=plain             /
//                          --dptr=16,1 --data_model=large                    /
//                          --code_model=banked --calling_convention=xdata_re /
//                          entrant --place_constants=data_rom                /
//                          --nr_virtual_regs 16 -I "C:\Texas                 /
//                          Instruments\ZStack-CC2530-2.5.1a\Projects\zstack\ /
//                          Samples\GenericApp\CC2531\" -I "C:\Texas          /
//                          Instruments\ZStack-CC2530-2.5.1a\Projects\zstack\ /
//                          Samples\GenericApp\CC2531\..\Source\" -I          /
//                          "C:\Texas Instruments\ZStack-CC2530-2.5.1a\Projec /
//                          ts\zstack\Samples\GenericApp\CC2531\..\..\..\ZMai /
//                          n\TI2530DB\" -I "C:\Texas                         /
//                          Instruments\ZStack-CC2530-2.5.1a\Projects\zstack\ /
//                          Samples\GenericApp\CC2531\..\..\..\..\..\Componen /
//                          ts\hal\include\" -I "C:\Texas                     /
//                          Instruments\ZStack-CC2530-2.5.1a\Projects\zstack\ /
//                          Samples\GenericApp\CC2531\..\..\..\..\..\Componen /
//                          ts\hal\target\CC2530USB\" -I "C:\Texas            /
//                          Instruments\ZStack-CC2530-2.5.1a\Projects\zstack\ /
//                          Samples\GenericApp\CC2531\..\..\..\..\..\Componen /
//                          ts\hal\target\CC2530USB\usb\library\" -I          /
//                          "C:\Texas Instruments\ZStack-CC2530-2.5.1a\Projec /
//                          ts\zstack\Samples\GenericApp\CC2531\..\..\..\..\. /
//                          .\Components\hal\target\CC2530USB\usb\library\cc2 /
//                          531\" -I "C:\Texas Instruments\ZStack-CC2530-2.5. /
//                          1a\Projects\zstack\Samples\GenericApp\CC2531\..\. /
//                          .\..\..\..\Components\hal\target\CC2530USB\usb\cl /
//                          ass_cdc\" -I "C:\Texas Instruments\ZStack-CC2530- /
//                          2.5.1a\Projects\zstack\Samples\GenericApp\CC2531\ /
//                          ..\..\..\..\..\Components\mac\include\" -I        /
//                          "C:\Texas Instruments\ZStack-CC2530-2.5.1a\Projec /
//                          ts\zstack\Samples\GenericApp\CC2531\..\..\..\..\. /
//                          .\Components\mac\high_level\" -I "C:\Texas        /
//                          Instruments\ZStack-CC2530-2.5.1a\Projects\zstack\ /
//                          Samples\GenericApp\CC2531\..\..\..\..\..\Componen /
//                          ts\mac\low_level\srf04\" -I "C:\Texas             /
//                          Instruments\ZStack-CC2530-2.5.1a\Projects\zstack\ /
//                          Samples\GenericApp\CC2531\..\..\..\..\..\Componen /
//                          ts\mac\low_level\srf04\single_chip\" -I           /
//                          "C:\Texas Instruments\ZStack-CC2530-2.5.1a\Projec /
//                          ts\zstack\Samples\GenericApp\CC2531\..\..\..\..\. /
//                          .\Components\mt\" -I "C:\Texas                    /
//                          Instruments\ZStack-CC2530-2.5.1a\Projects\zstack\ /
//                          Samples\GenericApp\CC2531\..\..\..\..\..\Componen /
//                          ts\osal\include\" -I "C:\Texas                    /
//                          Instruments\ZStack-CC2530-2.5.1a\Projects\zstack\ /
//                          Samples\GenericApp\CC2531\..\..\..\..\..\Componen /
//                          ts\services\saddr\" -I "C:\Texas                  /
//                          Instruments\ZStack-CC2530-2.5.1a\Projects\zstack\ /
//                          Samples\GenericApp\CC2531\..\..\..\..\..\Componen /
//                          ts\services\sdata\" -I "C:\Texas                  /
//                          Instruments\ZStack-CC2530-2.5.1a\Projects\zstack\ /
//                          Samples\GenericApp\CC2531\..\..\..\..\..\Componen /
//                          ts\stack\af\" -I "C:\Texas                        /
//                          Instruments\ZStack-CC2530-2.5.1a\Projects\zstack\ /
//                          Samples\GenericApp\CC2531\..\..\..\..\..\Componen /
//                          ts\stack\nwk\" -I "C:\Texas                       /
//                          Instruments\ZStack-CC2530-2.5.1a\Projects\zstack\ /
//                          Samples\GenericApp\CC2531\..\..\..\..\..\Componen /
//                          ts\stack\sapi\" -I "C:\Texas                      /
//                          Instruments\ZStack-CC2530-2.5.1a\Projects\zstack\ /
//                          Samples\GenericApp\CC2531\..\..\..\..\..\Componen /
//                          ts\stack\sec\" -I "C:\Texas                       /
//                          Instruments\ZStack-CC2530-2.5.1a\Projects\zstack\ /
//                          Samples\GenericApp\CC2531\..\..\..\..\..\Componen /
//                          ts\stack\sys\" -I "C:\Texas                       /
//                          Instruments\ZStack-CC2530-2.5.1a\Projects\zstack\ /
//                          Samples\GenericApp\CC2531\..\..\..\..\..\Componen /
//                          ts\stack\zdo\" -I "C:\Texas                       /
//                          Instruments\ZStack-CC2530-2.5.1a\Projects\zstack\ /
//                          Samples\GenericApp\CC2531\..\..\..\..\..\Componen /
//                          ts\zmac\" -I "C:\Texas Instruments\ZStack-CC2530- /
//                          2.5.1a\Projects\zstack\Samples\GenericApp\CC2531\ /
//                          ..\..\..\..\..\Components\zmac\f8w\" -I           /
//                          "C:\Texas Instruments\ZStack-CC2530-2.5.1a\Projec /
//                          ts\zstack\Samples\GenericApp\CC2531\..\..\weikong /
//                          \Source\" -Ohz --require_prototypes               /
//    List file          =  C:\Texas Instruments\ZStack-CC2530-2.5.1a\Project /
//                          s\zstack\Samples\GenericApp\CC2531\Router\List\ha /
//                          l_assert.s51                                      /
//                                                                            /
//                                                                            /
///////////////////////////////////////////////////////////////////////////////

        NAME hal_assert

        RTMODEL "__SystemLibrary", "CLib"
        RTMODEL "__calling_convention", "xdata_reentrant"
        RTMODEL "__code_model", "banked"
        RTMODEL "__core", "plain"
        RTMODEL "__data_model", "large"
        RTMODEL "__dptr_size", "16"
        RTMODEL "__extended_stack", "disabled"
        RTMODEL "__location_for_constants", "data"
        RTMODEL "__number_of_dptrs", "1"
        RTMODEL "__rt_version", "1"

        RSEG DOVERLAY:DATA:NOROOT(0)
        RSEG IOVERLAY:IDATA:NOROOT(0)
        RSEG ISTACK:IDATA:NOROOT(0)
        RSEG PSTACK:XDATA:NOROOT(0)
        RSEG XSTACK:XDATA:NOROOT(0)

        EXTERN ?BDISPATCH
        EXTERN ?BRET

        PUBLIC ??halAssertHandler?relay
        FUNCTION ??halAssertHandler?relay,0203H
        PUBLIC ??halAssertHazardLights?relay
        FUNCTION ??halAssertHazardLights?relay,0203H
        PUBWEAK CLKCONCMD
        PUBWEAK CLKCONSTA
        PUBWEAK SLEEPCMD
        PUBWEAK SLEEPSTA
        PUBWEAK _A_IEN0
        PUBWEAK _A_P0
        PUBWEAK _A_P1
        PUBLIC halAssertHandler
        FUNCTION halAssertHandler,021203H
        ARGFRAME XSTACK, 0, STACK
        LOCFRAME ISTACK, 2, STACK
        PUBLIC halAssertHazardLights
        FUNCTION halAssertHazardLights,080203H
        ARGFRAME XSTACK, 0, STACK
        ARGFRAME IOVERLAY, 0, STATIC
        ARGFRAME DOVERLAY, 0, STATIC
        LOCFRAME ISTACK, 2, STACK
        
        CFI Names cfiNames0
        CFI StackFrame CFA_SP SP IDATA
        CFI StackFrame CFA_PSP16 PSP16 XDATA
        CFI StackFrame CFA_XSP16 XSP16 XDATA
        CFI StaticOverlayFrame CFA_IOVERLAY IOVERLAY
        CFI StaticOverlayFrame CFA_DOVERLAY DOVERLAY
        CFI Resource `PSW.CY`:1, `B.BR0`:1, `B.BR1`:1, `B.BR2`:1, `B.BR3`:1
        CFI Resource `B.BR4`:1, `B.BR5`:1, `B.BR6`:1, `B.BR7`:1, `VB.BR8`:1
        CFI Resource `VB.BR9`:1, `VB.BR10`:1, `VB.BR11`:1, `VB.BR12`:1
        CFI Resource `VB.BR13`:1, `VB.BR14`:1, `VB.BR15`:1, VB:8, B:8, A:8
        CFI Resource PSW:8, DPL0:8, DPH0:8, R0:8, R1:8, R2:8, R3:8, R4:8, R5:8
        CFI Resource R6:8, R7:8, V0:8, V1:8, V2:8, V3:8, V4:8, V5:8, V6:8, V7:8
        CFI Resource V8:8, V9:8, V10:8, V11:8, V12:8, V13:8, V14:8, V15:8, SP:8
        CFI Resource PSPH:8, PSPL:8, PSP16:16, XSPH:8, XSPL:8, XSP16:16
        CFI VirtualResource ?RET:24
        CFI Resource ?BRET_EXT:8
        CFI VirtualResource ?RET_HIGH:8, ?RET_LOW:8
        CFI ResourceParts PSP16 PSPH, PSPL
        CFI ResourceParts XSP16 XSPH, XSPL
        CFI ResourceParts ?RET ?BRET_EXT, ?RET_HIGH, ?RET_LOW
        CFI EndNames cfiNames0
        
        CFI Common cfiCommon0 Using cfiNames0
        CFI CodeAlign 1
        CFI DataAlign -1
        CFI ReturnAddress ?RET CODE
        CFI CFA_DOVERLAY Used
        CFI CFA_IOVERLAY Used
        CFI CFA_SP SP+-3
        CFI CFA_PSP16 PSP16+0
        CFI CFA_XSP16 XSP16+0
        CFI `PSW.CY` SameValue
        CFI `B.BR0` SameValue
        CFI `B.BR1` SameValue
        CFI `B.BR2` SameValue
        CFI `B.BR3` SameValue
        CFI `B.BR4` SameValue
        CFI `B.BR5` SameValue
        CFI `B.BR6` SameValue
        CFI `B.BR7` SameValue
        CFI `VB.BR8` SameValue
        CFI `VB.BR9` SameValue
        CFI `VB.BR10` SameValue
        CFI `VB.BR11` SameValue
        CFI `VB.BR12` SameValue
        CFI `VB.BR13` SameValue
        CFI `VB.BR14` SameValue
        CFI `VB.BR15` SameValue
        CFI VB SameValue
        CFI B Undefined
        CFI A Undefined
        CFI PSW SameValue
        CFI DPL0 SameValue
        CFI DPH0 SameValue
        CFI R0 Undefined
        CFI R1 Undefined
        CFI R2 Undefined
        CFI R3 Undefined
        CFI R4 Undefined
        CFI R5 Undefined
        CFI R6 SameValue
        CFI R7 SameValue
        CFI V0 SameValue
        CFI V1 SameValue
        CFI V2 SameValue
        CFI V3 SameValue
        CFI V4 SameValue
        CFI V5 SameValue
        CFI V6 SameValue
        CFI V7 SameValue
        CFI V8 SameValue
        CFI V9 SameValue
        CFI V10 SameValue
        CFI V11 SameValue
        CFI V12 SameValue
        CFI V13 SameValue
        CFI V14 SameValue
        CFI V15 SameValue
        CFI PSPH Undefined
        CFI PSPL Undefined
        CFI XSPH Undefined
        CFI XSPL Undefined
        CFI ?RET Concat
        CFI ?BRET_EXT Frame(CFA_SP, 3)
        CFI ?RET_HIGH Frame(CFA_SP, 2)
        CFI ?RET_LOW Frame(CFA_SP, 1)
        CFI EndCommon cfiCommon0
        
        
        CFI Common cfiCommon1 Using cfiNames0
        CFI CodeAlign 1
        CFI DataAlign -1
        CFI ReturnAddress ?RET CODE
        CFI CFA_DOVERLAY Used
        CFI CFA_IOVERLAY Used
        CFI CFA_SP SP+-2
        CFI CFA_PSP16 PSP16+0
        CFI CFA_XSP16 XSP16+0
        CFI `PSW.CY` SameValue
        CFI `B.BR0` SameValue
        CFI `B.BR1` SameValue
        CFI `B.BR2` SameValue
        CFI `B.BR3` SameValue
        CFI `B.BR4` SameValue
        CFI `B.BR5` SameValue
        CFI `B.BR6` SameValue
        CFI `B.BR7` SameValue
        CFI `VB.BR8` SameValue
        CFI `VB.BR9` SameValue
        CFI `VB.BR10` SameValue
        CFI `VB.BR11` SameValue
        CFI `VB.BR12` SameValue
        CFI `VB.BR13` SameValue
        CFI `VB.BR14` SameValue
        CFI `VB.BR15` SameValue
        CFI VB SameValue
        CFI B SameValue
        CFI A SameValue
        CFI PSW SameValue
        CFI DPL0 SameValue
        CFI DPH0 SameValue
        CFI R0 SameValue
        CFI R1 SameValue
        CFI R2 SameValue
        CFI R3 SameValue
        CFI R4 SameValue
        CFI R5 SameValue
        CFI R6 SameValue
        CFI R7 SameValue
        CFI V0 SameValue
        CFI V1 SameValue
        CFI V2 SameValue
        CFI V3 SameValue
        CFI V4 SameValue
        CFI V5 SameValue
        CFI V6 SameValue
        CFI V7 SameValue
        CFI V8 SameValue
        CFI V9 SameValue
        CFI V10 SameValue
        CFI V11 SameValue
        CFI V12 SameValue
        CFI V13 SameValue
        CFI V14 SameValue
        CFI V15 SameValue
        CFI PSPH Undefined
        CFI PSPL Undefined
        CFI XSPH Undefined
        CFI XSPL Undefined
        CFI ?RET Concat
        CFI ?BRET_EXT SameValue
        CFI ?RET_HIGH Frame(CFA_SP, 2)
        CFI ?RET_LOW Frame(CFA_SP, 1)
        CFI EndCommon cfiCommon1
        
halAssertHandler    SYMBOL "halAssertHandler"
??halAssertHandler?relay SYMBOL "?relay", halAssertHandler
halAssertHazardLights SYMBOL "halAssertHazardLights"
??halAssertHazardLights?relay SYMBOL "?relay", halAssertHazardLights

// C:\Texas Instruments\ZStack-CC2530-2.5.1a\Components\hal\common\hal_assert.c
//    1 /**************************************************************************************************
//    2   Filename:       hal_assert.c
//    3   Revised:        $Date: 2010-11-22 08:13:43 -0800 (Mon, 22 Nov 2010) $
//    4   Revision:       $Revision: 24480 $
//    5 
//    6   Description:    Describe the purpose and contents of the file.
//    7 
//    8 
//    9   Copyright 2006-2010 Texas Instruments Incorporated. All rights reserved.
//   10 
//   11   IMPORTANT: Your use of this Software is limited to those specific rights
//   12   granted under the terms of a software license agreement between the user
//   13   who downloaded the software, his/her employer (which must be your employer)
//   14   and Texas Instruments Incorporated (the "License").  You may not use this
//   15   Software unless you agree to abide by the terms of the License. The License
//   16   limits your use, and you acknowledge, that the Software may not be modified,
//   17   copied or distributed unless embedded on a Texas Instruments microcontroller
//   18   or used solely and exclusively in conjunction with a Texas Instruments radio
//   19   frequency transceiver, which is integrated into your product.  Other than for
//   20   the foregoing purpose, you may not use, reproduce, copy, prepare derivative
//   21   works of, modify, distribute, perform, display or sell this Software and/or
//   22   its documentation for any purpose.
//   23 
//   24   YOU FURTHER ACKNOWLEDGE AND AGREE THAT THE SOFTWARE AND DOCUMENTATION ARE
//   25   PROVIDED “AS IS?WITHOUT WARRANTY OF ANY KIND, EITHER EXPRESS OR IMPLIED,
//   26   INCLUDING WITHOUT LIMITATION, ANY WARRANTY OF MERCHANTABILITY, TITLE,
//   27   NON-INFRINGEMENT AND FITNESS FOR A PARTICULAR PURPOSE. IN NO EVENT SHALL
//   28   TEXAS INSTRUMENTS OR ITS LICENSORS BE LIABLE OR OBLIGATED UNDER CONTRACT,
//   29   NEGLIGENCE, STRICT LIABILITY, CONTRIBUTION, BREACH OF WARRANTY, OR OTHER
//   30   LEGAL EQUITABLE THEORY ANY DIRECT OR INDIRECT DAMAGES OR EXPENSES
//   31   INCLUDING BUT NOT LIMITED TO ANY INCIDENTAL, SPECIAL, INDIRECT, PUNITIVE
//   32   OR CONSEQUENTIAL DAMAGES, LOST PROFITS OR LOST DATA, COST OF PROCUREMENT
//   33   OF SUBSTITUTE GOODS, TECHNOLOGY, SERVICES, OR ANY CLAIMS BY THIRD PARTIES
//   34   (INCLUDING BUT NOT LIMITED TO ANY DEFENSE THEREOF), OR OTHER SIMILAR COSTS.
//   35 
//   36   Should you have any questions regarding your right to use this Software,
//   37   contact Texas Instruments Incorporated at www.TI.com.
//   38 **************************************************************************************************/
//   39 
//   40 
//   41 /* ------------------------------------------------------------------------------------------------
//   42  *                                          Includes
//   43  * ------------------------------------------------------------------------------------------------
//   44  */
//   45 #include "hal_assert.h"
//   46 #include "hal_types.h"
//   47 #include "hal_board.h"

        ASEGN SFR_AN:DATA:NOROOT,080H
// union <unnamed> volatile __sfr _A_P0
_A_P0:
        DATA8
        DS 1

        ASEGN SFR_AN:DATA:NOROOT,090H
// union <unnamed> volatile __sfr _A_P1
_A_P1:
        DATA8
        DS 1

        ASEGN SFR_AN:DATA:NOROOT,09dH
// unsigned char volatile __sfr SLEEPSTA
SLEEPSTA:
        DATA8
        DS 1

        ASEGN SFR_AN:DATA:NOROOT,09eH
// unsigned char volatile __sfr CLKCONSTA
CLKCONSTA:
        DATA8
        DS 1

        ASEGN SFR_AN:DATA:NOROOT,0a8H
// union <unnamed> volatile __sfr _A_IEN0
_A_IEN0:
        DATA8
        DS 1

        ASEGN SFR_AN:DATA:NOROOT,0beH
// unsigned char volatile __sfr SLEEPCMD
SLEEPCMD:
        DATA8
        DS 1

        ASEGN SFR_AN:DATA:NOROOT,0c6H
// unsigned char volatile __sfr CLKCONCMD
CLKCONCMD:
        DATA8
        DS 1
//   48 #include "hal_defs.h"
//   49 #include "hal_mcu.h"
//   50 
//   51 #if (defined HAL_MCU_AVR) || (defined HAL_MCU_CC2430) || (defined HAL_MCU_CC2530) || \ 
//   52     (defined HAL_MCU_CC2533) || (defined HAL_MCU_MSP430)
//   53   /* for access to debug data */
//   54 #include "mac_rx.h"
//   55 #include "mac_tx.h"
//   56 #endif
//   57 
//   58 /* ------------------------------------------------------------------------------------------------
//   59  *                                       Local Prototypes
//   60  * ------------------------------------------------------------------------------------------------
//   61  */
//   62 void halAssertHazardLights(void);
//   63 
//   64 
//   65 /**************************************************************************************************
//   66  * @fn          halAssertHandler
//   67  *
//   68  * @brief       Logic to handle an assert.
//   69  *
//   70  * @param       none
//   71  *
//   72  * @return      none
//   73  **************************************************************************************************
//   74  */

        RSEG BANKED_CODE:CODE:NOROOT(0)
//   75 void halAssertHandler(void)
halAssertHandler:
        CFI Block cfiBlock0 Using cfiCommon0
        CFI Function halAssertHandler
        CODE
//   76 {
        FUNCALL halAssertHandler, halAssertHazardLights
        LOCFRAME ISTACK, 2, STACK
        LOCFRAME PSTACK, 0, STACK
        LOCFRAME XSTACK, 0, STACK
        LOCFRAME IOVERLAY, 0, STATIC
        LOCFRAME DOVERLAY, 0, STATIC
        ARGFRAME ISTACK, 2, STACK
        ARGFRAME PSTACK, 0, STACK
        ARGFRAME XSTACK, 0, STACK
        ARGFRAME IOVERLAY, 0, STATIC
        ARGFRAME DOVERLAY, 0, STATIC
        PUSH    DPL
        CFI DPL0 Frame(CFA_SP, 4)
        CFI CFA_SP SP+-4
        PUSH    DPH
        CFI DPH0 Frame(CFA_SP, 5)
        CFI CFA_SP SP+-5
        ; Saved register size: 2
        ; Auto size: 0
//   77   /* execute code that handles asserts */
//   78 #ifdef ASSERT_RESET
//   79   HAL_SYSTEM_RESET();
//   80 #elif !defined ASSERT_WHILE
//   81   halAssertHazardLights();
        ; Setup parameters for call to function halAssertHazardLights
        LCALL   ??halAssertHazardLights?relay
//   82 #else
//   83   while(1);
//   84 #endif
//   85 }
        POP     DPH
        CFI DPH0 SameValue
        CFI CFA_SP SP+-4
        POP     DPL
        CFI DPL0 SameValue
        CFI CFA_SP SP+-3
        LJMP    ?BRET
        CFI EndBlock cfiBlock0
//   86 
//   87 #if !defined ASSERT_WHILE
//   88 /**************************************************************************************************
//   89  * @fn          halAssertHazardLights
//   90  *
//   91  * @brief       Blink LEDs to indicate an error.
//   92  *
//   93  * @param       none
//   94  *
//   95  * @return      none
//   96  **************************************************************************************************
//   97  */

        RSEG BANKED_CODE:CODE:NOROOT(0)
//   98 void halAssertHazardLights(void)
halAssertHazardLights:
        CFI Block cfiBlock1 Using cfiCommon0
        CFI Function halAssertHazardLights
        CODE
//   99 {
        PUSH    DPL
        CFI DPL0 Frame(CFA_SP, 4)
        CFI CFA_SP SP+-4
        PUSH    DPH
        CFI DPH0 Frame(CFA_SP, 5)
        CFI CFA_SP SP+-5
        ; Saved register size: 2
        ; Auto size: 0
//  100   enum
//  101   {
//  102     DEBUG_DATA_RSTACK_HIGH_OFS,
//  103     DEBUG_DATA_RSTACK_LOW_OFS,
//  104     DEBUG_DATA_TX_ACTIVE_OFS,
//  105     DEBUG_DATA_RX_ACTIVE_OFS,
//  106 
//  107 #if (defined HAL_MCU_AVR) || (defined HAL_MCU_CC2430)
//  108     DEBUG_DATA_INT_MASK_OFS,
//  109 #elif (defined HAL_MCU_CC2530) || (defined HAL_MCU_CC2533)
//  110     DEBUG_DATA_INT_MASK0_OFS,
//  111     DEBUG_DATA_INT_MASK1_OFS,
//  112 #endif
//  113 
//  114     DEBUG_DATA_SIZE
//  115   };
//  116 
//  117   uint8 buttonHeld;
//  118   uint8 debugData[DEBUG_DATA_SIZE];
//  119 
//  120   /* disable all interrupts before anything else */
//  121   HAL_DISABLE_INTERRUPTS();
        CLR     0xa8.7
//  122 
//  123   /*-------------------------------------------------------------------------------
//  124    *  Initialize LEDs and turn them off.
//  125    */
//  126   HAL_BOARD_INIT();
        ANL     0xbe,#0xfb
??halAssertHazardLights_0:
        MOV     A,0x9d
        MOV     C,0xE0 /* A   */.6
        JNC     ??halAssertHazardLights_0
        NOP
        MOV     R0,#-0x8
        MOV     R1,#0x1
??halAssertHazardLights_1:
        NOP
        MOV     A,R0
        ADD     A,#-0x1
        DEC     R0
        MOV     A,R1
        ADDC    A,#-0x1
        MOV     R1,A
        MOV     A,R0
        ORL     A,R1
        JNZ     ??halAssertHazardLights_1
        MOV     0xc6,#-0x80
??halAssertHazardLights_2:
        MOV     A,#-0x80
        XRL     A,0x9e
        JNZ     ??halAssertHazardLights_2
        ORL     0xbe,#0x4
        MOV     DPTR,#0x6270
        MOV     A,#0x8
        MOVX    @DPTR,A
//  127 
//  128 	
//  129   HAL_TURN_OFF_LED1();
        CLR     0x90.0
//  130   HAL_TURN_OFF_LED2();
        CLR     0x90.1
//  131   HAL_TURN_OFF_LED3();
        CLR     0x80.6
//  132   HAL_TURN_OFF_LED4();
        CLR     0x80.7
//  133 	
//  134   /*------------------------------------------------------------------------------
//  135    *  Master infinite loop.
//  136    */
//  137   for (;;)
//  138   {
//  139     buttonHeld = 0;
//  140 
//  141     /*-------------------------------------------------------------------------------
//  142      *  "Hazard lights" loop.  A held keypress will exit this loop.
//  143      */
//  144     /*
//  145     do
//  146     {
//  147 //      HAL_LED_BLINK_DELAY(); //czv7
//  148 
//  149 #if (HAL_NUM_LEDS >= 1)
//  150       //HAL_TOGGLE_LED1();
//  151 #if (HAL_NUM_LEDS >= 2)
//  152       //HAL_TOGGLE_LED2();
//  153 #if (HAL_NUM_LEDS >= 3)
//  154       //HAL_TOGGLE_LED3();
//  155 #if (HAL_NUM_LEDS >= 4)
//  156       //HAL_TOGGLE_LED4();
//  157       
//  158 #endif
//  159 #endif
//  160 #endif
//  161 #endif
//  162 
//  163       {
//  164         static uint8 escape = 0;
//  165         if (escape)
//  166         {
//  167           escape = 0;
//  168           return;
//  169         }
//  170       }
//  171 
//  172    
//  173       if (HAL_PUSH_BUTTON1())
//  174       {
//  175         buttonHeld++;
//  176       }
//  177       else
//  178       {
//  179         buttonHeld = 0;
//  180       }
//  181     }
//  182     while (buttonHeld != 10);  
//  183   
//  184     */
//  185     /*-------------------------------------------------------------------------------
//  186      *  Just exited from "hazard lights" loop.
//  187      */
//  188 
//  189     /* turn off all LEDs */
//  190 	/*
//  191     HAL_TURN_OFF_LED1();
//  192     HAL_TURN_OFF_LED2();
//  193     HAL_TURN_OFF_LED3();
//  194     HAL_TURN_OFF_LED4();
//  195 	*/
//  196     /* wait for button release */
//  197     HAL_DEBOUNCE(!HAL_PUSH_BUTTON1());
??halAssertHazardLights_3:
        MOV     R0,#0x0
        MOV     R1,#0x0
??halAssertHazardLights_4:
        MOV     C,0x80.0
        JNC     ??halAssertHazardLights_5
        MOV     R0,#0x0
        MOV     R1,#0x0
??halAssertHazardLights_5:
        LCALL   ?Subroutine0 & 0xFFFF
??CrossCallReturnLabel_0:
        JC      ??halAssertHazardLights_4
//  198 
//  199     /*-------------------------------------------------------------------------------
//  200      *  Load debug data into memory.
//  201      */
//  202 #ifdef HAL_MCU_AVR
//  203     {
//  204       uint8 * pStack;
//  205       pStack = (uint8 *) SP;
//  206       pStack++; /* point to return address on stack */
//  207       debugData[DEBUG_DATA_RSTACK_HIGH_OFS] = *pStack;
//  208       pStack++;
//  209       debugData[DEBUG_DATA_RSTACK_LOW_OFS] = *pStack;
//  210     }
//  211     debugData[DEBUG_DATA_INT_MASK_OFS] = EIMSK;
//  212 #endif
//  213 
//  214 #if (defined HAL_MCU_CC2430)
//  215     debugData[DEBUG_DATA_INT_MASK_OFS] = RFIM;
//  216 #elif (defined HAL_MCU_CC2530) || (defined HAL_MCU_CC2533)
//  217     debugData[DEBUG_DATA_INT_MASK0_OFS] = RFIRQM0;
        MOV     DPTR,#0x61a3
        MOVX    A,@DPTR
//  218     debugData[DEBUG_DATA_INT_MASK1_OFS] = RFIRQM1;
        INC     DPTR
        MOVX    A,@DPTR
//  219 #endif
//  220 
//  221 
//  222 #if (defined HAL_MCU_AVR) || (defined HAL_MCU_CC2430) || (defined HAL_MCU_CC2530) || \ 
//  223     (defined HAL_MCU_CC2533) || (defined HAL_MCU_MSP430)
//  224     debugData[DEBUG_DATA_TX_ACTIVE_OFS] = macTxActive;
//  225     debugData[DEBUG_DATA_RX_ACTIVE_OFS] = macRxActive;
//  226 #endif
//  227 
//  228    /* initialize for data dump loop */
//  229     {
//  230       uint8 iBit;
//  231       uint8 iByte;
//  232 
//  233       iBit  = 0;
        MOV     R3,#0x0
//  234       iByte = 0;
        MOV     R2,#0x0
//  235 
//  236       /*-------------------------------------------------------------------------------
//  237        *  Data dump loop.  A button press cycles data bits to an LED.
//  238        */
//  239       while (iByte < DEBUG_DATA_SIZE)
//  240       {
//  241         /* wait for key press */
//  242         while(!HAL_PUSH_BUTTON1());
??halAssertHazardLights_6:
        MOV     C,0x80.0
        JNC     ??halAssertHazardLights_6
//  243 
//  244         /* turn on all LEDs for first bit of byte, turn on three LEDs if not first bit */
//  245         /*
//  246         HAL_TURN_ON_LED1();
//  247         HAL_TURN_ON_LED2();
//  248         HAL_TURN_ON_LED3();
//  249         */
//  250         if (iBit == 0)
//  251         {
//  252           //HAL_TURN_ON_LED4();
//  253         }
//  254         else
//  255         {
//  256           //HAL_TURN_OFF_LED4();
//  257         }
//  258 
//  259         /* wait for debounced key release */
//  260         HAL_DEBOUNCE(!HAL_PUSH_BUTTON1());
        MOV     R0,#0x0
        MOV     R1,#0x0
??halAssertHazardLights_7:
        MOV     C,0x80.0
        JNC     ??halAssertHazardLights_8
        MOV     R0,#0x0
        MOV     R1,#0x0
??halAssertHazardLights_8:
        LCALL   ?Subroutine0 & 0xFFFF
??CrossCallReturnLabel_1:
        JC      ??halAssertHazardLights_7
//  261 
//  262         /* turn off all LEDs */
//  263 		/*
//  264         HAL_TURN_OFF_LED1();
//  265         HAL_TURN_OFF_LED2();
//  266         HAL_TURN_OFF_LED3();
//  267         HAL_TURN_OFF_LED4();
//  268 		*/
//  269         /* output value of data bit to LED1 */
//  270         if (debugData[iByte] & (1 << (7 - iBit)))
//  271         {
//  272           //HAL_TURN_ON_LED1();
//  273         }
//  274         else
//  275         {
//  276           //HAL_TURN_OFF_LED1();
//  277         }
//  278 
//  279         /* advance to next bit */
//  280         iBit++;
        INC     R3
//  281         if (iBit == 8)
        MOV     A,#0x8
        XRL     A,R3
        JNZ     ??halAssertHazardLights_6
//  282         {
//  283           iBit = 0;
        MOV     R3,#0x0
//  284           iByte++;
        INC     R2
//  285         }
//  286       }
        MOV     A,R2
        CLR     C
        SUBB    A,#0x6
        JC      ??halAssertHazardLights_6
//  287     }
//  288 
//  289     /*
//  290      *  About to enter "hazard lights" loop again.  Turn off LED1 in case the last bit
//  291      *  displayed happened to be one.  This guarantees all LEDs are off at the start of
//  292      *  the flashing loop which uses a toggle operation to change LED states.
//  293      */
//  294     HAL_TURN_OFF_LED1();
        CLR     0x90.0
        SJMP    ??halAssertHazardLights_3
        CFI EndBlock cfiBlock1
        REQUIRE _A_IEN0
        REQUIRE SLEEPCMD
        REQUIRE SLEEPSTA
        REQUIRE CLKCONCMD
        REQUIRE CLKCONSTA
        REQUIRE _A_P1
        REQUIRE _A_P0
//  295   }
//  296 }

        RSEG BANKED_CODE:CODE:NOROOT(0)
?Subroutine0:
        CFI Block cfiCond2 Using cfiCommon0
        CFI NoFunction
        CFI Conditional ??CrossCallReturnLabel_0
        CFI DPL0 Frame(CFA_SP, 4)
        CFI DPH0 Frame(CFA_SP, 5)
        CFI CFA_SP SP+-5
        CFI Block cfiCond3 Using cfiCommon0
        CFI (cfiCond3) NoFunction
        CFI (cfiCond3) Conditional ??CrossCallReturnLabel_1
        CFI (cfiCond3) DPL0 Frame(CFA_SP, 4)
        CFI (cfiCond3) DPH0 Frame(CFA_SP, 5)
        CFI (cfiCond3) CFA_SP SP+-5
        CFI Block cfiPicker4 Using cfiCommon1
        CFI (cfiPicker4) NoFunction
        CFI (cfiPicker4) Picker
        MOV     A,R0
        ADD     A,#0x1
        INC     R0
        MOV     A,R1
        ADDC    A,#0x0
        MOV     R1,A
        CLR     C
        MOV     A,R0
        SUBB    A,#-0xc
        MOV     A,R1
        SUBB    A,#0x1
        MOV     C,0xD0 /* PSW */.2
        XRL     A,PSW
        RLC     A
        RET
        CFI EndBlock cfiCond2
        CFI EndBlock cfiCond3
        CFI EndBlock cfiPicker4

        RSEG BANK_RELAYS:CODE:REORDER:NOROOT(0)
??halAssertHandler?relay:
        LCALL   ?BDISPATCH
        DATA
        DC24    halAssertHandler

        RSEG BANK_RELAYS:CODE:REORDER:NOROOT(0)
??halAssertHazardLights?relay:
        LCALL   ?BDISPATCH
        DATA
        DC24    halAssertHazardLights

        END
//  297 #endif
//  298 
//  299 /* ------------------------------------------------------------------------------------------------
//  300  *                                    Compile Time Assertions
//  301  * ------------------------------------------------------------------------------------------------
//  302  */
//  303 
//  304 /* integrity check of type sizes */
//  305 HAL_ASSERT_SIZE(  int8, 1);
//  306 HAL_ASSERT_SIZE( uint8, 1);
//  307 HAL_ASSERT_SIZE( int16, 2);
//  308 HAL_ASSERT_SIZE(uint16, 2);
//  309 HAL_ASSERT_SIZE( int32, 4);
//  310 HAL_ASSERT_SIZE(uint32, 4);
//  311 
//  312 
//  313 /**************************************************************************************************
//  314 */
// 
// 161 bytes in segment BANKED_CODE
//  12 bytes in segment BANK_RELAYS
//   7 bytes in segment SFR_AN
// 
// 173 bytes of CODE memory
//   0 bytes of DATA memory (+ 7 bytes shared)
//
//Errors: none
//Warnings: 1
