///////////////////////////////////////////////////////////////////////////////
//                                                                            /
// IAR C/C++ Compiler V8.10.3.40338/W32 for 8051        25/Jan/2015  17:05:48 /
// Copyright 2004-2011 IAR Systems AB.                                        /
//                                                                            /
//    Core               =  plain                                             /
//    Code model         =  banked                                            /
//    Data model         =  large                                             /
//    Calling convention =  xdata reentrant                                   /
//    Constant location  =  data_rom                                          /
//    Dptr setup         =  1,16                                              /
//    Source file        =  C:\Texas Instruments\ZStack-CC2530-2.5.1a\Compone /
//                          nts\mt\MT_UTIL.c                                  /
//    Command line       =  -f "C:\Texas Instruments\ZStack-CC2530-2.5.1a\Pro /
//                          jects\zstack\Samples\GenericApp\CC2531\..\..\..\T /
//                          ools\CC2530DB\f8wRouter.cfg" (-DCPU32MHZ          /
//                          -DROOT=__near_func -DMAC_CFG_APP_PENDING_QUEUE=TR /
//                          UE -DMAC_CFG_TX_DATA_MAX=5 -DMAC_CFG_TX_MAX=8     /
//                          -DMAC_CFG_RX_MAX=5 -DRTR_NWK) -f "C:\Texas        /
//                          Instruments\ZStack-CC2530-2.5.1a\Projects\zstack\ /
//                          Samples\GenericApp\CC2531\..\..\..\Tools\CC2530DB /
//                          \f8wConfig.cfg" (-DZIGBEEPRO -DSECURE=0           /
//                          -DZG_SECURE_DYNAMIC=0 -DREFLECTOR                 /
//                          -DDEFAULT_CHANLIST=0x00000800                     /
//                          -DZDAPP_CONFIG_PAN_ID=0xFFFF                      /
//                          -DNWK_START_DELAY=100 -DEXTENDED_JOINING_RANDOM_M /
//                          ASK=0x007F -DBEACON_REQUEST_DELAY=100             /
//                          -DBEACON_REQ_DELAY_MASK=0x00FF                    /
//                          -DLINK_STATUS_JITTER_MASK=0x007F                  /
//                          -DROUTE_EXPIRY_TIME=30 -DAPSC_ACK_WAIT_DURATION_P /
//                          OLLED=3000 -DNWK_INDIRECT_MSG_TIMEOUT=7           /
//                          -DMAX_RREQ_ENTRIES=8 -DAPSC_MAX_FRAME_RETRIES=3   /
//                          -DNWK_MAX_DATA_RETRIES=2                          /
//                          -DMAX_POLL_FAILURE_RETRIES=2 -DMAX_BCAST=9        /
//                          -DAPS_MAX_GROUPS=16 -DMAX_RTG_ENTRIES=40          /
//                          -DNWK_MAX_BINDING_ENTRIES=4                       /
//                          -DMAX_BINDING_CLUSTER_IDS=4                       /
//                          "-DDEFAULT_KEY={0x01, 0x03, 0x05, 0x07, 0x09,     /
//                          0x0B, 0x0D, 0x0F, 0x00, 0x02, 0x04, 0x06, 0x08,   /
//                          0x0A, 0x0C, 0x0D}" -DMAC_MAX_FRAME_SIZE=116       /
//                          -DZDNWKMGR_MIN_TRANSMISSIONS=20 "-DCONST=const    /
//                          __code" -DGENERIC=__generic                       /
//                          -DRFD_RCVC_ALWAYS_ON=FALSE -DPOLL_RATE=1000       /
//                          -DQUEUED_POLL_RATE=100 -DRESPONSE_POLL_RATE=100)  /
//                          -DREJOIN_POLL_RATE=440 "C:\Texas                  /
//                          Instruments\ZStack-CC2530-2.5.1a\Components\mt\MT /
//                          _UTIL.c" -D ZTOOL_P1 -D MT_TASK -D MT_AF_FUNC -D  /
//                          MT_AF_CB_FUNC -D MT_APP_FUNC -D MT_DEBUG_FUNC -D  /
//                          MT_NWK_FUNC -D MT_NWK_CB_FUNC -D MT_SYS_FUNC -D   /
//                          MT_SYS_FUNC -D MT_ZDO_FUNC -D MT_UTIL_FUNC -D     /
//                          MT_ZDO_CB_FUNC -D MT_ZDO_MGMT -D                  /
//                          LCD_SUPPORTED=FALSE -D HAL_LCD=FALSE -D           /
//                          HAL_LED=FALSE -D GUU_HAL_LED=TRUE -D NV_INIT -D   /
//                          NV_RESTORE -D xPOWER_SAVING -lC "C:\Texas         /
//                          Instruments\ZStack-CC2530-2.5.1a\Projects\zstack\ /
//                          Samples\GenericApp\CC2531\Router\List\" -lA       /
//                          "C:\Texas Instruments\ZStack-CC2530-2.5.1a\Projec /
//                          ts\zstack\Samples\GenericApp\CC2531\Router\List\" /
//                           --diag_suppress Pe001,Pa010 -o "C:\Texas         /
//                          Instruments\ZStack-CC2530-2.5.1a\Projects\zstack\ /
//                          Samples\GenericApp\CC2531\Router\Obj\" -e         /
//                          --no_code_motion --debug --core=plain             /
//                          --dptr=16,1 --data_model=large                    /
//                          --code_model=banked --calling_convention=xdata_re /
//                          entrant --place_constants=data_rom                /
//                          --nr_virtual_regs 16 -I "C:\Texas                 /
//                          Instruments\ZStack-CC2530-2.5.1a\Projects\zstack\ /
//                          Samples\GenericApp\CC2531\" -I "C:\Texas          /
//                          Instruments\ZStack-CC2530-2.5.1a\Projects\zstack\ /
//                          Samples\GenericApp\CC2531\..\Source\" -I          /
//                          "C:\Texas Instruments\ZStack-CC2530-2.5.1a\Projec /
//                          ts\zstack\Samples\GenericApp\CC2531\..\..\..\ZMai /
//                          n\TI2530DB\" -I "C:\Texas                         /
//                          Instruments\ZStack-CC2530-2.5.1a\Projects\zstack\ /
//                          Samples\GenericApp\CC2531\..\..\..\..\..\Componen /
//                          ts\hal\include\" -I "C:\Texas                     /
//                          Instruments\ZStack-CC2530-2.5.1a\Projects\zstack\ /
//                          Samples\GenericApp\CC2531\..\..\..\..\..\Componen /
//                          ts\hal\target\CC2530USB\" -I "C:\Texas            /
//                          Instruments\ZStack-CC2530-2.5.1a\Projects\zstack\ /
//                          Samples\GenericApp\CC2531\..\..\..\..\..\Componen /
//                          ts\hal\target\CC2530USB\usb\library\" -I          /
//                          "C:\Texas Instruments\ZStack-CC2530-2.5.1a\Projec /
//                          ts\zstack\Samples\GenericApp\CC2531\..\..\..\..\. /
//                          .\Components\hal\target\CC2530USB\usb\library\cc2 /
//                          531\" -I "C:\Texas Instruments\ZStack-CC2530-2.5. /
//                          1a\Projects\zstack\Samples\GenericApp\CC2531\..\. /
//                          .\..\..\..\Components\hal\target\CC2530USB\usb\cl /
//                          ass_cdc\" -I "C:\Texas Instruments\ZStack-CC2530- /
//                          2.5.1a\Projects\zstack\Samples\GenericApp\CC2531\ /
//                          ..\..\..\..\..\Components\mac\include\" -I        /
//                          "C:\Texas Instruments\ZStack-CC2530-2.5.1a\Projec /
//                          ts\zstack\Samples\GenericApp\CC2531\..\..\..\..\. /
//                          .\Components\mac\high_level\" -I "C:\Texas        /
//                          Instruments\ZStack-CC2530-2.5.1a\Projects\zstack\ /
//                          Samples\GenericApp\CC2531\..\..\..\..\..\Componen /
//                          ts\mac\low_level\srf04\" -I "C:\Texas             /
//                          Instruments\ZStack-CC2530-2.5.1a\Projects\zstack\ /
//                          Samples\GenericApp\CC2531\..\..\..\..\..\Componen /
//                          ts\mac\low_level\srf04\single_chip\" -I           /
//                          "C:\Texas Instruments\ZStack-CC2530-2.5.1a\Projec /
//                          ts\zstack\Samples\GenericApp\CC2531\..\..\..\..\. /
//                          .\Components\mt\" -I "C:\Texas                    /
//                          Instruments\ZStack-CC2530-2.5.1a\Projects\zstack\ /
//                          Samples\GenericApp\CC2531\..\..\..\..\..\Componen /
//                          ts\osal\include\" -I "C:\Texas                    /
//                          Instruments\ZStack-CC2530-2.5.1a\Projects\zstack\ /
//                          Samples\GenericApp\CC2531\..\..\..\..\..\Componen /
//                          ts\services\saddr\" -I "C:\Texas                  /
//                          Instruments\ZStack-CC2530-2.5.1a\Projects\zstack\ /
//                          Samples\GenericApp\CC2531\..\..\..\..\..\Componen /
//                          ts\services\sdata\" -I "C:\Texas                  /
//                          Instruments\ZStack-CC2530-2.5.1a\Projects\zstack\ /
//                          Samples\GenericApp\CC2531\..\..\..\..\..\Componen /
//                          ts\stack\af\" -I "C:\Texas                        /
//                          Instruments\ZStack-CC2530-2.5.1a\Projects\zstack\ /
//                          Samples\GenericApp\CC2531\..\..\..\..\..\Componen /
//                          ts\stack\nwk\" -I "C:\Texas                       /
//                          Instruments\ZStack-CC2530-2.5.1a\Projects\zstack\ /
//                          Samples\GenericApp\CC2531\..\..\..\..\..\Componen /
//                          ts\stack\sapi\" -I "C:\Texas                      /
//                          Instruments\ZStack-CC2530-2.5.1a\Projects\zstack\ /
//                          Samples\GenericApp\CC2531\..\..\..\..\..\Componen /
//                          ts\stack\sec\" -I "C:\Texas                       /
//                          Instruments\ZStack-CC2530-2.5.1a\Projects\zstack\ /
//                          Samples\GenericApp\CC2531\..\..\..\..\..\Componen /
//                          ts\stack\sys\" -I "C:\Texas                       /
//                          Instruments\ZStack-CC2530-2.5.1a\Projects\zstack\ /
//                          Samples\GenericApp\CC2531\..\..\..\..\..\Componen /
//                          ts\stack\zdo\" -I "C:\Texas                       /
//                          Instruments\ZStack-CC2530-2.5.1a\Projects\zstack\ /
//                          Samples\GenericApp\CC2531\..\..\..\..\..\Componen /
//                          ts\zmac\" -I "C:\Texas Instruments\ZStack-CC2530- /
//                          2.5.1a\Projects\zstack\Samples\GenericApp\CC2531\ /
//                          ..\..\..\..\..\Components\zmac\f8w\" -I           /
//                          "C:\Texas Instruments\ZStack-CC2530-2.5.1a\Projec /
//                          ts\zstack\Samples\GenericApp\CC2531\..\..\weikong /
//                          \Source\" -Ohz --require_prototypes               /
//    List file          =  C:\Texas Instruments\ZStack-CC2530-2.5.1a\Project /
//                          s\zstack\Samples\GenericApp\CC2531\Router\List\MT /
//                          _UTIL.s51                                         /
//                                                                            /
//                                                                            /
///////////////////////////////////////////////////////////////////////////////

        NAME MT_UTIL

        RTMODEL "__SystemLibrary", "CLib"
        RTMODEL "__calling_convention", "xdata_reentrant"
        RTMODEL "__code_model", "banked"
        RTMODEL "__core", "plain"
        RTMODEL "__data_model", "large"
        RTMODEL "__dptr_size", "16"
        RTMODEL "__extended_stack", "disabled"
        RTMODEL "__location_for_constants", "data"
        RTMODEL "__number_of_dptrs", "1"
        RTMODEL "__rt_version", "1"

        RSEG DOVERLAY:DATA:NOROOT(0)
        RSEG IOVERLAY:IDATA:NOROOT(0)
        RSEG ISTACK:IDATA:NOROOT(0)
        RSEG PSTACK:XDATA:NOROOT(0)
        RSEG XSTACK:XDATA:NOROOT(0)

        EXTERN ?ALLOC_XSTACK8
        EXTERN ?BANKED_ENTER_XDATA
        EXTERN ?BANKED_LEAVE_XDATA
        EXTERN ?BDISPATCH
        EXTERN ?BRET
        EXTERN ?DEALLOC_XSTACK8
        EXTERN ?L_ADD
        EXTERN ?L_MOV_TO_X
        EXTERN ?L_MOV_X
        EXTERN ?L_SHL
        EXTERN ?PUSH_XSTACK_I_THREE
        EXTERN ?PUSH_XSTACK_I_TWO
        EXTERN ?UL_DIV_MOD
        EXTERN ?UL_SHR
        EXTERN ?V0
        EXTERN ?XLOAD_R2345
        EXTERN ?XSP
        EXTERN ?XSTACK_DISP0_8
        EXTERN ?XSTORE_R2345

        FUNCTION ??MT_UtilAddrMgrEntryLookupExt?relay,0203H
        FUNCTION ??MT_UtilAssocFindDevice?relay,0203H
        FUNCTION ??MT_UtilAssocGetWithAddress?relay,0203H
        PUBLIC ??MT_UtilCallbackSub?relay
        FUNCTION ??MT_UtilCallbackSub?relay,0203H
        PUBLIC ??MT_UtilCommandProcessing?relay
        FUNCTION ??MT_UtilCommandProcessing?relay,0203H
        PUBLIC ??MT_UtilDataReq?relay
        FUNCTION ??MT_UtilDataReq?relay,0203H
        PUBLIC ??MT_UtilGetDeviceInfo?relay
        FUNCTION ??MT_UtilGetDeviceInfo?relay,0203H
        PUBLIC ??MT_UtilGetNvInfo?relay
        FUNCTION ??MT_UtilGetNvInfo?relay,0203H
        PUBLIC ??MT_UtilKeyEvent?relay
        FUNCTION ??MT_UtilKeyEvent?relay,0203H
        PUBLIC ??MT_UtilLedControl?relay
        FUNCTION ??MT_UtilLedControl?relay,0203H
        PUBLIC ??MT_UtilSetChannels?relay
        FUNCTION ??MT_UtilSetChannels?relay,0203H
        PUBLIC ??MT_UtilSetPanID?relay
        FUNCTION ??MT_UtilSetPanID?relay,0203H
        PUBLIC ??MT_UtilSetPreCfgKey?relay
        FUNCTION ??MT_UtilSetPreCfgKey?relay,0203H
        PUBLIC ??MT_UtilSetSecLevel?relay
        FUNCTION ??MT_UtilSetSecLevel?relay,0203H
        PUBLIC ??MT_UtilSrcMatchAckAllPending?relay
        FUNCTION ??MT_UtilSrcMatchAckAllPending?relay,0203H
        PUBLIC ??MT_UtilSrcMatchAddEntry?relay
        FUNCTION ??MT_UtilSrcMatchAddEntry?relay,0203H
        PUBLIC ??MT_UtilSrcMatchCheckAllPending?relay
        FUNCTION ??MT_UtilSrcMatchCheckAllPending?relay,0203H
        PUBLIC ??MT_UtilSrcMatchCheckSrcAddr?relay
        FUNCTION ??MT_UtilSrcMatchCheckSrcAddr?relay,0203H
        PUBLIC ??MT_UtilSrcMatchDeleteEntry?relay
        FUNCTION ??MT_UtilSrcMatchDeleteEntry?relay,0203H
        PUBLIC ??MT_UtilSrcMatchEnable?relay
        FUNCTION ??MT_UtilSrcMatchEnable?relay,0203H
        PUBLIC ??MT_UtilTimeAlive?relay
        FUNCTION ??MT_UtilTimeAlive?relay,0203H
        FUNCTION ??packDev_t?relay,0203H
        FUNCTION MT_UtilAddrMgrEntryLookupExt,021203H
        ARGFRAME XSTACK, 37, STACK
        ARGFRAME IOVERLAY, 0, STATIC
        ARGFRAME DOVERLAY, 0, STATIC
        LOCFRAME ISTACK, 1, STACK
        LOCFRAME XSTACK, 29, STACK
        FUNCTION MT_UtilAssocFindDevice,021203H
        ARGFRAME XSTACK, 37, STACK
        ARGFRAME IOVERLAY, 0, STATIC
        ARGFRAME DOVERLAY, 0, STATIC
        LOCFRAME XSTACK, 27, STACK
        FUNCTION MT_UtilAssocGetWithAddress,021203H
        ARGFRAME XSTACK, 37, STACK
        ARGFRAME IOVERLAY, 0, STATIC
        ARGFRAME DOVERLAY, 0, STATIC
        LOCFRAME XSTACK, 27, STACK
        PUBLIC MT_UtilCallbackSub
        FUNCTION MT_UtilCallbackSub,021203H
        ARGFRAME XSTACK, 37, STACK
        ARGFRAME IOVERLAY, 0, STATIC
        ARGFRAME DOVERLAY, 0, STATIC
        LOCFRAME XSTACK, 10, STACK
        PUBLIC MT_UtilCommandProcessing
        FUNCTION MT_UtilCommandProcessing,021203H
        ARGFRAME XSTACK, 0, STACK
        LOCFRAME ISTACK, 1, STACK
        LOCFRAME XSTACK, 40, STACK
        PUBLIC MT_UtilDataReq
        FUNCTION MT_UtilDataReq,021203H
        ARGFRAME XSTACK, 37, STACK
        ARGFRAME IOVERLAY, 0, STATIC
        ARGFRAME DOVERLAY, 0, STATIC
        LOCFRAME ISTACK, 3, STACK
        LOCFRAME XSTACK, 1, STACK
        PUBLIC MT_UtilGetDeviceInfo
        FUNCTION MT_UtilGetDeviceInfo,021203H
        ARGFRAME XSTACK, 37, STACK
        ARGFRAME IOVERLAY, 0, STATIC
        ARGFRAME DOVERLAY, 0, STATIC
        LOCFRAME ISTACK, 1, STACK
        LOCFRAME XSTACK, 21, STACK
        PUBLIC MT_UtilGetNvInfo
        FUNCTION MT_UtilGetNvInfo,021203H
        ARGFRAME XSTACK, 37, STACK
        ARGFRAME IOVERLAY, 0, STATIC
        ARGFRAME DOVERLAY, 0, STATIC
        LOCFRAME ISTACK, 1, STACK
        LOCFRAME XSTACK, 26, STACK
        PUBLIC MT_UtilKeyEvent
        FUNCTION MT_UtilKeyEvent,021203H
        ARGFRAME XSTACK, 37, STACK
        ARGFRAME IOVERLAY, 0, STATIC
        ARGFRAME DOVERLAY, 0, STATIC
        LOCFRAME ISTACK, 1, STACK
        LOCFRAME XSTACK, 10, STACK
        PUBLIC MT_UtilLedControl
        FUNCTION MT_UtilLedControl,021203H
        ARGFRAME XSTACK, 37, STACK
        ARGFRAME IOVERLAY, 0, STATIC
        ARGFRAME DOVERLAY, 0, STATIC
        LOCFRAME XSTACK, 10, STACK
        PUBLIC MT_UtilSetChannels
        FUNCTION MT_UtilSetChannels,021203H
        ARGFRAME XSTACK, 37, STACK
        ARGFRAME IOVERLAY, 0, STATIC
        ARGFRAME DOVERLAY, 0, STATIC
        LOCFRAME ISTACK, 1, STACK
        LOCFRAME XSTACK, 29, STACK
        PUBLIC MT_UtilSetPanID
        FUNCTION MT_UtilSetPanID,021203H
        ARGFRAME XSTACK, 37, STACK
        ARGFRAME IOVERLAY, 0, STATIC
        ARGFRAME DOVERLAY, 0, STATIC
        LOCFRAME ISTACK, 1, STACK
        LOCFRAME XSTACK, 17, STACK
        PUBLIC MT_UtilSetPreCfgKey
        FUNCTION MT_UtilSetPreCfgKey,021203H
        ARGFRAME XSTACK, 37, STACK
        ARGFRAME IOVERLAY, 0, STATIC
        ARGFRAME DOVERLAY, 0, STATIC
        LOCFRAME ISTACK, 1, STACK
        LOCFRAME XSTACK, 15, STACK
        PUBLIC MT_UtilSetSecLevel
        FUNCTION MT_UtilSetSecLevel,021203H
        ARGFRAME XSTACK, 37, STACK
        ARGFRAME IOVERLAY, 0, STATIC
        ARGFRAME DOVERLAY, 0, STATIC
        LOCFRAME ISTACK, 1, STACK
        LOCFRAME XSTACK, 15, STACK
        PUBLIC MT_UtilSrcMatchAckAllPending
        FUNCTION MT_UtilSrcMatchAckAllPending,021203H
        ARGFRAME XSTACK, 37, STACK
        ARGFRAME IOVERLAY, 0, STATIC
        ARGFRAME DOVERLAY, 0, STATIC
        LOCFRAME ISTACK, 2, STACK
        LOCFRAME XSTACK, 1, STACK
        PUBLIC MT_UtilSrcMatchAddEntry
        FUNCTION MT_UtilSrcMatchAddEntry,021203H
        ARGFRAME XSTACK, 37, STACK
        ARGFRAME IOVERLAY, 0, STATIC
        ARGFRAME DOVERLAY, 0, STATIC
        LOCFRAME ISTACK, 2, STACK
        LOCFRAME XSTACK, 1, STACK
        PUBLIC MT_UtilSrcMatchCheckAllPending
        FUNCTION MT_UtilSrcMatchCheckAllPending,021203H
        ARGFRAME XSTACK, 37, STACK
        ARGFRAME IOVERLAY, 0, STATIC
        ARGFRAME DOVERLAY, 0, STATIC
        LOCFRAME ISTACK, 2, STACK
        LOCFRAME XSTACK, 2, STACK
        PUBLIC MT_UtilSrcMatchCheckSrcAddr
        FUNCTION MT_UtilSrcMatchCheckSrcAddr,021203H
        ARGFRAME XSTACK, 37, STACK
        ARGFRAME IOVERLAY, 0, STATIC
        ARGFRAME DOVERLAY, 0, STATIC
        LOCFRAME ISTACK, 2, STACK
        LOCFRAME XSTACK, 2, STACK
        PUBLIC MT_UtilSrcMatchDeleteEntry
        FUNCTION MT_UtilSrcMatchDeleteEntry,021203H
        ARGFRAME XSTACK, 37, STACK
        ARGFRAME IOVERLAY, 0, STATIC
        ARGFRAME DOVERLAY, 0, STATIC
        LOCFRAME ISTACK, 2, STACK
        LOCFRAME XSTACK, 1, STACK
        PUBLIC MT_UtilSrcMatchEnable
        FUNCTION MT_UtilSrcMatchEnable,021203H
        ARGFRAME XSTACK, 37, STACK
        ARGFRAME IOVERLAY, 0, STATIC
        ARGFRAME DOVERLAY, 0, STATIC
        LOCFRAME ISTACK, 2, STACK
        LOCFRAME XSTACK, 1, STACK
        PUBLIC MT_UtilTimeAlive
        FUNCTION MT_UtilTimeAlive,021203H
        ARGFRAME XSTACK, 37, STACK
        ARGFRAME IOVERLAY, 0, STATIC
        ARGFRAME DOVERLAY, 0, STATIC
        LOCFRAME ISTACK, 1, STACK
        LOCFRAME XSTACK, 20, STACK
        PUBWEAK __Constant_0
        PUBWEAK __Constant_3e8
        PUBWEAK __Constant_ffffffff
        FUNCTION packDev_t,0203H
        ARGFRAME XSTACK, 27, STACK
        ARGFRAME IOVERLAY, 0, STATIC
        ARGFRAME DOVERLAY, 0, STATIC
        LOCFRAME ISTACK, 1, STACK
        LOCFRAME XSTACK, 12, STACK
        
        CFI Names cfiNames0
        CFI StackFrame CFA_SP SP IDATA
        CFI StackFrame CFA_PSP16 PSP16 XDATA
        CFI StackFrame CFA_XSP16 XSP16 XDATA
        CFI StaticOverlayFrame CFA_IOVERLAY IOVERLAY
        CFI StaticOverlayFrame CFA_DOVERLAY DOVERLAY
        CFI Resource `PSW.CY`:1, `B.BR0`:1, `B.BR1`:1, `B.BR2`:1, `B.BR3`:1
        CFI Resource `B.BR4`:1, `B.BR5`:1, `B.BR6`:1, `B.BR7`:1, `VB.BR8`:1
        CFI Resource `VB.BR9`:1, `VB.BR10`:1, `VB.BR11`:1, `VB.BR12`:1
        CFI Resource `VB.BR13`:1, `VB.BR14`:1, `VB.BR15`:1, VB:8, B:8, A:8
        CFI Resource PSW:8, DPL0:8, DPH0:8, R0:8, R1:8, R2:8, R3:8, R4:8, R5:8
        CFI Resource R6:8, R7:8, V0:8, V1:8, V2:8, V3:8, V4:8, V5:8, V6:8, V7:8
        CFI Resource V8:8, V9:8, V10:8, V11:8, V12:8, V13:8, V14:8, V15:8, SP:8
        CFI Resource PSPH:8, PSPL:8, PSP16:16, XSPH:8, XSPL:8, XSP16:16
        CFI VirtualResource ?RET:24
        CFI Resource ?BRET_EXT:8
        CFI VirtualResource ?RET_HIGH:8, ?RET_LOW:8
        CFI ResourceParts PSP16 PSPH, PSPL
        CFI ResourceParts XSP16 XSPH, XSPL
        CFI ResourceParts ?RET ?BRET_EXT, ?RET_HIGH, ?RET_LOW
        CFI EndNames cfiNames0
        
        CFI Common cfiCommon0 Using cfiNames0
        CFI CodeAlign 1
        CFI DataAlign -1
        CFI ReturnAddress ?RET CODE
        CFI CFA_DOVERLAY Used
        CFI CFA_IOVERLAY Used
        CFI CFA_SP SP+-3
        CFI CFA_PSP16 PSP16+0
        CFI CFA_XSP16 XSP16+0
        CFI `PSW.CY` SameValue
        CFI `B.BR0` SameValue
        CFI `B.BR1` SameValue
        CFI `B.BR2` SameValue
        CFI `B.BR3` SameValue
        CFI `B.BR4` SameValue
        CFI `B.BR5` SameValue
        CFI `B.BR6` SameValue
        CFI `B.BR7` SameValue
        CFI `VB.BR8` SameValue
        CFI `VB.BR9` SameValue
        CFI `VB.BR10` SameValue
        CFI `VB.BR11` SameValue
        CFI `VB.BR12` SameValue
        CFI `VB.BR13` SameValue
        CFI `VB.BR14` SameValue
        CFI `VB.BR15` SameValue
        CFI VB SameValue
        CFI B Undefined
        CFI A Undefined
        CFI PSW SameValue
        CFI DPL0 SameValue
        CFI DPH0 SameValue
        CFI R0 Undefined
        CFI R1 Undefined
        CFI R2 Undefined
        CFI R3 Undefined
        CFI R4 Undefined
        CFI R5 Undefined
        CFI R6 SameValue
        CFI R7 SameValue
        CFI V0 SameValue
        CFI V1 SameValue
        CFI V2 SameValue
        CFI V3 SameValue
        CFI V4 SameValue
        CFI V5 SameValue
        CFI V6 SameValue
        CFI V7 SameValue
        CFI V8 SameValue
        CFI V9 SameValue
        CFI V10 SameValue
        CFI V11 SameValue
        CFI V12 SameValue
        CFI V13 SameValue
        CFI V14 SameValue
        CFI V15 SameValue
        CFI PSPH Undefined
        CFI PSPL Undefined
        CFI XSPH Undefined
        CFI XSPL Undefined
        CFI ?RET Concat
        CFI ?BRET_EXT Frame(CFA_SP, 3)
        CFI ?RET_HIGH Frame(CFA_SP, 2)
        CFI ?RET_LOW Frame(CFA_SP, 1)
        CFI EndCommon cfiCommon0
        
        
        CFI Common cfiCommon1 Using cfiNames0
        CFI CodeAlign 1
        CFI DataAlign -1
        CFI ReturnAddress ?RET CODE
        CFI CFA_DOVERLAY Used
        CFI CFA_IOVERLAY Used
        CFI CFA_SP SP+-2
        CFI CFA_PSP16 PSP16+0
        CFI CFA_XSP16 XSP16+0
        CFI `PSW.CY` SameValue
        CFI `B.BR0` SameValue
        CFI `B.BR1` SameValue
        CFI `B.BR2` SameValue
        CFI `B.BR3` SameValue
        CFI `B.BR4` SameValue
        CFI `B.BR5` SameValue
        CFI `B.BR6` SameValue
        CFI `B.BR7` SameValue
        CFI `VB.BR8` SameValue
        CFI `VB.BR9` SameValue
        CFI `VB.BR10` SameValue
        CFI `VB.BR11` SameValue
        CFI `VB.BR12` SameValue
        CFI `VB.BR13` SameValue
        CFI `VB.BR14` SameValue
        CFI `VB.BR15` SameValue
        CFI VB SameValue
        CFI B SameValue
        CFI A SameValue
        CFI PSW SameValue
        CFI DPL0 SameValue
        CFI DPH0 SameValue
        CFI R0 SameValue
        CFI R1 SameValue
        CFI R2 SameValue
        CFI R3 SameValue
        CFI R4 SameValue
        CFI R5 SameValue
        CFI R6 SameValue
        CFI R7 SameValue
        CFI V0 SameValue
        CFI V1 SameValue
        CFI V2 SameValue
        CFI V3 SameValue
        CFI V4 SameValue
        CFI V5 SameValue
        CFI V6 SameValue
        CFI V7 SameValue
        CFI V8 SameValue
        CFI V9 SameValue
        CFI V10 SameValue
        CFI V11 SameValue
        CFI V12 SameValue
        CFI V13 SameValue
        CFI V14 SameValue
        CFI V15 SameValue
        CFI PSPH Undefined
        CFI PSPL Undefined
        CFI XSPH Undefined
        CFI XSPL Undefined
        CFI ?RET Concat
        CFI ?BRET_EXT SameValue
        CFI ?RET_HIGH Frame(CFA_SP, 2)
        CFI ?RET_LOW Frame(CFA_SP, 1)
        CFI EndCommon cfiCommon1
        
MT_BuildAndSendZToolResponse SYMBOL "MT_BuildAndSendZToolResponse"
AddrMgrEntryLookupNwk SYMBOL "AddrMgrEntryLookupNwk"
osal_memcpy         SYMBOL "osal_memcpy"
ZDSecMgrRequestAppKey SYMBOL "ZDSecMgrRequestAppKey"
AssocCount          SYMBOL "AssocCount"
AssocMakeList       SYMBOL "AssocMakeList"
osal_mem_alloc      SYMBOL "osal_mem_alloc"
osal_nv_read        SYMBOL "osal_nv_read"
NLME_GetShortAddr   SYMBOL "NLME_GetShortAddr"
osal_mem_free       SYMBOL "osal_mem_free"
osal_memset         SYMBOL "osal_memset"
NLME_UpdateNV       SYMBOL "NLME_UpdateNV"
osal_nv_item_len    SYMBOL "osal_nv_item_len"
osal_nv_write       SYMBOL "osal_nv_write"
OnBoard_SendKeys    SYMBOL "OnBoard_SendKeys"
osal_GetSystemClock SYMBOL "osal_GetSystemClock"
HalLedSet           SYMBOL "HalLedSet"
NwkPollReq          SYMBOL "NwkPollReq"
AddrMgrEntryLookupExt SYMBOL "AddrMgrEntryLookupExt"
AssocFindDevice     SYMBOL "AssocFindDevice"
AddrMgrExtAddrValid SYMBOL "AddrMgrExtAddrValid"
AssocGetWithAddress SYMBOL "AssocGetWithAddress"
??AddrMgrEntryLookupExt?relay SYMBOL "?relay", AddrMgrEntryLookupExt
??AddrMgrEntryLookupNwk?relay SYMBOL "?relay", AddrMgrEntryLookupNwk
??AddrMgrExtAddrValid?relay SYMBOL "?relay", AddrMgrExtAddrValid
??AssocCount?relay  SYMBOL "?relay", AssocCount
??AssocFindDevice?relay SYMBOL "?relay", AssocFindDevice
??AssocGetWithAddress?relay SYMBOL "?relay", AssocGetWithAddress
??AssocMakeList?relay SYMBOL "?relay", AssocMakeList
??HalLedSet?relay   SYMBOL "?relay", HalLedSet
??MT_BuildAndSendZToolResponse?relay SYMBOL "?relay", MT_BuildAndSendZToolResponse
??NLME_GetShortAddr?relay SYMBOL "?relay", NLME_GetShortAddr
??NLME_UpdateNV?relay SYMBOL "?relay", NLME_UpdateNV
??NwkPollReq?relay  SYMBOL "?relay", NwkPollReq
??OnBoard_SendKeys?relay SYMBOL "?relay", OnBoard_SendKeys
??ZDSecMgrRequestAppKey?relay SYMBOL "?relay", ZDSecMgrRequestAppKey
??osal_GetSystemClock?relay SYMBOL "?relay", osal_GetSystemClock
??osal_mem_alloc?relay SYMBOL "?relay", osal_mem_alloc
??osal_mem_free?relay SYMBOL "?relay", osal_mem_free
??osal_memcpy?relay SYMBOL "?relay", osal_memcpy
??osal_memset?relay SYMBOL "?relay", osal_memset
??osal_nv_item_len?relay SYMBOL "?relay", osal_nv_item_len
??osal_nv_read?relay SYMBOL "?relay", osal_nv_read
??osal_nv_write?relay SYMBOL "?relay", osal_nv_write
MT_UtilCallbackSub  SYMBOL "MT_UtilCallbackSub"
??MT_UtilCallbackSub?relay SYMBOL "?relay", MT_UtilCallbackSub
MT_UtilCommandProcessing SYMBOL "MT_UtilCommandProcessing"
??MT_UtilCommandProcessing?relay SYMBOL "?relay", MT_UtilCommandProcessing
MT_UtilDataReq      SYMBOL "MT_UtilDataReq"
??MT_UtilDataReq?relay SYMBOL "?relay", MT_UtilDataReq
MT_UtilGetDeviceInfo SYMBOL "MT_UtilGetDeviceInfo"
??MT_UtilGetDeviceInfo?relay SYMBOL "?relay", MT_UtilGetDeviceInfo
MT_UtilGetNvInfo    SYMBOL "MT_UtilGetNvInfo"
??MT_UtilGetNvInfo?relay SYMBOL "?relay", MT_UtilGetNvInfo
MT_UtilKeyEvent     SYMBOL "MT_UtilKeyEvent"
??MT_UtilKeyEvent?relay SYMBOL "?relay", MT_UtilKeyEvent
MT_UtilLedControl   SYMBOL "MT_UtilLedControl"
??MT_UtilLedControl?relay SYMBOL "?relay", MT_UtilLedControl
MT_UtilSetChannels  SYMBOL "MT_UtilSetChannels"
??MT_UtilSetChannels?relay SYMBOL "?relay", MT_UtilSetChannels
MT_UtilSetPanID     SYMBOL "MT_UtilSetPanID"
??MT_UtilSetPanID?relay SYMBOL "?relay", MT_UtilSetPanID
MT_UtilSetPreCfgKey SYMBOL "MT_UtilSetPreCfgKey"
??MT_UtilSetPreCfgKey?relay SYMBOL "?relay", MT_UtilSetPreCfgKey
MT_UtilSetSecLevel  SYMBOL "MT_UtilSetSecLevel"
??MT_UtilSetSecLevel?relay SYMBOL "?relay", MT_UtilSetSecLevel
MT_UtilSrcMatchAckAllPending SYMBOL "MT_UtilSrcMatchAckAllPending"
??MT_UtilSrcMatchAckAllPending?relay SYMBOL "?relay", MT_UtilSrcMatchAckAllPending
MT_UtilSrcMatchAddEntry SYMBOL "MT_UtilSrcMatchAddEntry"
??MT_UtilSrcMatchAddEntry?relay SYMBOL "?relay", MT_UtilSrcMatchAddEntry
MT_UtilSrcMatchCheckAllPending SYMBOL "MT_UtilSrcMatchCheckAllPending"
??MT_UtilSrcMatchCheckAllPending?relay SYMBOL "?relay", MT_UtilSrcMatchCheckAllPending
MT_UtilSrcMatchCheckSrcAddr SYMBOL "MT_UtilSrcMatchCheckSrcAddr"
??MT_UtilSrcMatchCheckSrcAddr?relay SYMBOL "?relay", MT_UtilSrcMatchCheckSrcAddr
MT_UtilSrcMatchDeleteEntry SYMBOL "MT_UtilSrcMatchDeleteEntry"
??MT_UtilSrcMatchDeleteEntry?relay SYMBOL "?relay", MT_UtilSrcMatchDeleteEntry
MT_UtilSrcMatchEnable SYMBOL "MT_UtilSrcMatchEnable"
??MT_UtilSrcMatchEnable?relay SYMBOL "?relay", MT_UtilSrcMatchEnable
MT_UtilTimeAlive    SYMBOL "MT_UtilTimeAlive"
??MT_UtilTimeAlive?relay SYMBOL "?relay", MT_UtilTimeAlive

        EXTERN MT_BuildAndSendZToolResponse
        FUNCTION MT_BuildAndSendZToolResponse,0202H
        ARGFRAME ISTACK, 2, STACK
        ARGFRAME PSTACK, 0, STACK
        ARGFRAME XSTACK, 37, STACK
        ARGFRAME IOVERLAY, 0, STATIC
        ARGFRAME DOVERLAY, 0, STATIC
        EXTERN AddrMgrEntryLookupNwk
        FUNCTION AddrMgrEntryLookupNwk,0202H
        ARGFRAME ISTACK, 0, STACK
        ARGFRAME PSTACK, 0, STACK
        ARGFRAME XSTACK, 37, STACK
        ARGFRAME IOVERLAY, 0, STATIC
        ARGFRAME DOVERLAY, 0, STATIC
        EXTERN osal_memcpy
        FUNCTION osal_memcpy,0202H
        ARGFRAME ISTACK, 0, STACK
        ARGFRAME PSTACK, 0, STACK
        ARGFRAME XSTACK, 40, STACK
        ARGFRAME IOVERLAY, 0, STATIC
        ARGFRAME DOVERLAY, 0, STATIC
        EXTERN ZDSecMgrRequestAppKey
        FUNCTION ZDSecMgrRequestAppKey,0202H
        ARGFRAME ISTACK, 0, STACK
        ARGFRAME PSTACK, 0, STACK
        ARGFRAME XSTACK, 37, STACK
        ARGFRAME IOVERLAY, 0, STATIC
        ARGFRAME DOVERLAY, 0, STATIC
        EXTERN AssocCount
        FUNCTION AssocCount,0202H
        ARGFRAME ISTACK, 0, STACK
        ARGFRAME PSTACK, 0, STACK
        ARGFRAME XSTACK, 37, STACK
        ARGFRAME IOVERLAY, 0, STATIC
        ARGFRAME DOVERLAY, 0, STATIC
        EXTERN AssocMakeList
        FUNCTION AssocMakeList,0202H
        ARGFRAME ISTACK, 0, STACK
        ARGFRAME PSTACK, 0, STACK
        ARGFRAME XSTACK, 17, STACK
        ARGFRAME IOVERLAY, 0, STATIC
        ARGFRAME DOVERLAY, 0, STATIC
        EXTERN osal_mem_alloc
        FUNCTION osal_mem_alloc,0202H
        ARGFRAME ISTACK, 0, STACK
        ARGFRAME PSTACK, 0, STACK
        ARGFRAME XSTACK, 22, STACK
        ARGFRAME IOVERLAY, 0, STATIC
        ARGFRAME DOVERLAY, 0, STATIC
        EXTERN osal_nv_read
        FUNCTION osal_nv_read,0202H
        ARGFRAME ISTACK, 0, STACK
        ARGFRAME PSTACK, 0, STACK
        ARGFRAME XSTACK, 26, STACK
        ARGFRAME IOVERLAY, 0, STATIC
        ARGFRAME DOVERLAY, 0, STATIC
        EXTERN NLME_GetShortAddr
        FUNCTION NLME_GetShortAddr,0202H
        ARGFRAME ISTACK, 0, STACK
        ARGFRAME PSTACK, 0, STACK
        ARGFRAME XSTACK, 17, STACK
        ARGFRAME IOVERLAY, 0, STATIC
        ARGFRAME DOVERLAY, 0, STATIC
        EXTERN osal_mem_free
        FUNCTION osal_mem_free,0202H
        ARGFRAME ISTACK, 0, STACK
        ARGFRAME PSTACK, 0, STACK
        ARGFRAME XSTACK, 22, STACK
        ARGFRAME IOVERLAY, 0, STATIC
        ARGFRAME DOVERLAY, 0, STATIC
        EXTERN osal_memset
        FUNCTION osal_memset,0202H
        ARGFRAME ISTACK, 0, STACK
        ARGFRAME PSTACK, 0, STACK
        ARGFRAME XSTACK, 22, STACK
        ARGFRAME IOVERLAY, 0, STATIC
        ARGFRAME DOVERLAY, 0, STATIC
        EXTERN NLME_UpdateNV
        FUNCTION NLME_UpdateNV,0202H
        ARGFRAME ISTACK, 0, STACK
        ARGFRAME PSTACK, 0, STACK
        ARGFRAME XSTACK, 25, STACK
        ARGFRAME IOVERLAY, 0, STATIC
        ARGFRAME DOVERLAY, 0, STATIC
        EXTERN osal_nv_item_len
        FUNCTION osal_nv_item_len,0202H
        ARGFRAME ISTACK, 0, STACK
        ARGFRAME PSTACK, 0, STACK
        ARGFRAME XSTACK, 27, STACK
        ARGFRAME IOVERLAY, 0, STATIC
        ARGFRAME DOVERLAY, 0, STATIC
        EXTERN osal_nv_write
        FUNCTION osal_nv_write,0202H
        ARGFRAME ISTACK, 0, STACK
        ARGFRAME PSTACK, 0, STACK
        ARGFRAME XSTACK, 29, STACK
        ARGFRAME IOVERLAY, 0, STATIC
        ARGFRAME DOVERLAY, 0, STATIC
        EXTERN Onboard_soft_reset
        FUNCTION Onboard_soft_reset,0202H
        ARGFRAME ISTACK, 0, STACK
        ARGFRAME PSTACK, 0, STACK
        ARGFRAME XSTACK, 13, STACK
        ARGFRAME IOVERLAY, 0, STATIC
        ARGFRAME DOVERLAY, 0, STATIC
        EXTERN OnBoard_SendKeys
        FUNCTION OnBoard_SendKeys,0202H
        ARGFRAME ISTACK, 0, STACK
        ARGFRAME PSTACK, 0, STACK
        ARGFRAME XSTACK, 10, STACK
        ARGFRAME IOVERLAY, 0, STATIC
        ARGFRAME DOVERLAY, 0, STATIC
        EXTERN osal_GetSystemClock
        FUNCTION osal_GetSystemClock,0202H
        ARGFRAME ISTACK, 0, STACK
        ARGFRAME PSTACK, 0, STACK
        ARGFRAME XSTACK, 20, STACK
        ARGFRAME IOVERLAY, 0, STATIC
        ARGFRAME DOVERLAY, 0, STATIC
        EXTERN HalLedSet
        FUNCTION HalLedSet,0202H
        ARGFRAME ISTACK, 0, STACK
        ARGFRAME PSTACK, 0, STACK
        ARGFRAME XSTACK, 10, STACK
        ARGFRAME IOVERLAY, 0, STATIC
        ARGFRAME DOVERLAY, 0, STATIC
        EXTERN NwkPollReq
        FUNCTION NwkPollReq,0202H
        ARGFRAME ISTACK, 2, STACK
        ARGFRAME PSTACK, 0, STACK
        ARGFRAME XSTACK, 1, STACK
        ARGFRAME IOVERLAY, 0, STATIC
        ARGFRAME DOVERLAY, 0, STATIC
        EXTERN AddrMgrEntryLookupExt
        FUNCTION AddrMgrEntryLookupExt,0202H
        ARGFRAME ISTACK, 0, STACK
        ARGFRAME PSTACK, 0, STACK
        ARGFRAME XSTACK, 26, STACK
        ARGFRAME IOVERLAY, 0, STATIC
        ARGFRAME DOVERLAY, 0, STATIC
        EXTERN AssocFindDevice
        FUNCTION AssocFindDevice,0202H
        ARGFRAME ISTACK, 0, STACK
        ARGFRAME PSTACK, 0, STACK
        ARGFRAME XSTACK, 27, STACK
        ARGFRAME IOVERLAY, 0, STATIC
        ARGFRAME DOVERLAY, 0, STATIC
        EXTERN AddrMgrExtAddrValid
        FUNCTION AddrMgrExtAddrValid,0202H
        ARGFRAME ISTACK, 0, STACK
        ARGFRAME PSTACK, 0, STACK
        ARGFRAME XSTACK, 27, STACK
        ARGFRAME IOVERLAY, 0, STATIC
        ARGFRAME DOVERLAY, 0, STATIC
        EXTERN AssocGetWithAddress
        FUNCTION AssocGetWithAddress,0202H
        ARGFRAME ISTACK, 0, STACK
        ARGFRAME PSTACK, 0, STACK
        ARGFRAME XSTACK, 27, STACK
        ARGFRAME IOVERLAY, 0, STATIC
        ARGFRAME DOVERLAY, 0, STATIC
        EXTERN ??AddrMgrEntryLookupExt?relay
        FUNCTION ??AddrMgrEntryLookupExt?relay,00H
        EXTERN ??AddrMgrEntryLookupNwk?relay
        FUNCTION ??AddrMgrEntryLookupNwk?relay,00H
        EXTERN ??AddrMgrExtAddrValid?relay
        FUNCTION ??AddrMgrExtAddrValid?relay,00H
        EXTERN ??AssocCount?relay
        FUNCTION ??AssocCount?relay,00H
        EXTERN ??AssocFindDevice?relay
        FUNCTION ??AssocFindDevice?relay,00H
        EXTERN ??AssocGetWithAddress?relay
        FUNCTION ??AssocGetWithAddress?relay,00H
        EXTERN ??AssocMakeList?relay
        FUNCTION ??AssocMakeList?relay,00H
        EXTERN ??HalLedSet?relay
        FUNCTION ??HalLedSet?relay,00H
        EXTERN ??MT_BuildAndSendZToolResponse?relay
        FUNCTION ??MT_BuildAndSendZToolResponse?relay,00H
        EXTERN ??NLME_GetShortAddr?relay
        FUNCTION ??NLME_GetShortAddr?relay,00H
        EXTERN ??NLME_UpdateNV?relay
        FUNCTION ??NLME_UpdateNV?relay,00H
        EXTERN ??NwkPollReq?relay
        FUNCTION ??NwkPollReq?relay,00H
        EXTERN ??OnBoard_SendKeys?relay
        FUNCTION ??OnBoard_SendKeys?relay,00H
        EXTERN ??ZDSecMgrRequestAppKey?relay
        FUNCTION ??ZDSecMgrRequestAppKey?relay,00H
        EXTERN ??osal_GetSystemClock?relay
        FUNCTION ??osal_GetSystemClock?relay,00H
        EXTERN ??osal_mem_alloc?relay
        FUNCTION ??osal_mem_alloc?relay,00H
        EXTERN ??osal_mem_free?relay
        FUNCTION ??osal_mem_free?relay,00H
        EXTERN ??osal_memcpy?relay
        FUNCTION ??osal_memcpy?relay,00H
        EXTERN ??osal_memset?relay
        FUNCTION ??osal_memset?relay,00H
        EXTERN ??osal_nv_item_len?relay
        FUNCTION ??osal_nv_item_len?relay,00H
        EXTERN ??osal_nv_read?relay
        FUNCTION ??osal_nv_read?relay,00H
        EXTERN ??osal_nv_write?relay
        FUNCTION ??osal_nv_write?relay,00H
        EXTERN _NIB
        EXTERN _afCallbackSub
        EXTERN _nwkCallbackSub
        EXTERN _zdoCallbackSub
        EXTERN devState
        EXTERN zgDeviceLogicalType

// C:\Texas Instruments\ZStack-CC2530-2.5.1a\Components\mt\MT_UTIL.c
//    1 /***************************************************************************************************
//    2   Filename:       MT_UTIL.c
//    3   Revised:        $Date: 2012-02-25 17:43:09 -0800 (Sat, 25 Feb 2012) $
//    4   Revision:       $Revision: 29520 $
//    5 
//    6   Description:    MonitorTest Utility Functions
//    7 
//    8   Copyright 2007-2012 Texas Instruments Incorporated. All rights reserved.
//    9 
//   10   IMPORTANT: Your use of this Software is limited to those specific rights
//   11   granted under the terms of a software license agreement between the user
//   12   who downloaded the software, his/her employer (which must be your employer)
//   13   and Texas Instruments Incorporated (the "License"). You may not use this
//   14   Software unless you agree to abide by the terms of the License. The License
//   15   limits your use, and you acknowledge, that the Software may not be modified,
//   16   copied or distributed unless embedded on a Texas Instruments microcontroller
//   17   or used solely and exclusively in conjunction with a Texas Instruments radio
//   18   frequency transceiver, which is integrated into your product. Other than for
//   19   the foregoing purpose, you may not use, reproduce, copy, prepare derivative
//   20   works of, modify, distribute, perform, display or sell this Software and/or
//   21   its documentation for any purpose.
//   22 
//   23   YOU FURTHER ACKNOWLEDGE AND AGREE THAT THE SOFTWARE AND DOCUMENTATION ARE
//   24   PROVIDED “AS IS?WITHOUT WARRANTY OF ANY KIND, EITHER EXPRESS OR IMPLIED,
//   25   INCLUDING WITHOUT LIMITATION, ANY WARRANTY OF MERCHANTABILITY, TITLE,
//   26   NON-INFRINGEMENT AND FITNESS FOR A PARTICULAR PURPOSE. IN NO EVENT SHALL
//   27   TEXAS INSTRUMENTS OR ITS LICENSORS BE LIABLE OR OBLIGATED UNDER CONTRACT,
//   28   NEGLIGENCE, STRICT LIABILITY, CONTRIBUTION, BREACH OF WARRANTY, OR OTHER
//   29   LEGAL EQUITABLE THEORY ANY DIRECT OR INDIRECT DAMAGES OR EXPENSES
//   30   INCLUDING BUT NOT LIMITED TO ANY INCIDENTAL, SPECIAL, INDIRECT, PUNITIVE
//   31   OR CONSEQUENTIAL DAMAGES, LOST PROFITS OR LOST DATA, COST OF PROCUREMENT
//   32   OF SUBSTITUTE GOODS, TECHNOLOGY, SERVICES, OR ANY CLAIMS BY THIRD PARTIES
//   33   (INCLUDING BUT NOT LIMITED TO ANY DEFENSE THEREOF), OR OTHER SIMILAR COSTS.
//   34 
//   35   Should you have any questions regarding your right to use this Software,
//   36   contact Texas Instruments Incorporated at www.TI.com.
//   37 
//   38  ***************************************************************************************************/
//   39 
//   40 /***************************************************************************************************
//   41  * INCLUDES
//   42  ***************************************************************************************************/
//   43 #include "ZComDef.h"
//   44 
//   45 #include "AddrMgr.h"
//   46 
//   47 #include "OnBoard.h"   /* This is here because of the key reading */
//   48 #include "hal_key.h"
//   49 #include "hal_led.h"
//   50 #include "OSAL_Nv.h"
//   51 #include "osal.h"
//   52 #include "NLMEDE.h"
//   53 #include "MT.h"
//   54 #include "MT_UTIL.h"
//   55 #include "MT_MAC.h"
//   56 #include "ssp.h"
//   57 #if defined ZCL_KEY_ESTABLISH
//   58 #include "zcl_key_establish.h"
//   59 #endif
//   60 #if defined TC_LINKKEY_JOIN
//   61 #include "zcl_se.h"
//   62 #endif
//   63 
//   64 #if !defined NONWK
//   65 #include "MT_ZDO.h"
//   66 #include "MT_SAPI.h"
//   67 #include "MT_NWK.h"
//   68 #include "MT_AF.h"
//   69 #include "AssocList.h"
//   70 #include "ZDApp.h"
//   71 #include "ZDSecMgr.h"
//   72 #endif
//   73 /***************************************************************************************************
//   74  * CONSTANTS
//   75  ***************************************************************************************************/
//   76 #define MT_UTIL_DEVICE_INFO_RESPONSE_LEN 14
//   77 #define MT_UTIL_STATUS_LEN    1
//   78 #define MT_UTIL_FRM_CTR_LEN   4
//   79 // Status + LinkKeyDataLen + Tx+Rx Frame counter.
//   80 #define MT_APSME_LINKKEY_GET_RSP_LEN (MT_UTIL_STATUS_LEN + SEC_KEY_LEN + (MT_UTIL_FRM_CTR_LEN * 2))
//   81 // Status + NV id
//   82 #define MT_APSME_LINKKEY_NV_ID_GET_RSP_LEN (MT_UTIL_STATUS_LEN + 2)
//   83 
//   84 /***************************************************************************************************
//   85  * LOCAL VARIABLES
//   86  ***************************************************************************************************/
//   87 #if defined ZCL_KEY_ESTABLISH
//   88 uint8 zcl_key_establish_task_id;
//   89 #endif
//   90 
//   91 /***************************************************************************************************
//   92  * LOCAL FUNCTIONS
//   93  ***************************************************************************************************/
//   94 #ifdef AUTO_PEND
//   95 static void MT_UtilRevExtCpy( uint8 *pDst, uint8 *pSrc );
//   96 static void MT_UtilSpi2Addr( zAddrType_t *pDst, uint8 *pSrc );
//   97 #endif
//   98 
//   99 #if defined (MT_UTIL_FUNC)
//  100 void MT_UtilGetDeviceInfo(void);
//  101 void MT_UtilGetNvInfo(void);
//  102 void MT_UtilSetPanID(uint8 *pBuf);
//  103 void MT_UtilSetChannels(uint8 *pBuf);
//  104 void MT_UtilSetSecLevel(uint8 *pBuf);
//  105 void MT_UtilSetPreCfgKey(uint8 *pBuf);
//  106 void MT_UtilCallbackSub(uint8 *pData);
//  107 void MT_UtilKeyEvent(uint8 *pBuf);
//  108 void MT_UtilTimeAlive(void);
//  109 void MT_UtilLedControl(uint8 *pBuf);
//  110 void MT_UtilSrcMatchEnable (uint8 *pBuf);
//  111 void MT_UtilSrcMatchAddEntry (uint8 *pBuf);
//  112 void MT_UtilSrcMatchDeleteEntry (uint8 *pBuf);
//  113 void MT_UtilSrcMatchCheckSrcAddr (uint8 *pBuf);
//  114 void MT_UtilSrcMatchAckAllPending (uint8 *pBuf);
//  115 void MT_UtilSrcMatchCheckAllPending (uint8 *pBuf);
//  116 
//  117 #if !defined NONWK
//  118 void MT_UtilDataReq(uint8 *pBuf);
//  119 static void MT_UtilAddrMgrEntryLookupExt(uint8 *pBuf);
//  120 static void MT_UtilAddrMgrEntryLookupNwk(uint8 *pBuf);
//  121 #if defined MT_SYS_KEY_MANAGEMENT
//  122 static void MT_UtilAPSME_LinkKeyDataGet(uint8 *pBuf);
//  123 static void MT_UtilAPSME_LinkKeyNvIdGet(uint8 *pBuf);
//  124 #endif //MT_SYS_KEY_MANAGEMENT
//  125 static void MT_UtilAPSME_RequestKeyCmd(uint8 *pBuf);
//  126 static void MT_UtilAssocCount(uint8 *pBuf);
//  127 static void MT_UtilAssocFindDevice(uint8 *pBuf);
//  128 static void MT_UtilAssocGetWithAddress(uint8 *pBuf);
//  129 static void packDev_t(uint8 *pBuf, associated_devices_t *pDev);
//  130 #if defined ZCL_KEY_ESTABLISH
//  131 //static void MT_UtilzclGeneral_KeyEstablish_InitiateKeyEstablishment(uint8 *pBuf);
//  132 static void MT_UtilzclGeneral_KeyEstablishment_ECDSASign(uint8 *pBuf);
//  133 #endif // ZCL_KEY_ESTABLISH
//  134 static void MT_UtilSync(void);
//  135 #endif // !defined NONWK
//  136 #endif // MT_UTIL_FUNC
//  137 
//  138 #if defined (MT_UTIL_FUNC)
//  139 /***************************************************************************************************
//  140  * @fn      MT_UtilProcessing
//  141  *
//  142  * @brief   Process all the DEBUG commands that are issued by test tool
//  143  *
//  144  * @param   pBuf  - pointer to received SPI data message
//  145  *
//  146  * @return  status
//  147  ***************************************************************************************************/

        RSEG BANKED_CODE:CODE:NOROOT(0)
//  148 uint8 MT_UtilCommandProcessing(uint8 *pBuf)
MT_UtilCommandProcessing:
        CFI Block cfiBlock0 Using cfiCommon0
        CFI Function MT_UtilCommandProcessing
        CODE
//  149 {
        FUNCALL MT_UtilCommandProcessing, MT_UtilGetDeviceInfo
        LOCFRAME ISTACK, 0, STACK
        LOCFRAME PSTACK, 0, STACK
        LOCFRAME XSTACK, 37, STACK
        LOCFRAME IOVERLAY, 0, STATIC
        LOCFRAME DOVERLAY, 0, STATIC
        ARGFRAME ISTACK, 0, STACK
        ARGFRAME PSTACK, 0, STACK
        ARGFRAME XSTACK, 37, STACK
        ARGFRAME IOVERLAY, 0, STATIC
        ARGFRAME DOVERLAY, 0, STATIC
        FUNCALL MT_UtilCommandProcessing, MT_UtilGetNvInfo
        LOCFRAME ISTACK, 0, STACK
        LOCFRAME PSTACK, 0, STACK
        LOCFRAME XSTACK, 37, STACK
        LOCFRAME IOVERLAY, 0, STATIC
        LOCFRAME DOVERLAY, 0, STATIC
        ARGFRAME ISTACK, 0, STACK
        ARGFRAME PSTACK, 0, STACK
        ARGFRAME XSTACK, 37, STACK
        ARGFRAME IOVERLAY, 0, STATIC
        ARGFRAME DOVERLAY, 0, STATIC
        FUNCALL MT_UtilCommandProcessing, MT_UtilSetPanID
        LOCFRAME ISTACK, 0, STACK
        LOCFRAME PSTACK, 0, STACK
        LOCFRAME XSTACK, 37, STACK
        LOCFRAME IOVERLAY, 0, STATIC
        LOCFRAME DOVERLAY, 0, STATIC
        ARGFRAME ISTACK, 0, STACK
        ARGFRAME PSTACK, 0, STACK
        ARGFRAME XSTACK, 37, STACK
        ARGFRAME IOVERLAY, 0, STATIC
        ARGFRAME DOVERLAY, 0, STATIC
        FUNCALL MT_UtilCommandProcessing, MT_UtilSetChannels
        LOCFRAME ISTACK, 0, STACK
        LOCFRAME PSTACK, 0, STACK
        LOCFRAME XSTACK, 37, STACK
        LOCFRAME IOVERLAY, 0, STATIC
        LOCFRAME DOVERLAY, 0, STATIC
        ARGFRAME ISTACK, 0, STACK
        ARGFRAME PSTACK, 0, STACK
        ARGFRAME XSTACK, 37, STACK
        ARGFRAME IOVERLAY, 0, STATIC
        ARGFRAME DOVERLAY, 0, STATIC
        FUNCALL MT_UtilCommandProcessing, MT_UtilSetSecLevel
        LOCFRAME ISTACK, 0, STACK
        LOCFRAME PSTACK, 0, STACK
        LOCFRAME XSTACK, 37, STACK
        LOCFRAME IOVERLAY, 0, STATIC
        LOCFRAME DOVERLAY, 0, STATIC
        ARGFRAME ISTACK, 0, STACK
        ARGFRAME PSTACK, 0, STACK
        ARGFRAME XSTACK, 37, STACK
        ARGFRAME IOVERLAY, 0, STATIC
        ARGFRAME DOVERLAY, 0, STATIC
        FUNCALL MT_UtilCommandProcessing, MT_UtilSetPreCfgKey
        LOCFRAME ISTACK, 0, STACK
        LOCFRAME PSTACK, 0, STACK
        LOCFRAME XSTACK, 37, STACK
        LOCFRAME IOVERLAY, 0, STATIC
        LOCFRAME DOVERLAY, 0, STATIC
        ARGFRAME ISTACK, 0, STACK
        ARGFRAME PSTACK, 0, STACK
        ARGFRAME XSTACK, 37, STACK
        ARGFRAME IOVERLAY, 0, STATIC
        ARGFRAME DOVERLAY, 0, STATIC
        FUNCALL MT_UtilCommandProcessing, MT_UtilCallbackSub
        LOCFRAME ISTACK, 0, STACK
        LOCFRAME PSTACK, 0, STACK
        LOCFRAME XSTACK, 37, STACK
        LOCFRAME IOVERLAY, 0, STATIC
        LOCFRAME DOVERLAY, 0, STATIC
        ARGFRAME ISTACK, 0, STACK
        ARGFRAME PSTACK, 0, STACK
        ARGFRAME XSTACK, 37, STACK
        ARGFRAME IOVERLAY, 0, STATIC
        ARGFRAME DOVERLAY, 0, STATIC
        FUNCALL MT_UtilCommandProcessing, MT_UtilKeyEvent
        LOCFRAME ISTACK, 0, STACK
        LOCFRAME PSTACK, 0, STACK
        LOCFRAME XSTACK, 37, STACK
        LOCFRAME IOVERLAY, 0, STATIC
        LOCFRAME DOVERLAY, 0, STATIC
        ARGFRAME ISTACK, 0, STACK
        ARGFRAME PSTACK, 0, STACK
        ARGFRAME XSTACK, 37, STACK
        ARGFRAME IOVERLAY, 0, STATIC
        ARGFRAME DOVERLAY, 0, STATIC
        FUNCALL MT_UtilCommandProcessing, MT_UtilTimeAlive
        LOCFRAME ISTACK, 0, STACK
        LOCFRAME PSTACK, 0, STACK
        LOCFRAME XSTACK, 37, STACK
        LOCFRAME IOVERLAY, 0, STATIC
        LOCFRAME DOVERLAY, 0, STATIC
        ARGFRAME ISTACK, 0, STACK
        ARGFRAME PSTACK, 0, STACK
        ARGFRAME XSTACK, 37, STACK
        ARGFRAME IOVERLAY, 0, STATIC
        ARGFRAME DOVERLAY, 0, STATIC
        FUNCALL MT_UtilCommandProcessing, MT_UtilLedControl
        LOCFRAME ISTACK, 0, STACK
        LOCFRAME PSTACK, 0, STACK
        LOCFRAME XSTACK, 37, STACK
        LOCFRAME IOVERLAY, 0, STATIC
        LOCFRAME DOVERLAY, 0, STATIC
        ARGFRAME ISTACK, 0, STACK
        ARGFRAME PSTACK, 0, STACK
        ARGFRAME XSTACK, 37, STACK
        ARGFRAME IOVERLAY, 0, STATIC
        ARGFRAME DOVERLAY, 0, STATIC
        FUNCALL MT_UtilCommandProcessing, MT_UtilSrcMatchEnable
        LOCFRAME ISTACK, 0, STACK
        LOCFRAME PSTACK, 0, STACK
        LOCFRAME XSTACK, 37, STACK
        LOCFRAME IOVERLAY, 0, STATIC
        LOCFRAME DOVERLAY, 0, STATIC
        ARGFRAME ISTACK, 0, STACK
        ARGFRAME PSTACK, 0, STACK
        ARGFRAME XSTACK, 37, STACK
        ARGFRAME IOVERLAY, 0, STATIC
        ARGFRAME DOVERLAY, 0, STATIC
        FUNCALL MT_UtilCommandProcessing, MT_UtilSrcMatchAddEntry
        LOCFRAME ISTACK, 0, STACK
        LOCFRAME PSTACK, 0, STACK
        LOCFRAME XSTACK, 37, STACK
        LOCFRAME IOVERLAY, 0, STATIC
        LOCFRAME DOVERLAY, 0, STATIC
        ARGFRAME ISTACK, 0, STACK
        ARGFRAME PSTACK, 0, STACK
        ARGFRAME XSTACK, 37, STACK
        ARGFRAME IOVERLAY, 0, STATIC
        ARGFRAME DOVERLAY, 0, STATIC
        FUNCALL MT_UtilCommandProcessing, MT_UtilSrcMatchDeleteEntry
        LOCFRAME ISTACK, 0, STACK
        LOCFRAME PSTACK, 0, STACK
        LOCFRAME XSTACK, 37, STACK
        LOCFRAME IOVERLAY, 0, STATIC
        LOCFRAME DOVERLAY, 0, STATIC
        ARGFRAME ISTACK, 0, STACK
        ARGFRAME PSTACK, 0, STACK
        ARGFRAME XSTACK, 37, STACK
        ARGFRAME IOVERLAY, 0, STATIC
        ARGFRAME DOVERLAY, 0, STATIC
        FUNCALL MT_UtilCommandProcessing, MT_UtilSrcMatchCheckSrcAddr
        LOCFRAME ISTACK, 0, STACK
        LOCFRAME PSTACK, 0, STACK
        LOCFRAME XSTACK, 37, STACK
        LOCFRAME IOVERLAY, 0, STATIC
        LOCFRAME DOVERLAY, 0, STATIC
        ARGFRAME ISTACK, 0, STACK
        ARGFRAME PSTACK, 0, STACK
        ARGFRAME XSTACK, 37, STACK
        ARGFRAME IOVERLAY, 0, STATIC
        ARGFRAME DOVERLAY, 0, STATIC
        FUNCALL MT_UtilCommandProcessing, MT_UtilSrcMatchAckAllPending
        LOCFRAME ISTACK, 0, STACK
        LOCFRAME PSTACK, 0, STACK
        LOCFRAME XSTACK, 37, STACK
        LOCFRAME IOVERLAY, 0, STATIC
        LOCFRAME DOVERLAY, 0, STATIC
        ARGFRAME ISTACK, 0, STACK
        ARGFRAME PSTACK, 0, STACK
        ARGFRAME XSTACK, 37, STACK
        ARGFRAME IOVERLAY, 0, STATIC
        ARGFRAME DOVERLAY, 0, STATIC
        FUNCALL MT_UtilCommandProcessing, MT_UtilSrcMatchCheckAllPending
        LOCFRAME ISTACK, 0, STACK
        LOCFRAME PSTACK, 0, STACK
        LOCFRAME XSTACK, 37, STACK
        LOCFRAME IOVERLAY, 0, STATIC
        LOCFRAME DOVERLAY, 0, STATIC
        ARGFRAME ISTACK, 0, STACK
        ARGFRAME PSTACK, 0, STACK
        ARGFRAME XSTACK, 37, STACK
        ARGFRAME IOVERLAY, 0, STATIC
        ARGFRAME DOVERLAY, 0, STATIC
        FUNCALL MT_UtilCommandProcessing, MT_BuildAndSendZToolResponse
        LOCFRAME ISTACK, 0, STACK
        LOCFRAME PSTACK, 0, STACK
        LOCFRAME XSTACK, 37, STACK
        LOCFRAME IOVERLAY, 0, STATIC
        LOCFRAME DOVERLAY, 0, STATIC
        ARGFRAME ISTACK, 0, STACK
        ARGFRAME PSTACK, 0, STACK
        ARGFRAME XSTACK, 37, STACK
        ARGFRAME IOVERLAY, 0, STATIC
        ARGFRAME DOVERLAY, 0, STATIC
        FUNCALL MT_UtilCommandProcessing, MT_UtilDataReq
        LOCFRAME ISTACK, 0, STACK
        LOCFRAME PSTACK, 0, STACK
        LOCFRAME XSTACK, 37, STACK
        LOCFRAME IOVERLAY, 0, STATIC
        LOCFRAME DOVERLAY, 0, STATIC
        ARGFRAME ISTACK, 0, STACK
        ARGFRAME PSTACK, 0, STACK
        ARGFRAME XSTACK, 37, STACK
        ARGFRAME IOVERLAY, 0, STATIC
        ARGFRAME DOVERLAY, 0, STATIC
        FUNCALL MT_UtilCommandProcessing, MT_UtilAddrMgrEntryLookupExt
        LOCFRAME ISTACK, 0, STACK
        LOCFRAME PSTACK, 0, STACK
        LOCFRAME XSTACK, 37, STACK
        LOCFRAME IOVERLAY, 0, STATIC
        LOCFRAME DOVERLAY, 0, STATIC
        ARGFRAME ISTACK, 0, STACK
        ARGFRAME PSTACK, 0, STACK
        ARGFRAME XSTACK, 37, STACK
        ARGFRAME IOVERLAY, 0, STATIC
        ARGFRAME DOVERLAY, 0, STATIC
        FUNCALL MT_UtilCommandProcessing, AddrMgrEntryLookupNwk
        LOCFRAME ISTACK, 0, STACK
        LOCFRAME PSTACK, 0, STACK
        LOCFRAME XSTACK, 37, STACK
        LOCFRAME IOVERLAY, 0, STATIC
        LOCFRAME DOVERLAY, 0, STATIC
        ARGFRAME ISTACK, 0, STACK
        ARGFRAME PSTACK, 0, STACK
        ARGFRAME XSTACK, 37, STACK
        ARGFRAME IOVERLAY, 0, STATIC
        ARGFRAME DOVERLAY, 0, STATIC
        FUNCALL MT_UtilCommandProcessing, MT_BuildAndSendZToolResponse
        LOCFRAME ISTACK, 0, STACK
        LOCFRAME PSTACK, 0, STACK
        LOCFRAME XSTACK, 37, STACK
        LOCFRAME IOVERLAY, 0, STATIC
        LOCFRAME DOVERLAY, 0, STATIC
        ARGFRAME ISTACK, 0, STACK
        ARGFRAME PSTACK, 0, STACK
        ARGFRAME XSTACK, 37, STACK
        ARGFRAME IOVERLAY, 0, STATIC
        ARGFRAME DOVERLAY, 0, STATIC
        FUNCALL MT_UtilCommandProcessing, osal_memcpy
        LOCFRAME ISTACK, 0, STACK
        LOCFRAME PSTACK, 0, STACK
        LOCFRAME XSTACK, 40, STACK
        LOCFRAME IOVERLAY, 0, STATIC
        LOCFRAME DOVERLAY, 0, STATIC
        ARGFRAME ISTACK, 0, STACK
        ARGFRAME PSTACK, 0, STACK
        ARGFRAME XSTACK, 40, STACK
        ARGFRAME IOVERLAY, 0, STATIC
        ARGFRAME DOVERLAY, 0, STATIC
        FUNCALL MT_UtilCommandProcessing, ZDSecMgrRequestAppKey
        LOCFRAME ISTACK, 0, STACK
        LOCFRAME PSTACK, 0, STACK
        LOCFRAME XSTACK, 37, STACK
        LOCFRAME IOVERLAY, 0, STATIC
        LOCFRAME DOVERLAY, 0, STATIC
        ARGFRAME ISTACK, 0, STACK
        ARGFRAME PSTACK, 0, STACK
        ARGFRAME XSTACK, 37, STACK
        ARGFRAME IOVERLAY, 0, STATIC
        ARGFRAME DOVERLAY, 0, STATIC
        FUNCALL MT_UtilCommandProcessing, MT_BuildAndSendZToolResponse
        LOCFRAME ISTACK, 0, STACK
        LOCFRAME PSTACK, 0, STACK
        LOCFRAME XSTACK, 37, STACK
        LOCFRAME IOVERLAY, 0, STATIC
        LOCFRAME DOVERLAY, 0, STATIC
        ARGFRAME ISTACK, 0, STACK
        ARGFRAME PSTACK, 0, STACK
        ARGFRAME XSTACK, 37, STACK
        ARGFRAME IOVERLAY, 0, STATIC
        ARGFRAME DOVERLAY, 0, STATIC
        FUNCALL MT_UtilCommandProcessing, AssocCount
        LOCFRAME ISTACK, 0, STACK
        LOCFRAME PSTACK, 0, STACK
        LOCFRAME XSTACK, 37, STACK
        LOCFRAME IOVERLAY, 0, STATIC
        LOCFRAME DOVERLAY, 0, STATIC
        ARGFRAME ISTACK, 0, STACK
        ARGFRAME PSTACK, 0, STACK
        ARGFRAME XSTACK, 37, STACK
        ARGFRAME IOVERLAY, 0, STATIC
        ARGFRAME DOVERLAY, 0, STATIC
        FUNCALL MT_UtilCommandProcessing, MT_BuildAndSendZToolResponse
        LOCFRAME ISTACK, 0, STACK
        LOCFRAME PSTACK, 0, STACK
        LOCFRAME XSTACK, 37, STACK
        LOCFRAME IOVERLAY, 0, STATIC
        LOCFRAME DOVERLAY, 0, STATIC
        ARGFRAME ISTACK, 0, STACK
        ARGFRAME PSTACK, 0, STACK
        ARGFRAME XSTACK, 37, STACK
        ARGFRAME IOVERLAY, 0, STATIC
        ARGFRAME DOVERLAY, 0, STATIC
        FUNCALL MT_UtilCommandProcessing, MT_UtilAssocFindDevice
        LOCFRAME ISTACK, 0, STACK
        LOCFRAME PSTACK, 0, STACK
        LOCFRAME XSTACK, 37, STACK
        LOCFRAME IOVERLAY, 0, STATIC
        LOCFRAME DOVERLAY, 0, STATIC
        ARGFRAME ISTACK, 0, STACK
        ARGFRAME PSTACK, 0, STACK
        ARGFRAME XSTACK, 37, STACK
        ARGFRAME IOVERLAY, 0, STATIC
        ARGFRAME DOVERLAY, 0, STATIC
        FUNCALL MT_UtilCommandProcessing, MT_UtilAssocGetWithAddress
        LOCFRAME ISTACK, 0, STACK
        LOCFRAME PSTACK, 0, STACK
        LOCFRAME XSTACK, 37, STACK
        LOCFRAME IOVERLAY, 0, STATIC
        LOCFRAME DOVERLAY, 0, STATIC
        ARGFRAME ISTACK, 0, STACK
        ARGFRAME PSTACK, 0, STACK
        ARGFRAME XSTACK, 37, STACK
        ARGFRAME IOVERLAY, 0, STATIC
        ARGFRAME DOVERLAY, 0, STATIC
        FUNCALL MT_UtilCommandProcessing, MT_BuildAndSendZToolResponse
        LOCFRAME ISTACK, 0, STACK
        LOCFRAME PSTACK, 0, STACK
        LOCFRAME XSTACK, 37, STACK
        LOCFRAME IOVERLAY, 0, STATIC
        LOCFRAME DOVERLAY, 0, STATIC
        ARGFRAME ISTACK, 0, STACK
        ARGFRAME PSTACK, 0, STACK
        ARGFRAME XSTACK, 37, STACK
        ARGFRAME IOVERLAY, 0, STATIC
        ARGFRAME DOVERLAY, 0, STATIC
        MOV     A,#-0xf
        LCALL   ?BANKED_ENTER_XDATA
        CFI DPH0 load(1, XDATA, add(CFA_XSP16, literal(-1)))
        CFI DPL0 load(1, XDATA, add(CFA_XSP16, literal(-2)))
        CFI ?BRET_EXT load(1, XDATA, add(CFA_XSP16, literal(-3)))
        CFI ?RET_HIGH load(1, XDATA, add(CFA_XSP16, literal(-4)))
        CFI ?RET_LOW load(1, XDATA, add(CFA_XSP16, literal(-5)))
        CFI R7 load(1, XDATA, add(CFA_XSP16, literal(-6)))
        CFI V6 load(1, XDATA, add(CFA_XSP16, literal(-7)))
        CFI V5 load(1, XDATA, add(CFA_XSP16, literal(-8)))
        CFI V4 load(1, XDATA, add(CFA_XSP16, literal(-9)))
        CFI V3 load(1, XDATA, add(CFA_XSP16, literal(-10)))
        CFI V2 load(1, XDATA, add(CFA_XSP16, literal(-11)))
        CFI V1 load(1, XDATA, add(CFA_XSP16, literal(-12)))
        CFI V0 load(1, XDATA, add(CFA_XSP16, literal(-13)))
        CFI VB load(1, XDATA, add(CFA_XSP16, literal(-14)))
        CFI R6 load(1, XDATA, add(CFA_XSP16, literal(-15)))
        CFI CFA_SP SP+0
        CFI CFA_XSP16 add(XSP16, 15)
        ; Saved register size: 15
        ; Auto size: 22
        MOV     A,#-0x16
        LCALL   ?ALLOC_XSTACK8
        CFI CFA_XSP16 add(XSP16, 37)
//  150   uint8 status = MT_RPC_SUCCESS;
        MOV     ?V0 + 2,#0x0
//  151 
//  152   switch (pBuf[MT_RPC_POS_CMD1])
        MOV     DPL,R2
        MOV     DPH,R3
        INC     DPTR
        INC     DPTR
        MOVX    A,@DPTR
        JNZ     $+5
        LJMP    ??MT_UtilCommandProcessing_0 & 0xFFFF
        DEC     A
        JNZ     $+5
        LJMP    ??MT_UtilCommandProcessing_1 & 0xFFFF
        DEC     A
        JNZ     $+5
        LJMP    ??MT_UtilCommandProcessing_2 & 0xFFFF
        DEC     A
        JNZ     $+5
        LJMP    ??MT_UtilCommandProcessing_3 & 0xFFFF
        DEC     A
        JNZ     $+5
        LJMP    ??MT_UtilCommandProcessing_4 & 0xFFFF
        DEC     A
        JNZ     $+5
        LJMP    ??MT_UtilCommandProcessing_5 & 0xFFFF
        DEC     A
        JNZ     $+5
        LJMP    ??MT_UtilCommandProcessing_6 & 0xFFFF
        DEC     A
        JNZ     $+5
        LJMP    ??MT_UtilCommandProcessing_7 & 0xFFFF
        ADD     A,#-0x2
        JNZ     $+5
        LJMP    ??MT_UtilCommandProcessing_8 & 0xFFFF
        DEC     A
        JNZ     $+5
        LJMP    ??MT_UtilCommandProcessing_9 & 0xFFFF
        ADD     A,#-0x6
        JNZ     $+5
        LJMP    ??MT_UtilCommandProcessing_10 & 0xFFFF
        DEC     A
        JNZ     $+5
        LJMP    ??MT_UtilCommandProcessing_11 & 0xFFFF
        ADD     A,#-0xf
        JNZ     $+5
        LJMP    ??MT_UtilCommandProcessing_12 & 0xFFFF
        DEC     A
        JNZ     $+5
        LJMP    ??MT_UtilCommandProcessing_13 & 0xFFFF
        DEC     A
        JNZ     $+5
        LJMP    ??MT_UtilCommandProcessing_14 & 0xFFFF
        DEC     A
        JNZ     $+5
        LJMP    ??MT_UtilCommandProcessing_15 & 0xFFFF
        DEC     A
        JNZ     $+5
        LJMP    ??MT_UtilCommandProcessing_16 & 0xFFFF
        DEC     A
        JNZ     $+5
        LJMP    ??MT_UtilCommandProcessing_17 & 0xFFFF
        ADD     A,#-0x1b
        JNZ     $+5
        LJMP    ??MT_UtilCommandProcessing_18 & 0xFFFF
        DEC     A
        JNZ     $+5
        LJMP    ??MT_UtilCommandProcessing_19 & 0xFFFF
        ADD     A,#-0x7
        JNZ     $+5
        LJMP    ??MT_UtilCommandProcessing_20 & 0xFFFF
        DEC     A
        JNZ     $+5
        LJMP    ??MT_UtilCommandProcessing_21 & 0xFFFF
        DEC     A
        JNZ     $+5
        LJMP    ??MT_UtilCommandProcessing_22 & 0xFFFF
        DEC     A
        JNZ     $+5
        LJMP    ??MT_UtilCommandProcessing_23 & 0xFFFF
        ADD     A,#0x6b
        JNZ     $+5
        LJMP    ??MT_UtilCommandProcessing_24 & 0xFFFF
        LJMP    ??MT_UtilCommandProcessing_25 & 0xFFFF
//  153   {
//  154 // CC253X MAC Network Processor does not have NV support
//  155 #if !defined(CC253X_MACNP)
//  156     case MT_UTIL_GET_DEVICE_INFO:
//  157       MT_UtilGetDeviceInfo();
??MT_UtilCommandProcessing_0:
        ; Setup parameters for call to function MT_UtilGetDeviceInfo
        LCALL   ??MT_UtilGetDeviceInfo?relay
//  158       break;
        LJMP    ??MT_UtilCommandProcessing_26 & 0xFFFF
//  159 
//  160     case MT_UTIL_GET_NV_INFO:
//  161       MT_UtilGetNvInfo();
??MT_UtilCommandProcessing_1:
        ; Setup parameters for call to function MT_UtilGetNvInfo
        LCALL   ??MT_UtilGetNvInfo?relay
//  162       break;
        LJMP    ??MT_UtilCommandProcessing_26 & 0xFFFF
//  163 
//  164     case MT_UTIL_SET_PANID:
//  165       MT_UtilSetPanID(pBuf);
??MT_UtilCommandProcessing_2:
        ; Setup parameters for call to function MT_UtilSetPanID
        LCALL   ??MT_UtilSetPanID?relay
//  166       break;
        LJMP    ??MT_UtilCommandProcessing_26 & 0xFFFF
//  167 
//  168     case MT_UTIL_SET_CHANNELS:
//  169       MT_UtilSetChannels(pBuf);
??MT_UtilCommandProcessing_3:
        ; Setup parameters for call to function MT_UtilSetChannels
        LCALL   ??MT_UtilSetChannels?relay
//  170       break;
        LJMP    ??MT_UtilCommandProcessing_26 & 0xFFFF
//  171 
//  172     case MT_UTIL_SET_SECLEVEL:
//  173       MT_UtilSetSecLevel(pBuf);
??MT_UtilCommandProcessing_4:
        ; Setup parameters for call to function MT_UtilSetSecLevel
        LCALL   ??MT_UtilSetSecLevel?relay
//  174       break;
        LJMP    ??MT_UtilCommandProcessing_26 & 0xFFFF
//  175 
//  176     case MT_UTIL_SET_PRECFGKEY:
//  177       MT_UtilSetPreCfgKey(pBuf);
??MT_UtilCommandProcessing_5:
        ; Setup parameters for call to function MT_UtilSetPreCfgKey
        LCALL   ??MT_UtilSetPreCfgKey?relay
//  178       break;
        LJMP    ??MT_UtilCommandProcessing_26 & 0xFFFF
//  179 #endif
//  180     case MT_UTIL_CALLBACK_SUB_CMD:
//  181       MT_UtilCallbackSub(pBuf);
??MT_UtilCommandProcessing_6:
        ; Setup parameters for call to function MT_UtilCallbackSub
        LCALL   ??MT_UtilCallbackSub?relay
//  182       break;
        LJMP    ??MT_UtilCommandProcessing_26 & 0xFFFF
//  183 
//  184     case MT_UTIL_KEY_EVENT:
//  185 #if (defined HAL_KEY) && (HAL_KEY == TRUE)
//  186       MT_UtilKeyEvent(pBuf);
??MT_UtilCommandProcessing_7:
        ; Setup parameters for call to function MT_UtilKeyEvent
        LCALL   ??MT_UtilKeyEvent?relay
//  187 #endif
//  188       break;
        LJMP    ??MT_UtilCommandProcessing_26 & 0xFFFF
//  189 
//  190     case MT_UTIL_TIME_ALIVE:
//  191       MT_UtilTimeAlive();
??MT_UtilCommandProcessing_8:
        ; Setup parameters for call to function MT_UtilTimeAlive
        LCALL   ??MT_UtilTimeAlive?relay
//  192       break;
        LJMP    ??MT_UtilCommandProcessing_26 & 0xFFFF
//  193 
//  194     case MT_UTIL_LED_CONTROL:
//  195 #if (defined GUU_HAL_LED) && (GUU_HAL_LED == TRUE)//czv7 GUU_HAL_LED µÄÐÞ¸Ä
//  196       MT_UtilLedControl(pBuf);
??MT_UtilCommandProcessing_9:
        ; Setup parameters for call to function MT_UtilLedControl
        LCALL   ??MT_UtilLedControl?relay
//  197 #endif
//  198       break;
        LJMP    ??MT_UtilCommandProcessing_26 & 0xFFFF
//  199 
//  200     case MT_UTIL_SRC_MATCH_ENABLE:
//  201       MT_UtilSrcMatchEnable(pBuf);
??MT_UtilCommandProcessing_12:
        ; Setup parameters for call to function MT_UtilSrcMatchEnable
        LCALL   ??MT_UtilSrcMatchEnable?relay
//  202       break;
        LJMP    ??MT_UtilCommandProcessing_26 & 0xFFFF
//  203 
//  204     case MT_UTIL_SRC_MATCH_ADD_ENTRY:
//  205       MT_UtilSrcMatchAddEntry(pBuf);
??MT_UtilCommandProcessing_13:
        ; Setup parameters for call to function MT_UtilSrcMatchAddEntry
        LCALL   ??MT_UtilSrcMatchAddEntry?relay
//  206       break;
        LJMP    ??MT_UtilCommandProcessing_26 & 0xFFFF
//  207 
//  208     case MT_UTIL_SRC_MATCH_DEL_ENTRY:
//  209       MT_UtilSrcMatchDeleteEntry(pBuf);
??MT_UtilCommandProcessing_14:
        ; Setup parameters for call to function MT_UtilSrcMatchDeleteEntry
        LCALL   ??MT_UtilSrcMatchDeleteEntry?relay
//  210       break;
        LJMP    ??MT_UtilCommandProcessing_26 & 0xFFFF
//  211 
//  212     case MT_UTIL_SRC_MATCH_CHECK_SRC_ADDR:
//  213       MT_UtilSrcMatchCheckSrcAddr(pBuf);
??MT_UtilCommandProcessing_15:
        ; Setup parameters for call to function MT_UtilSrcMatchCheckSrcAddr
        LCALL   ??MT_UtilSrcMatchCheckSrcAddr?relay
//  214       break;
        LJMP    ??MT_UtilCommandProcessing_26 & 0xFFFF
//  215 
//  216     case MT_UTIL_SRC_MATCH_ACK_ALL_PENDING:
//  217       MT_UtilSrcMatchAckAllPending(pBuf);
??MT_UtilCommandProcessing_16:
        ; Setup parameters for call to function MT_UtilSrcMatchAckAllPending
        LCALL   ??MT_UtilSrcMatchAckAllPending?relay
//  218       break;
        LJMP    ??MT_UtilCommandProcessing_26 & 0xFFFF
//  219 
//  220     case MT_UTIL_SRC_MATCH_CHECK_ALL_PENDING:
//  221       MT_UtilSrcMatchCheckAllPending(pBuf);
??MT_UtilCommandProcessing_17:
        ; Setup parameters for call to function MT_UtilSrcMatchCheckAllPending
        LCALL   ??MT_UtilSrcMatchCheckAllPending?relay
//  222       break;
        LJMP    ??MT_UtilCommandProcessing_26 & 0xFFFF
//  223 
//  224     case MT_UTIL_TEST_LOOPBACK:
//  225       MT_BuildAndSendZToolResponse((MT_RPC_CMD_SRSP|(uint8)MT_RPC_SYS_UTIL), MT_UTIL_TEST_LOOPBACK,
//  226                                     pBuf[MT_RPC_POS_LEN], (pBuf+MT_RPC_FRAME_HDR_SZ));
??MT_UtilCommandProcessing_10:
        ; Setup parameters for call to function MT_BuildAndSendZToolResponse
        MOV     A,R2
        ADD     A,#0x3
        MOV     R4,A
        MOV     A,R3
        ADDC    A,#0x0
        MOV     R5,A
        MOV     DPL,R2
        MOV     DPH,R3
        MOVX    A,@DPTR
        MOV     R3,A
        MOV     R2,#0x10
??MT_UtilCommandProcessing_27:
        MOV     R1,#0x67
??MT_UtilCommandProcessing_28:
        LCALL   ??MT_BuildAndSendZToolResponse?relay
//  227       break;
        LJMP    ??MT_UtilCommandProcessing_26 & 0xFFFF
//  228 
//  229 #if !defined NONWK
//  230     case MT_UTIL_DATA_REQ:
//  231       MT_UtilDataReq(pBuf);
??MT_UtilCommandProcessing_11:
        ; Setup parameters for call to function MT_UtilDataReq
        LCALL   ??MT_UtilDataReq?relay
//  232       break;
        LJMP    ??MT_UtilCommandProcessing_26 & 0xFFFF
//  233 
//  234     case MT_UTIL_ADDRMGR_EXT_ADDR_LOOKUP:
//  235       MT_UtilAddrMgrEntryLookupExt(pBuf);
??MT_UtilCommandProcessing_18:
        ; Setup parameters for call to function MT_UtilAddrMgrEntryLookupExt
        LCALL   ??MT_UtilAddrMgrEntryLookupExt?relay
//  236       break;
        LJMP    ??MT_UtilCommandProcessing_26 & 0xFFFF
//  237 
//  238     case MT_UTIL_ADDRMGR_NWK_ADDR_LOOKUP:
//  239       MT_UtilAddrMgrEntryLookupNwk(pBuf);
??MT_UtilCommandProcessing_19:
        MOV     DPL,R2
        MOV     DPH,R3
        INC     DPTR
        INC     DPTR
        MOVX    A,@DPTR
        MOV     R6,A
        MOV     A,R2
        ADD     A,#0x3
        MOV     DPL,A
        MOV     A,R3
        ADDC    A,#0x0
        MOV     DPH,A
        MOVX    A,@DPTR
        MOV     R2,A
        INC     DPTR
        MOVX    A,@DPTR
        MOV     R1,A
        MOV     A,R2
        MOV     R0,A
        MOV     A,#0xa
        LCALL   ?XSTACK_DISP0_8
        MOV     A,R0
        MOVX    @DPTR,A
        INC     DPTR
        MOV     A,R1
        MOVX    @DPTR,A
        ; Setup parameters for call to function AddrMgrEntryLookupNwk
        MOV     A,#0x9
        LCALL   ?XSTACK_DISP0_8
        MOV     R2,DPL
        MOV     R3,DPH
        LCALL   ??AddrMgrEntryLookupNwk?relay
        ; Setup parameters for call to function MT_BuildAndSendZToolResponse
        MOV     A,#0xc
        LCALL   ?XSTACK_DISP0_8
        MOV     R4,DPL
        MOV     R5,DPH
        MOV     R3,#0x8
??MT_UtilCommandProcessing_29:
        MOV     A,R6
        MOV     R2,A
        SJMP    ??MT_UtilCommandProcessing_27
//  240       break;
//  241 
//  242 #if defined MT_SYS_KEY_MANAGEMENT
//  243     case MT_UTIL_APSME_LINK_KEY_DATA_GET:
//  244       MT_UtilAPSME_LinkKeyDataGet(pBuf);
//  245       break;
//  246 
//  247     case MT_UTIL_APSME_LINK_KEY_NV_ID_GET:
//  248       MT_UtilAPSME_LinkKeyNvIdGet(pBuf);
//  249       break;
//  250 #endif // MT_SYS_KEY_MANAGEMENT
//  251 
//  252     case MT_UTIL_APSME_REQUEST_KEY_CMD:
//  253       MT_UtilAPSME_RequestKeyCmd(pBuf);
??MT_UtilCommandProcessing_23:
        LCALL   ?Subroutine14 & 0xFFFF
??CrossCallReturnLabel_17:
        MOV     ?V0 + 4,R1
        MOV     ?V0 + 5,R2
        MOV     ?V0 + 6,#0x0
        MOV     R0,#?V0 + 4
        LCALL   ?PUSH_XSTACK_I_THREE
        CFI CFA_XSP16 add(XSP16, 40)
        MOV     R4,#0x8
        MOV     R5,#0x0
        MOV     A,#0x4
        LCALL   ?XSTACK_DISP0_8
        MOV     R2,DPL
        MOV     R3,DPH
        LCALL   ??osal_memcpy?relay
        MOV     A,#0x3
        LCALL   ?DEALLOC_XSTACK8
        CFI CFA_XSP16 add(XSP16, 37)
        ; Setup parameters for call to function ZDSecMgrRequestAppKey
        MOV     A,#0x1
        LCALL   ?XSTACK_DISP0_8
        MOV     R2,DPL
        MOV     R3,DPH
        LCALL   ??ZDSecMgrRequestAppKey?relay
        LCALL   ?Subroutine20 & 0xFFFF
??CrossCallReturnLabel_58:
        SJMP    ??MT_UtilCommandProcessing_29
//  254       break;
//  255 
//  256     case MT_UTIL_ASSOC_COUNT:
//  257       MT_UtilAssocCount(pBuf);
??MT_UtilCommandProcessing_20:
        MOV     DPL,R2
        MOV     DPH,R3
        INC     DPTR
        INC     DPTR
        MOVX    A,@DPTR
        MOV     ?V0 + 3,A
        MOV     A,R2
        ADD     A,#0x3
        MOV     R0,A
        MOV     A,R3
        LCALL   ?Subroutine17 & 0xFFFF
??CrossCallReturnLabel_23:
        INC     DPTR
        MOV     ?V0 + 0,DPL
        MOV     ?V0 + 1,DPH
        ; Setup parameters for call to function AssocCount
        MOVX    A,@DPTR
        MOV     R2,A
        MOV     DPL,R6
        MOV     DPH,R7
        MOVX    A,@DPTR
        MOV     R1,A
        LCALL   ??AssocCount?relay
        MOV     A,R2
        MOV     DPL,R6
        MOV     DPH,R7
        MOVX    @DPTR,A
        MOV     DPL,?V0 + 0
        MOV     DPH,?V0 + 1
        MOV     A,R3
        MOVX    @DPTR,A
        ; Setup parameters for call to function MT_BuildAndSendZToolResponse
        MOV     A,R6
        MOV     R4,A
        MOV     A,R7
        MOV     R5,A
        MOV     R3,#0x2
        MOV     R2,?V0 + 3
        LJMP    ??MT_UtilCommandProcessing_27 & 0xFFFF
//  258       break;
//  259 
//  260     case MT_UTIL_ASSOC_FIND_DEVICE:
//  261       MT_UtilAssocFindDevice(pBuf);
??MT_UtilCommandProcessing_21:
        ; Setup parameters for call to function MT_UtilAssocFindDevice
        LCALL   ??MT_UtilAssocFindDevice?relay
//  262       break;
        SJMP    ??MT_UtilCommandProcessing_26
//  263 
//  264     case MT_UTIL_ASSOC_GET_WITH_ADDRESS:
//  265       MT_UtilAssocGetWithAddress(pBuf);
??MT_UtilCommandProcessing_22:
        ; Setup parameters for call to function MT_UtilAssocGetWithAddress
        LCALL   ??MT_UtilAssocGetWithAddress?relay
//  266       break;
        SJMP    ??MT_UtilCommandProcessing_26
//  267 
//  268 #if defined ZCL_KEY_ESTABLISH
//  269     case MT_UTIL_ZCL_KEY_EST_INIT_EST:
//  270       //MT_UtilzclGeneral_KeyEstablish_InitiateKeyEstablishment(pBuf);
//  271       break;
//  272 
//  273     case MT_UTIL_ZCL_KEY_EST_SIGN:
//  274       MT_UtilzclGeneral_KeyEstablishment_ECDSASign(pBuf);
//  275       break;
//  276 #endif
//  277 
//  278     case MT_UTIL_SYNC_REQ:
//  279       MT_UtilSync();
??MT_UtilCommandProcessing_24:
        ; Setup parameters for call to function MT_BuildAndSendZToolResponse
        MOV     R4,#0x0
        MOV     R5,#0x0
        MOV     R3,#0x0
        MOV     R2,#-0x20
        MOV     R1,#0x47
        LJMP    ??MT_UtilCommandProcessing_28 & 0xFFFF
//  280       break;
//  281 #endif /* !defined NONWK */
//  282 
//  283     default:
//  284       status = MT_RPC_ERR_COMMAND_ID;
??MT_UtilCommandProcessing_25:
        MOV     ?V0 + 2,#0x2
//  285       break;
//  286   }
//  287 
//  288   return status;
??MT_UtilCommandProcessing_26:
        MOV     R1,?V0 + 2
        MOV     A,#0x16
        LCALL   ?DEALLOC_XSTACK8
        CFI CFA_XSP16 add(XSP16, 15)
        MOV     R7,#0x7
        LJMP    ?BANKED_LEAVE_XDATA
        CFI EndBlock cfiBlock0
//  289 }
//  290 
//  291 /***************************************************************************************************
//  292  * @fn      MT_UtilGetDeviceInfo
//  293  *
//  294  * @brief   The Get Device Info serial message.
//  295  *
//  296  * @param   None.
//  297  *
//  298  * @return  void
//  299  ***************************************************************************************************/

        RSEG BANKED_CODE:CODE:NOROOT(0)
//  300 void MT_UtilGetDeviceInfo(void)
MT_UtilGetDeviceInfo:
        CFI Block cfiBlock1 Using cfiCommon0
        CFI Function MT_UtilGetDeviceInfo
        CODE
//  301 {
        FUNCALL MT_UtilGetDeviceInfo, AssocMakeList
        LOCFRAME ISTACK, 0, STACK
        LOCFRAME PSTACK, 0, STACK
        LOCFRAME XSTACK, 17, STACK
        LOCFRAME IOVERLAY, 0, STATIC
        LOCFRAME DOVERLAY, 0, STATIC
        ARGFRAME ISTACK, 0, STACK
        ARGFRAME PSTACK, 0, STACK
        ARGFRAME XSTACK, 17, STACK
        ARGFRAME IOVERLAY, 0, STATIC
        ARGFRAME DOVERLAY, 0, STATIC
        FUNCALL MT_UtilGetDeviceInfo, osal_mem_alloc
        LOCFRAME ISTACK, 0, STACK
        LOCFRAME PSTACK, 0, STACK
        LOCFRAME XSTACK, 17, STACK
        LOCFRAME IOVERLAY, 0, STATIC
        LOCFRAME DOVERLAY, 0, STATIC
        ARGFRAME ISTACK, 0, STACK
        ARGFRAME PSTACK, 0, STACK
        ARGFRAME XSTACK, 17, STACK
        ARGFRAME IOVERLAY, 0, STATIC
        ARGFRAME DOVERLAY, 0, STATIC
        FUNCALL MT_UtilGetDeviceInfo, osal_nv_read
        LOCFRAME ISTACK, 0, STACK
        LOCFRAME PSTACK, 0, STACK
        LOCFRAME XSTACK, 21, STACK
        LOCFRAME IOVERLAY, 0, STATIC
        LOCFRAME DOVERLAY, 0, STATIC
        ARGFRAME ISTACK, 0, STACK
        ARGFRAME PSTACK, 0, STACK
        ARGFRAME XSTACK, 21, STACK
        ARGFRAME IOVERLAY, 0, STATIC
        ARGFRAME DOVERLAY, 0, STATIC
        FUNCALL MT_UtilGetDeviceInfo, NLME_GetShortAddr
        LOCFRAME ISTACK, 0, STACK
        LOCFRAME PSTACK, 0, STACK
        LOCFRAME XSTACK, 17, STACK
        LOCFRAME IOVERLAY, 0, STATIC
        LOCFRAME DOVERLAY, 0, STATIC
        ARGFRAME ISTACK, 0, STACK
        ARGFRAME PSTACK, 0, STACK
        ARGFRAME XSTACK, 17, STACK
        ARGFRAME IOVERLAY, 0, STATIC
        ARGFRAME DOVERLAY, 0, STATIC
        FUNCALL MT_UtilGetDeviceInfo, MT_BuildAndSendZToolResponse
        LOCFRAME ISTACK, 0, STACK
        LOCFRAME PSTACK, 0, STACK
        LOCFRAME XSTACK, 17, STACK
        LOCFRAME IOVERLAY, 0, STATIC
        LOCFRAME DOVERLAY, 0, STATIC
        ARGFRAME ISTACK, 0, STACK
        ARGFRAME PSTACK, 0, STACK
        ARGFRAME XSTACK, 17, STACK
        ARGFRAME IOVERLAY, 0, STATIC
        ARGFRAME DOVERLAY, 0, STATIC
        FUNCALL MT_UtilGetDeviceInfo, osal_mem_free
        LOCFRAME ISTACK, 0, STACK
        LOCFRAME PSTACK, 0, STACK
        LOCFRAME XSTACK, 17, STACK
        LOCFRAME IOVERLAY, 0, STATIC
        LOCFRAME DOVERLAY, 0, STATIC
        ARGFRAME ISTACK, 0, STACK
        ARGFRAME PSTACK, 0, STACK
        ARGFRAME XSTACK, 17, STACK
        ARGFRAME IOVERLAY, 0, STATIC
        ARGFRAME DOVERLAY, 0, STATIC
        FUNCALL MT_UtilGetDeviceInfo, osal_mem_free
        LOCFRAME ISTACK, 0, STACK
        LOCFRAME PSTACK, 0, STACK
        LOCFRAME XSTACK, 17, STACK
        LOCFRAME IOVERLAY, 0, STATIC
        LOCFRAME DOVERLAY, 0, STATIC
        ARGFRAME ISTACK, 0, STACK
        ARGFRAME PSTACK, 0, STACK
        ARGFRAME XSTACK, 17, STACK
        ARGFRAME IOVERLAY, 0, STATIC
        ARGFRAME DOVERLAY, 0, STATIC
        MOV     A,#-0x10
        LCALL   ?BANKED_ENTER_XDATA
        CFI DPH0 load(1, XDATA, add(CFA_XSP16, literal(-1)))
        CFI DPL0 load(1, XDATA, add(CFA_XSP16, literal(-2)))
        CFI ?BRET_EXT load(1, XDATA, add(CFA_XSP16, literal(-3)))
        CFI ?RET_HIGH load(1, XDATA, add(CFA_XSP16, literal(-4)))
        CFI ?RET_LOW load(1, XDATA, add(CFA_XSP16, literal(-5)))
        CFI R7 load(1, XDATA, add(CFA_XSP16, literal(-6)))
        CFI V7 load(1, XDATA, add(CFA_XSP16, literal(-7)))
        CFI V6 load(1, XDATA, add(CFA_XSP16, literal(-8)))
        CFI V5 load(1, XDATA, add(CFA_XSP16, literal(-9)))
        CFI V4 load(1, XDATA, add(CFA_XSP16, literal(-10)))
        CFI V3 load(1, XDATA, add(CFA_XSP16, literal(-11)))
        CFI V2 load(1, XDATA, add(CFA_XSP16, literal(-12)))
        CFI V1 load(1, XDATA, add(CFA_XSP16, literal(-13)))
        CFI V0 load(1, XDATA, add(CFA_XSP16, literal(-14)))
        CFI VB load(1, XDATA, add(CFA_XSP16, literal(-15)))
        CFI R6 load(1, XDATA, add(CFA_XSP16, literal(-16)))
        CFI CFA_SP SP+0
        CFI CFA_XSP16 add(XSP16, 16)
        ; Saved register size: 16
        ; Auto size: 1
        MOV     A,#-0x1
        LCALL   ?ALLOC_XSTACK8
        CFI CFA_XSP16 add(XSP16, 17)
//  302   uint8  *buf;
//  303   uint8  *pBuf;
//  304   uint8  bufLen = MT_UTIL_DEVICE_INFO_RESPONSE_LEN;
        MOV     ?V0 + 2,#0xe
//  305   uint16 *assocList = NULL;
        MOV     R6,#0x0
        MOV     R7,#0x0
//  306 
//  307 #if !defined NONWK
//  308   uint8  assocCnt = 0;
        MOV     DPL,?XSP + 0
        MOV     DPH,?XSP + 1
        CLR     A
        MOVX    @DPTR,A
//  309 
//  310   if (ZG_DEVICE_RTR_TYPE)
        MOV     DPTR,#zgDeviceLogicalType
        MOVX    A,@DPTR
        JZ      ??MT_UtilGetDeviceInfo_0
        XRL     A,#0x1
        JNZ     ??MT_UtilGetDeviceInfo_1
//  311   {
//  312     assocList = AssocMakeList( &assocCnt );
??MT_UtilGetDeviceInfo_0:
        ; Setup parameters for call to function AssocMakeList
        MOV     DPL,?XSP + 0
        MOV     DPH,?XSP + 1
        MOV     R2,DPL
        MOV     R3,DPH
        LCALL   ??AssocMakeList?relay
        MOV     ?V0 + 0,R2
        MOV     ?V0 + 1,R3
        MOV     R6,?V0 + 0
        MOV     R7,?V0 + 1
//  313     bufLen += (assocCnt * sizeof(uint16));
        MOV     DPL,?XSP + 0
        MOV     DPH,?XSP + 1
        MOVX    A,@DPTR
        CLR     C
        RLC     A
        ADD     A,#0xe
        MOV     ?V0 + 2,A
//  314   }
//  315 #endif
//  316 
//  317   buf = osal_mem_alloc( bufLen );
??MT_UtilGetDeviceInfo_1:
        ; Setup parameters for call to function osal_mem_alloc
        MOV     ?V0 + 0,?V0 + 2
        MOV     R2,?V0 + 0
        MOV     R3,#0x0
        LCALL   ??osal_mem_alloc?relay
        MOV     ?V0 + 0,R2
        MOV     ?V0 + 1,R3
//  318   if ( buf )
        MOV     A,R2
        ORL     A,?V0 + 1
        JNZ     $+5
        LJMP    ??MT_UtilGetDeviceInfo_2 & 0xFFFF
//  319   {
//  320     pBuf = buf;
//  321 
//  322     *pBuf++ = ZSUCCESS; // Status
        MOV     DPL,R2
        MOV     DPH,R3
        CLR     A
        LCALL   ?Subroutine23 & 0xFFFF
//  323 
//  324     osal_nv_read( ZCD_NV_EXTADDR, 0, Z_EXTADDR_LEN, pBuf );
??CrossCallReturnLabel_29:
        ; Setup parameters for call to function osal_nv_read
        MOV     R0,#?V0 + 4
        LCALL   ?PUSH_XSTACK_I_TWO
        CFI CFA_XSP16 add(XSP16, 19)
        MOV     ?V0 + 6,#0x8
        MOV     ?V0 + 7,#0x0
        MOV     R0,#?V0 + 6
        LCALL   ?PUSH_XSTACK_I_TWO
        CFI CFA_XSP16 add(XSP16, 21)
        LCALL   ?Subroutine22 & 0xFFFF
??CrossCallReturnLabel_52:
        LCALL   ?DEALLOC_XSTACK8
        CFI CFA_XSP16 add(XSP16, 17)
//  325     pBuf += Z_EXTADDR_LEN;
        MOV     A,?V0 + 4
        ADD     A,#0x8
        MOV     ?V0 + 4,A
        MOV     A,?V0 + 5
        ADDC    A,#0x0
        MOV     ?V0 + 5,A
//  326 
//  327 #if defined NONWK
//  328     // Skip past ZStack only parameters for NONWK
//  329     *pBuf++ = 0;
//  330     *pBuf++ = 0;
//  331     *pBuf++ = 0;
//  332     *pBuf++ = 0;
//  333     *pBuf = 0;
//  334 #else
//  335     {
//  336       uint16 shortAddr = NLME_GetShortAddr();
        ; Setup parameters for call to function NLME_GetShortAddr
        LCALL   ??NLME_GetShortAddr?relay
//  337       *pBuf++ = LO_UINT16( shortAddr );
        MOV     A,R2
        MOV     DPL,?V0 + 4
        MOV     DPH,?V0 + 5
        MOVX    @DPTR,A
        INC     DPTR
//  338       *pBuf++ = HI_UINT16( shortAddr );
        MOV     A,R3
        MOVX    @DPTR,A
        INC     DPTR
//  339     }
//  340 
//  341     /* Return device type */
//  342     *pBuf++ = ZSTACK_DEVICE_BUILD;
        MOV     A,#0x2
        LCALL   ?Subroutine23 & 0xFFFF
//  343 
//  344     /*Return device state */
//  345     *pBuf++ = (uint8)devState;
??CrossCallReturnLabel_30:
        MOV     DPTR,#devState
        LCALL   ?Subroutine6 & 0xFFFF
//  346 
//  347     if (ZG_DEVICE_RTR_TYPE)
??CrossCallReturnLabel_0:
        MOV     DPTR,#zgDeviceLogicalType
        MOVX    A,@DPTR
        JZ      ??MT_UtilGetDeviceInfo_3
        XRL     A,#0x1
        JNZ     ??MT_UtilGetDeviceInfo_4
//  348     {
//  349       *pBuf++ = assocCnt;
??MT_UtilGetDeviceInfo_3:
        MOV     DPL,?XSP + 0
        MOV     DPH,?XSP + 1
        LCALL   ?Subroutine6 & 0xFFFF
//  350 
//  351       if ( assocCnt )
??CrossCallReturnLabel_1:
        MOV     DPL,?XSP + 0
        MOV     DPH,?XSP + 1
        MOVX    A,@DPTR
        JZ      ??MT_UtilGetDeviceInfo_5
//  352       {
//  353         uint8 x;
//  354         uint16 *puint16 = assocList;
        MOV     A,R6
        MOV     R0,A
        MOV     A,R7
        MOV     R1,A
//  355 
//  356         for ( x = 0; x < assocCnt; x++, puint16++ )
        MOV     R4,#0x0
??MT_UtilGetDeviceInfo_6:
        MOV     DPL,?XSP + 0
        MOV     DPH,?XSP + 1
        MOVX    A,@DPTR
        MOV     R2,A
        MOV     A,R4
        CLR     C
        SUBB    A,R2
        JNC     ??MT_UtilGetDeviceInfo_5
//  357         {
//  358           *pBuf++ = LO_UINT16( *puint16 );
        MOV     DPL,R0
        MOV     DPH,R1
        LCALL   ?Subroutine6 & 0xFFFF
//  359           *pBuf++ = HI_UINT16( *puint16 );
??CrossCallReturnLabel_2:
        MOV     DPL,R0
        MOV     DPH,R1
        INC     DPTR
        LCALL   ?Subroutine6 & 0xFFFF
//  360         }
??CrossCallReturnLabel_3:
        INC     R4
        MOV     A,R0
        ADD     A,#0x2
        INC     R0
        INC     R0
        MOV     A,R1
        ADDC    A,#0x0
        MOV     R1,A
        SJMP    ??MT_UtilGetDeviceInfo_6
//  361       }
//  362     }
//  363     else
//  364     {
//  365       *pBuf++ = 0;
??MT_UtilGetDeviceInfo_4:
        MOV     DPL,?V0 + 4
        MOV     DPH,?V0 + 5
        CLR     A
        MOVX    @DPTR,A
//  366     }
//  367 #endif
//  368 
//  369     MT_BuildAndSendZToolResponse( ((uint8)MT_RPC_CMD_SRSP | (uint8)MT_RPC_SYS_UTIL),
//  370                                  MT_UTIL_GET_DEVICE_INFO,
//  371                                  bufLen, buf );
??MT_UtilGetDeviceInfo_5:
        ; Setup parameters for call to function MT_BuildAndSendZToolResponse
        MOV     R4,?V0 + 0
        MOV     R5,?V0 + 1
        MOV     R3,?V0 + 2
        MOV     R2,#0x0
        MOV     R1,#0x67
        LCALL   ??MT_BuildAndSendZToolResponse?relay
//  372 
//  373     osal_mem_free( buf );
        ; Setup parameters for call to function osal_mem_free
        MOV     R2,?V0 + 0
        MOV     R3,?V0 + 1
        LCALL   ??osal_mem_free?relay
//  374   }
//  375 
//  376   if ( assocList )
??MT_UtilGetDeviceInfo_2:
        MOV     A,R6
        ORL     A,R7
        JZ      ??MT_UtilGetDeviceInfo_7
//  377   {
//  378     osal_mem_free( assocList );
        ; Setup parameters for call to function osal_mem_free
        MOV     A,R6
        MOV     R2,A
        MOV     A,R7
        MOV     R3,A
        LCALL   ??osal_mem_free?relay
//  379   }
//  380 }
??MT_UtilGetDeviceInfo_7:
        MOV     A,#0x1
        CFI EndBlock cfiBlock1
        REQUIRE ?Subroutine0
        ; // Fall through to label ?Subroutine0

        RSEG BANKED_CODE:CODE:NOROOT(0)
?Subroutine0:
        CFI Block cfiBlock2 Using cfiCommon0
        CFI NoFunction
        CFI CFA_SP SP+0
        CFI CFA_XSP16 add(XSP16, 17)
        CFI VB load(1, XDATA, add(CFA_XSP16, literal(-15)))
        CFI DPL0 load(1, XDATA, add(CFA_XSP16, literal(-2)))
        CFI DPH0 load(1, XDATA, add(CFA_XSP16, literal(-1)))
        CFI R6 load(1, XDATA, add(CFA_XSP16, literal(-16)))
        CFI R7 load(1, XDATA, add(CFA_XSP16, literal(-6)))
        CFI V0 load(1, XDATA, add(CFA_XSP16, literal(-14)))
        CFI V1 load(1, XDATA, add(CFA_XSP16, literal(-13)))
        CFI V2 load(1, XDATA, add(CFA_XSP16, literal(-12)))
        CFI V3 load(1, XDATA, add(CFA_XSP16, literal(-11)))
        CFI V4 load(1, XDATA, add(CFA_XSP16, literal(-10)))
        CFI V5 load(1, XDATA, add(CFA_XSP16, literal(-9)))
        CFI V6 load(1, XDATA, add(CFA_XSP16, literal(-8)))
        CFI V7 load(1, XDATA, add(CFA_XSP16, literal(-7)))
        CFI ?BRET_EXT load(1, XDATA, add(CFA_XSP16, literal(-3)))
        CFI ?RET_HIGH load(1, XDATA, add(CFA_XSP16, literal(-4)))
        CFI ?RET_LOW load(1, XDATA, add(CFA_XSP16, literal(-5)))
        CFI Invalid
        LCALL   ?DEALLOC_XSTACK8
        CFI CFA_XSP16 add(XSP16, 16)
        CFI Valid
        MOV     R7,#0x8
        LJMP    ?BANKED_LEAVE_XDATA
        CFI EndBlock cfiBlock2

        RSEG BANKED_CODE:CODE:NOROOT(0)
?Subroutine23:
        CFI Block cfiCond3 Using cfiCommon0
        CFI NoFunction
        CFI Conditional ??CrossCallReturnLabel_29
        CFI R6 load(1, XDATA, add(CFA_XSP16, literal(-16)))
        CFI VB load(1, XDATA, add(CFA_XSP16, literal(-15)))
        CFI V0 load(1, XDATA, add(CFA_XSP16, literal(-14)))
        CFI V1 load(1, XDATA, add(CFA_XSP16, literal(-13)))
        CFI V2 load(1, XDATA, add(CFA_XSP16, literal(-12)))
        CFI V3 load(1, XDATA, add(CFA_XSP16, literal(-11)))
        CFI V4 load(1, XDATA, add(CFA_XSP16, literal(-10)))
        CFI V5 load(1, XDATA, add(CFA_XSP16, literal(-9)))
        CFI V6 load(1, XDATA, add(CFA_XSP16, literal(-8)))
        CFI V7 load(1, XDATA, add(CFA_XSP16, literal(-7)))
        CFI R7 load(1, XDATA, add(CFA_XSP16, literal(-6)))
        CFI ?RET_LOW load(1, XDATA, add(CFA_XSP16, literal(-5)))
        CFI ?RET_HIGH load(1, XDATA, add(CFA_XSP16, literal(-4)))
        CFI ?BRET_EXT load(1, XDATA, add(CFA_XSP16, literal(-3)))
        CFI DPL0 load(1, XDATA, add(CFA_XSP16, literal(-2)))
        CFI DPH0 load(1, XDATA, add(CFA_XSP16, literal(-1)))
        CFI CFA_SP SP+0
        CFI CFA_XSP16 add(XSP16, 17)
        CFI Block cfiCond4 Using cfiCommon0
        CFI (cfiCond4) NoFunction
        CFI (cfiCond4) Conditional ??CrossCallReturnLabel_30
        CFI (cfiCond4) R6 load(1, XDATA, add(CFA_XSP16, literal(-16)))
        CFI (cfiCond4) VB load(1, XDATA, add(CFA_XSP16, literal(-15)))
        CFI (cfiCond4) V0 load(1, XDATA, add(CFA_XSP16, literal(-14)))
        CFI (cfiCond4) V1 load(1, XDATA, add(CFA_XSP16, literal(-13)))
        CFI (cfiCond4) V2 load(1, XDATA, add(CFA_XSP16, literal(-12)))
        CFI (cfiCond4) V3 load(1, XDATA, add(CFA_XSP16, literal(-11)))
        CFI (cfiCond4) V4 load(1, XDATA, add(CFA_XSP16, literal(-10)))
        CFI (cfiCond4) V5 load(1, XDATA, add(CFA_XSP16, literal(-9)))
        CFI (cfiCond4) V6 load(1, XDATA, add(CFA_XSP16, literal(-8)))
        CFI (cfiCond4) V7 load(1, XDATA, add(CFA_XSP16, literal(-7)))
        CFI (cfiCond4) R7 load(1, XDATA, add(CFA_XSP16, literal(-6)))
        CFI (cfiCond4) ?RET_LOW load(1, XDATA, add(CFA_XSP16, literal(-5)))
        CFI (cfiCond4) ?RET_HIGH load(1, XDATA, add(CFA_XSP16, literal(-4)))
        CFI (cfiCond4) ?BRET_EXT load(1, XDATA, add(CFA_XSP16, literal(-3)))
        CFI (cfiCond4) DPL0 load(1, XDATA, add(CFA_XSP16, literal(-2)))
        CFI (cfiCond4) DPH0 load(1, XDATA, add(CFA_XSP16, literal(-1)))
        CFI (cfiCond4) CFA_SP SP+0
        CFI (cfiCond4) CFA_XSP16 add(XSP16, 17)
        CFI Block cfiPicker5 Using cfiCommon1
        CFI (cfiPicker5) NoFunction
        CFI (cfiPicker5) Picker
        LCALL   ?Subroutine34 & 0xFFFF
??CrossCallReturnLabel_51:
        RET
        CFI EndBlock cfiCond3
        CFI EndBlock cfiCond4
        CFI EndBlock cfiPicker5

        RSEG BANKED_CODE:CODE:NOROOT(0)
?Subroutine22:
        CFI Block cfiCond6 Using cfiCommon0
        CFI NoFunction
        CFI Conditional ??CrossCallReturnLabel_52
        CFI R6 load(1, XDATA, add(CFA_XSP16, literal(-16)))
        CFI VB load(1, XDATA, add(CFA_XSP16, literal(-15)))
        CFI V0 load(1, XDATA, add(CFA_XSP16, literal(-14)))
        CFI V1 load(1, XDATA, add(CFA_XSP16, literal(-13)))
        CFI V2 load(1, XDATA, add(CFA_XSP16, literal(-12)))
        CFI V3 load(1, XDATA, add(CFA_XSP16, literal(-11)))
        CFI V4 load(1, XDATA, add(CFA_XSP16, literal(-10)))
        CFI V5 load(1, XDATA, add(CFA_XSP16, literal(-9)))
        CFI V6 load(1, XDATA, add(CFA_XSP16, literal(-8)))
        CFI V7 load(1, XDATA, add(CFA_XSP16, literal(-7)))
        CFI R7 load(1, XDATA, add(CFA_XSP16, literal(-6)))
        CFI ?RET_LOW load(1, XDATA, add(CFA_XSP16, literal(-5)))
        CFI ?RET_HIGH load(1, XDATA, add(CFA_XSP16, literal(-4)))
        CFI ?BRET_EXT load(1, XDATA, add(CFA_XSP16, literal(-3)))
        CFI DPL0 load(1, XDATA, add(CFA_XSP16, literal(-2)))
        CFI DPH0 load(1, XDATA, add(CFA_XSP16, literal(-1)))
        CFI CFA_SP SP+0
        CFI CFA_XSP16 add(XSP16, 21)
        CFI Block cfiCond7 Using cfiCommon0
        CFI (cfiCond7) NoFunction
        CFI (cfiCond7) Conditional ??CrossCallReturnLabel_53
        CFI (cfiCond7) R6 load(1, XDATA, add(CFA_XSP16, literal(-16)))
        CFI (cfiCond7) VB load(1, XDATA, add(CFA_XSP16, literal(-15)))
        CFI (cfiCond7) V0 load(1, XDATA, add(CFA_XSP16, literal(-14)))
        CFI (cfiCond7) V1 load(1, XDATA, add(CFA_XSP16, literal(-13)))
        CFI (cfiCond7) V2 load(1, XDATA, add(CFA_XSP16, literal(-12)))
        CFI (cfiCond7) V3 load(1, XDATA, add(CFA_XSP16, literal(-11)))
        CFI (cfiCond7) V4 load(1, XDATA, add(CFA_XSP16, literal(-10)))
        CFI (cfiCond7) V5 load(1, XDATA, add(CFA_XSP16, literal(-9)))
        CFI (cfiCond7) V6 load(1, XDATA, add(CFA_XSP16, literal(-8)))
        CFI (cfiCond7) V7 load(1, XDATA, add(CFA_XSP16, literal(-7)))
        CFI (cfiCond7) R7 load(1, XDATA, add(CFA_XSP16, literal(-6)))
        CFI (cfiCond7) ?RET_LOW load(1, XDATA, add(CFA_XSP16, literal(-5)))
        CFI (cfiCond7) ?RET_HIGH load(1, XDATA, add(CFA_XSP16, literal(-4)))
        CFI (cfiCond7) ?BRET_EXT load(1, XDATA, add(CFA_XSP16, literal(-3)))
        CFI (cfiCond7) DPL0 load(1, XDATA, add(CFA_XSP16, literal(-2)))
        CFI (cfiCond7) DPH0 load(1, XDATA, add(CFA_XSP16, literal(-1)))
        CFI (cfiCond7) CFA_SP SP+0
        CFI (cfiCond7) CFA_XSP16 add(XSP16, 26)
        CFI Block cfiPicker8 Using cfiCommon1
        CFI (cfiPicker8) NoFunction
        CFI (cfiPicker8) Picker
        MOV     R4,#0x0
        MOV     R5,#0x0
        MOV     R2,#0x1
        CFI EndBlock cfiCond6
        CFI EndBlock cfiCond7
        CFI EndBlock cfiPicker8
        REQUIRE ??Subroutine37_0
        ; // Fall through to label ??Subroutine37_0

        RSEG BANKED_CODE:CODE:NOROOT(0)
??Subroutine37_0:
        CFI Block cfiCond9 Using cfiCommon0
        CFI NoFunction
        CFI Conditional ??CrossCallReturnLabel_54
        CFI R6 load(1, XDATA, add(CFA_XSP16, literal(-16)))
        CFI VB load(1, XDATA, add(CFA_XSP16, literal(-15)))
        CFI V0 load(1, XDATA, add(CFA_XSP16, literal(-14)))
        CFI V1 load(1, XDATA, add(CFA_XSP16, literal(-13)))
        CFI V2 load(1, XDATA, add(CFA_XSP16, literal(-12)))
        CFI V3 load(1, XDATA, add(CFA_XSP16, literal(-11)))
        CFI V4 load(1, XDATA, add(CFA_XSP16, literal(-10)))
        CFI V5 load(1, XDATA, add(CFA_XSP16, literal(-9)))
        CFI V6 load(1, XDATA, add(CFA_XSP16, literal(-8)))
        CFI V7 load(1, XDATA, add(CFA_XSP16, literal(-7)))
        CFI R7 load(1, XDATA, add(CFA_XSP16, literal(-6)))
        CFI ?RET_LOW load(1, XDATA, add(CFA_XSP16, literal(-5)))
        CFI ?RET_HIGH load(1, XDATA, add(CFA_XSP16, literal(-4)))
        CFI ?BRET_EXT load(1, XDATA, add(CFA_XSP16, literal(-3)))
        CFI DPL0 load(1, XDATA, add(CFA_XSP16, literal(-2)))
        CFI DPH0 load(1, XDATA, add(CFA_XSP16, literal(-1)))
        CFI CFA_SP SP+0
        CFI CFA_XSP16 add(XSP16, 26)
        CFI Block cfiCond10 Using cfiCommon0
        CFI (cfiCond10) NoFunction
        CFI (cfiCond10) Conditional ??CrossCallReturnLabel_55
        CFI (cfiCond10) R6 load(1, XDATA, add(CFA_XSP16, literal(-16)))
        CFI (cfiCond10) VB load(1, XDATA, add(CFA_XSP16, literal(-15)))
        CFI (cfiCond10) V0 load(1, XDATA, add(CFA_XSP16, literal(-14)))
        CFI (cfiCond10) V1 load(1, XDATA, add(CFA_XSP16, literal(-13)))
        CFI (cfiCond10) V2 load(1, XDATA, add(CFA_XSP16, literal(-12)))
        CFI (cfiCond10) V3 load(1, XDATA, add(CFA_XSP16, literal(-11)))
        CFI (cfiCond10) V4 load(1, XDATA, add(CFA_XSP16, literal(-10)))
        CFI (cfiCond10) V5 load(1, XDATA, add(CFA_XSP16, literal(-9)))
        CFI (cfiCond10) V6 load(1, XDATA, add(CFA_XSP16, literal(-8)))
        CFI (cfiCond10) V7 load(1, XDATA, add(CFA_XSP16, literal(-7)))
        CFI (cfiCond10) R7 load(1, XDATA, add(CFA_XSP16, literal(-6)))
        CFI (cfiCond10) ?RET_LOW load(1, XDATA, add(CFA_XSP16, literal(-5)))
        CFI (cfiCond10) ?RET_HIGH load(1, XDATA, add(CFA_XSP16, literal(-4)))
        CFI (cfiCond10) ?BRET_EXT load(1, XDATA, add(CFA_XSP16, literal(-3)))
        CFI (cfiCond10) DPL0 load(1, XDATA, add(CFA_XSP16, literal(-2)))
        CFI (cfiCond10) DPH0 load(1, XDATA, add(CFA_XSP16, literal(-1)))
        CFI (cfiCond10) CFA_SP SP+0
        CFI (cfiCond10) CFA_XSP16 add(XSP16, 26)
        CFI Block cfiCond11 Using cfiCommon0
        CFI (cfiCond11) NoFunction
        CFI (cfiCond11) Conditional ??CrossCallReturnLabel_56
        CFI (cfiCond11) R6 load(1, XDATA, add(CFA_XSP16, literal(-16)))
        CFI (cfiCond11) VB load(1, XDATA, add(CFA_XSP16, literal(-15)))
        CFI (cfiCond11) V0 load(1, XDATA, add(CFA_XSP16, literal(-14)))
        CFI (cfiCond11) V1 load(1, XDATA, add(CFA_XSP16, literal(-13)))
        CFI (cfiCond11) V2 load(1, XDATA, add(CFA_XSP16, literal(-12)))
        CFI (cfiCond11) V3 load(1, XDATA, add(CFA_XSP16, literal(-11)))
        CFI (cfiCond11) V4 load(1, XDATA, add(CFA_XSP16, literal(-10)))
        CFI (cfiCond11) V5 load(1, XDATA, add(CFA_XSP16, literal(-9)))
        CFI (cfiCond11) V6 load(1, XDATA, add(CFA_XSP16, literal(-8)))
        CFI (cfiCond11) V7 load(1, XDATA, add(CFA_XSP16, literal(-7)))
        CFI (cfiCond11) R7 load(1, XDATA, add(CFA_XSP16, literal(-6)))
        CFI (cfiCond11) ?RET_LOW load(1, XDATA, add(CFA_XSP16, literal(-5)))
        CFI (cfiCond11) ?RET_HIGH load(1, XDATA, add(CFA_XSP16, literal(-4)))
        CFI (cfiCond11) ?BRET_EXT load(1, XDATA, add(CFA_XSP16, literal(-3)))
        CFI (cfiCond11) DPL0 load(1, XDATA, add(CFA_XSP16, literal(-2)))
        CFI (cfiCond11) DPH0 load(1, XDATA, add(CFA_XSP16, literal(-1)))
        CFI (cfiCond11) CFA_SP SP+0
        CFI (cfiCond11) CFA_XSP16 add(XSP16, 26)
        CFI Block cfiCond12 Using cfiCommon0
        CFI (cfiCond12) NoFunction
        CFI (cfiCond12) Conditional ??CrossCallReturnLabel_57
        CFI (cfiCond12) R6 load(1, XDATA, add(CFA_XSP16, literal(-16)))
        CFI (cfiCond12) VB load(1, XDATA, add(CFA_XSP16, literal(-15)))
        CFI (cfiCond12) V0 load(1, XDATA, add(CFA_XSP16, literal(-14)))
        CFI (cfiCond12) V1 load(1, XDATA, add(CFA_XSP16, literal(-13)))
        CFI (cfiCond12) V2 load(1, XDATA, add(CFA_XSP16, literal(-12)))
        CFI (cfiCond12) V3 load(1, XDATA, add(CFA_XSP16, literal(-11)))
        CFI (cfiCond12) V4 load(1, XDATA, add(CFA_XSP16, literal(-10)))
        CFI (cfiCond12) V5 load(1, XDATA, add(CFA_XSP16, literal(-9)))
        CFI (cfiCond12) V6 load(1, XDATA, add(CFA_XSP16, literal(-8)))
        CFI (cfiCond12) V7 load(1, XDATA, add(CFA_XSP16, literal(-7)))
        CFI (cfiCond12) R7 load(1, XDATA, add(CFA_XSP16, literal(-6)))
        CFI (cfiCond12) ?RET_LOW load(1, XDATA, add(CFA_XSP16, literal(-5)))
        CFI (cfiCond12) ?RET_HIGH load(1, XDATA, add(CFA_XSP16, literal(-4)))
        CFI (cfiCond12) ?BRET_EXT load(1, XDATA, add(CFA_XSP16, literal(-3)))
        CFI (cfiCond12) DPL0 load(1, XDATA, add(CFA_XSP16, literal(-2)))
        CFI (cfiCond12) DPH0 load(1, XDATA, add(CFA_XSP16, literal(-1)))
        CFI (cfiCond12) CFA_SP SP+0
        CFI (cfiCond12) CFA_XSP16 add(XSP16, 26)
        CFI Block cfiCond13 Using cfiCommon0
        CFI (cfiCond13) NoFunction
        CFI (cfiCond13) Conditional ??CrossCallReturnLabel_52
        CFI (cfiCond13) R6 load(1, XDATA, add(CFA_XSP16, literal(-16)))
        CFI (cfiCond13) VB load(1, XDATA, add(CFA_XSP16, literal(-15)))
        CFI (cfiCond13) V0 load(1, XDATA, add(CFA_XSP16, literal(-14)))
        CFI (cfiCond13) V1 load(1, XDATA, add(CFA_XSP16, literal(-13)))
        CFI (cfiCond13) V2 load(1, XDATA, add(CFA_XSP16, literal(-12)))
        CFI (cfiCond13) V3 load(1, XDATA, add(CFA_XSP16, literal(-11)))
        CFI (cfiCond13) V4 load(1, XDATA, add(CFA_XSP16, literal(-10)))
        CFI (cfiCond13) V5 load(1, XDATA, add(CFA_XSP16, literal(-9)))
        CFI (cfiCond13) V6 load(1, XDATA, add(CFA_XSP16, literal(-8)))
        CFI (cfiCond13) V7 load(1, XDATA, add(CFA_XSP16, literal(-7)))
        CFI (cfiCond13) R7 load(1, XDATA, add(CFA_XSP16, literal(-6)))
        CFI (cfiCond13) ?RET_LOW load(1, XDATA, add(CFA_XSP16, literal(-5)))
        CFI (cfiCond13) ?RET_HIGH load(1, XDATA, add(CFA_XSP16, literal(-4)))
        CFI (cfiCond13) ?BRET_EXT load(1, XDATA, add(CFA_XSP16, literal(-3)))
        CFI (cfiCond13) DPL0 load(1, XDATA, add(CFA_XSP16, literal(-2)))
        CFI (cfiCond13) DPH0 load(1, XDATA, add(CFA_XSP16, literal(-1)))
        CFI (cfiCond13) CFA_SP SP+0
        CFI (cfiCond13) CFA_XSP16 add(XSP16, 21)
        CFI Block cfiCond14 Using cfiCommon0
        CFI (cfiCond14) NoFunction
        CFI (cfiCond14) Conditional ??CrossCallReturnLabel_53
        CFI (cfiCond14) R6 load(1, XDATA, add(CFA_XSP16, literal(-16)))
        CFI (cfiCond14) VB load(1, XDATA, add(CFA_XSP16, literal(-15)))
        CFI (cfiCond14) V0 load(1, XDATA, add(CFA_XSP16, literal(-14)))
        CFI (cfiCond14) V1 load(1, XDATA, add(CFA_XSP16, literal(-13)))
        CFI (cfiCond14) V2 load(1, XDATA, add(CFA_XSP16, literal(-12)))
        CFI (cfiCond14) V3 load(1, XDATA, add(CFA_XSP16, literal(-11)))
        CFI (cfiCond14) V4 load(1, XDATA, add(CFA_XSP16, literal(-10)))
        CFI (cfiCond14) V5 load(1, XDATA, add(CFA_XSP16, literal(-9)))
        CFI (cfiCond14) V6 load(1, XDATA, add(CFA_XSP16, literal(-8)))
        CFI (cfiCond14) V7 load(1, XDATA, add(CFA_XSP16, literal(-7)))
        CFI (cfiCond14) R7 load(1, XDATA, add(CFA_XSP16, literal(-6)))
        CFI (cfiCond14) ?RET_LOW load(1, XDATA, add(CFA_XSP16, literal(-5)))
        CFI (cfiCond14) ?RET_HIGH load(1, XDATA, add(CFA_XSP16, literal(-4)))
        CFI (cfiCond14) ?BRET_EXT load(1, XDATA, add(CFA_XSP16, literal(-3)))
        CFI (cfiCond14) DPL0 load(1, XDATA, add(CFA_XSP16, literal(-2)))
        CFI (cfiCond14) DPH0 load(1, XDATA, add(CFA_XSP16, literal(-1)))
        CFI (cfiCond14) CFA_SP SP+0
        CFI (cfiCond14) CFA_XSP16 add(XSP16, 26)
        CFI Block cfiPicker15 Using cfiCommon1
        CFI (cfiPicker15) NoFunction
        CFI (cfiPicker15) Picker
        MOV     R3,#0x0
        LCALL   ??osal_nv_read?relay
        MOV     A,#0x4
        RET
        CFI EndBlock cfiCond9
        CFI EndBlock cfiCond10
        CFI EndBlock cfiCond11
        CFI EndBlock cfiCond12
        CFI EndBlock cfiCond13
        CFI EndBlock cfiCond14
        CFI EndBlock cfiPicker15

        RSEG BANKED_CODE:CODE:NOROOT(0)
?Subroutine6:
        CFI Block cfiCond16 Using cfiCommon0
        CFI NoFunction
        CFI Conditional ??CrossCallReturnLabel_0
        CFI R6 load(1, XDATA, add(CFA_XSP16, literal(-16)))
        CFI VB load(1, XDATA, add(CFA_XSP16, literal(-15)))
        CFI V0 load(1, XDATA, add(CFA_XSP16, literal(-14)))
        CFI V1 load(1, XDATA, add(CFA_XSP16, literal(-13)))
        CFI V2 load(1, XDATA, add(CFA_XSP16, literal(-12)))
        CFI V3 load(1, XDATA, add(CFA_XSP16, literal(-11)))
        CFI V4 load(1, XDATA, add(CFA_XSP16, literal(-10)))
        CFI V5 load(1, XDATA, add(CFA_XSP16, literal(-9)))
        CFI V6 load(1, XDATA, add(CFA_XSP16, literal(-8)))
        CFI V7 load(1, XDATA, add(CFA_XSP16, literal(-7)))
        CFI R7 load(1, XDATA, add(CFA_XSP16, literal(-6)))
        CFI ?RET_LOW load(1, XDATA, add(CFA_XSP16, literal(-5)))
        CFI ?RET_HIGH load(1, XDATA, add(CFA_XSP16, literal(-4)))
        CFI ?BRET_EXT load(1, XDATA, add(CFA_XSP16, literal(-3)))
        CFI DPL0 load(1, XDATA, add(CFA_XSP16, literal(-2)))
        CFI DPH0 load(1, XDATA, add(CFA_XSP16, literal(-1)))
        CFI CFA_SP SP+0
        CFI CFA_XSP16 add(XSP16, 17)
        CFI Block cfiCond17 Using cfiCommon0
        CFI (cfiCond17) NoFunction
        CFI (cfiCond17) Conditional ??CrossCallReturnLabel_1
        CFI (cfiCond17) R6 load(1, XDATA, add(CFA_XSP16, literal(-16)))
        CFI (cfiCond17) VB load(1, XDATA, add(CFA_XSP16, literal(-15)))
        CFI (cfiCond17) V0 load(1, XDATA, add(CFA_XSP16, literal(-14)))
        CFI (cfiCond17) V1 load(1, XDATA, add(CFA_XSP16, literal(-13)))
        CFI (cfiCond17) V2 load(1, XDATA, add(CFA_XSP16, literal(-12)))
        CFI (cfiCond17) V3 load(1, XDATA, add(CFA_XSP16, literal(-11)))
        CFI (cfiCond17) V4 load(1, XDATA, add(CFA_XSP16, literal(-10)))
        CFI (cfiCond17) V5 load(1, XDATA, add(CFA_XSP16, literal(-9)))
        CFI (cfiCond17) V6 load(1, XDATA, add(CFA_XSP16, literal(-8)))
        CFI (cfiCond17) V7 load(1, XDATA, add(CFA_XSP16, literal(-7)))
        CFI (cfiCond17) R7 load(1, XDATA, add(CFA_XSP16, literal(-6)))
        CFI (cfiCond17) ?RET_LOW load(1, XDATA, add(CFA_XSP16, literal(-5)))
        CFI (cfiCond17) ?RET_HIGH load(1, XDATA, add(CFA_XSP16, literal(-4)))
        CFI (cfiCond17) ?BRET_EXT load(1, XDATA, add(CFA_XSP16, literal(-3)))
        CFI (cfiCond17) DPL0 load(1, XDATA, add(CFA_XSP16, literal(-2)))
        CFI (cfiCond17) DPH0 load(1, XDATA, add(CFA_XSP16, literal(-1)))
        CFI (cfiCond17) CFA_SP SP+0
        CFI (cfiCond17) CFA_XSP16 add(XSP16, 17)
        CFI Block cfiCond18 Using cfiCommon0
        CFI (cfiCond18) NoFunction
        CFI (cfiCond18) Conditional ??CrossCallReturnLabel_2
        CFI (cfiCond18) R6 load(1, XDATA, add(CFA_XSP16, literal(-16)))
        CFI (cfiCond18) VB load(1, XDATA, add(CFA_XSP16, literal(-15)))
        CFI (cfiCond18) V0 load(1, XDATA, add(CFA_XSP16, literal(-14)))
        CFI (cfiCond18) V1 load(1, XDATA, add(CFA_XSP16, literal(-13)))
        CFI (cfiCond18) V2 load(1, XDATA, add(CFA_XSP16, literal(-12)))
        CFI (cfiCond18) V3 load(1, XDATA, add(CFA_XSP16, literal(-11)))
        CFI (cfiCond18) V4 load(1, XDATA, add(CFA_XSP16, literal(-10)))
        CFI (cfiCond18) V5 load(1, XDATA, add(CFA_XSP16, literal(-9)))
        CFI (cfiCond18) V6 load(1, XDATA, add(CFA_XSP16, literal(-8)))
        CFI (cfiCond18) V7 load(1, XDATA, add(CFA_XSP16, literal(-7)))
        CFI (cfiCond18) R7 load(1, XDATA, add(CFA_XSP16, literal(-6)))
        CFI (cfiCond18) ?RET_LOW load(1, XDATA, add(CFA_XSP16, literal(-5)))
        CFI (cfiCond18) ?RET_HIGH load(1, XDATA, add(CFA_XSP16, literal(-4)))
        CFI (cfiCond18) ?BRET_EXT load(1, XDATA, add(CFA_XSP16, literal(-3)))
        CFI (cfiCond18) DPL0 load(1, XDATA, add(CFA_XSP16, literal(-2)))
        CFI (cfiCond18) DPH0 load(1, XDATA, add(CFA_XSP16, literal(-1)))
        CFI (cfiCond18) CFA_SP SP+0
        CFI (cfiCond18) CFA_XSP16 add(XSP16, 17)
        CFI Block cfiCond19 Using cfiCommon0
        CFI (cfiCond19) NoFunction
        CFI (cfiCond19) Conditional ??CrossCallReturnLabel_3
        CFI (cfiCond19) R6 load(1, XDATA, add(CFA_XSP16, literal(-16)))
        CFI (cfiCond19) VB load(1, XDATA, add(CFA_XSP16, literal(-15)))
        CFI (cfiCond19) V0 load(1, XDATA, add(CFA_XSP16, literal(-14)))
        CFI (cfiCond19) V1 load(1, XDATA, add(CFA_XSP16, literal(-13)))
        CFI (cfiCond19) V2 load(1, XDATA, add(CFA_XSP16, literal(-12)))
        CFI (cfiCond19) V3 load(1, XDATA, add(CFA_XSP16, literal(-11)))
        CFI (cfiCond19) V4 load(1, XDATA, add(CFA_XSP16, literal(-10)))
        CFI (cfiCond19) V5 load(1, XDATA, add(CFA_XSP16, literal(-9)))
        CFI (cfiCond19) V6 load(1, XDATA, add(CFA_XSP16, literal(-8)))
        CFI (cfiCond19) V7 load(1, XDATA, add(CFA_XSP16, literal(-7)))
        CFI (cfiCond19) R7 load(1, XDATA, add(CFA_XSP16, literal(-6)))
        CFI (cfiCond19) ?RET_LOW load(1, XDATA, add(CFA_XSP16, literal(-5)))
        CFI (cfiCond19) ?RET_HIGH load(1, XDATA, add(CFA_XSP16, literal(-4)))
        CFI (cfiCond19) ?BRET_EXT load(1, XDATA, add(CFA_XSP16, literal(-3)))
        CFI (cfiCond19) DPL0 load(1, XDATA, add(CFA_XSP16, literal(-2)))
        CFI (cfiCond19) DPH0 load(1, XDATA, add(CFA_XSP16, literal(-1)))
        CFI (cfiCond19) CFA_SP SP+0
        CFI (cfiCond19) CFA_XSP16 add(XSP16, 17)
        CFI Block cfiPicker20 Using cfiCommon1
        CFI (cfiPicker20) NoFunction
        CFI (cfiPicker20) Picker
        MOVX    A,@DPTR
        MOV     DPL,?V0 + 4
        MOV     DPH,?V0 + 5
        LCALL   ?Subroutine34 & 0xFFFF
??CrossCallReturnLabel_50:
        RET
        CFI EndBlock cfiCond16
        CFI EndBlock cfiCond17
        CFI EndBlock cfiCond18
        CFI EndBlock cfiCond19
        CFI EndBlock cfiPicker20

        RSEG BANKED_CODE:CODE:NOROOT(0)
?Subroutine34:
        CFI Block cfiCond21 Using cfiCommon0
        CFI NoFunction
        CFI Conditional ??CrossCallReturnLabel_51, ??CrossCallReturnLabel_29
        CFI R6 load(1, XDATA, add(CFA_XSP16, literal(-16)))
        CFI VB load(1, XDATA, add(CFA_XSP16, literal(-15)))
        CFI V0 load(1, XDATA, add(CFA_XSP16, literal(-14)))
        CFI V1 load(1, XDATA, add(CFA_XSP16, literal(-13)))
        CFI V2 load(1, XDATA, add(CFA_XSP16, literal(-12)))
        CFI V3 load(1, XDATA, add(CFA_XSP16, literal(-11)))
        CFI V4 load(1, XDATA, add(CFA_XSP16, literal(-10)))
        CFI V5 load(1, XDATA, add(CFA_XSP16, literal(-9)))
        CFI V6 load(1, XDATA, add(CFA_XSP16, literal(-8)))
        CFI V7 load(1, XDATA, add(CFA_XSP16, literal(-7)))
        CFI R7 load(1, XDATA, add(CFA_XSP16, literal(-6)))
        CFI ?RET_LOW load(1, XDATA, add(CFA_XSP16, literal(-5)))
        CFI ?RET_HIGH load(1, XDATA, add(CFA_XSP16, literal(-4)))
        CFI ?BRET_EXT load(1, XDATA, add(CFA_XSP16, literal(-3)))
        CFI DPL0 load(1, XDATA, add(CFA_XSP16, literal(-2)))
        CFI DPH0 load(1, XDATA, add(CFA_XSP16, literal(-1)))
        CFI CFA_SP SP+0
        CFI CFA_XSP16 add(XSP16, 17)
        CFI Block cfiCond22 Using cfiCommon0
        CFI (cfiCond22) NoFunction
        CFI (cfiCond22) Conditional ??CrossCallReturnLabel_51, ??CrossCallReturnLabel_30
        CFI (cfiCond22) R6 load(1, XDATA, add(CFA_XSP16, literal(-16)))
        CFI (cfiCond22) VB load(1, XDATA, add(CFA_XSP16, literal(-15)))
        CFI (cfiCond22) V0 load(1, XDATA, add(CFA_XSP16, literal(-14)))
        CFI (cfiCond22) V1 load(1, XDATA, add(CFA_XSP16, literal(-13)))
        CFI (cfiCond22) V2 load(1, XDATA, add(CFA_XSP16, literal(-12)))
        CFI (cfiCond22) V3 load(1, XDATA, add(CFA_XSP16, literal(-11)))
        CFI (cfiCond22) V4 load(1, XDATA, add(CFA_XSP16, literal(-10)))
        CFI (cfiCond22) V5 load(1, XDATA, add(CFA_XSP16, literal(-9)))
        CFI (cfiCond22) V6 load(1, XDATA, add(CFA_XSP16, literal(-8)))
        CFI (cfiCond22) V7 load(1, XDATA, add(CFA_XSP16, literal(-7)))
        CFI (cfiCond22) R7 load(1, XDATA, add(CFA_XSP16, literal(-6)))
        CFI (cfiCond22) ?RET_LOW load(1, XDATA, add(CFA_XSP16, literal(-5)))
        CFI (cfiCond22) ?RET_HIGH load(1, XDATA, add(CFA_XSP16, literal(-4)))
        CFI (cfiCond22) ?BRET_EXT load(1, XDATA, add(CFA_XSP16, literal(-3)))
        CFI (cfiCond22) DPL0 load(1, XDATA, add(CFA_XSP16, literal(-2)))
        CFI (cfiCond22) DPH0 load(1, XDATA, add(CFA_XSP16, literal(-1)))
        CFI (cfiCond22) CFA_SP SP+0
        CFI (cfiCond22) CFA_XSP16 add(XSP16, 17)
        CFI Block cfiCond23 Using cfiCommon0
        CFI (cfiCond23) NoFunction
        CFI (cfiCond23) Conditional ??CrossCallReturnLabel_50, ??CrossCallReturnLabel_0
        CFI (cfiCond23) R6 load(1, XDATA, add(CFA_XSP16, literal(-16)))
        CFI (cfiCond23) VB load(1, XDATA, add(CFA_XSP16, literal(-15)))
        CFI (cfiCond23) V0 load(1, XDATA, add(CFA_XSP16, literal(-14)))
        CFI (cfiCond23) V1 load(1, XDATA, add(CFA_XSP16, literal(-13)))
        CFI (cfiCond23) V2 load(1, XDATA, add(CFA_XSP16, literal(-12)))
        CFI (cfiCond23) V3 load(1, XDATA, add(CFA_XSP16, literal(-11)))
        CFI (cfiCond23) V4 load(1, XDATA, add(CFA_XSP16, literal(-10)))
        CFI (cfiCond23) V5 load(1, XDATA, add(CFA_XSP16, literal(-9)))
        CFI (cfiCond23) V6 load(1, XDATA, add(CFA_XSP16, literal(-8)))
        CFI (cfiCond23) V7 load(1, XDATA, add(CFA_XSP16, literal(-7)))
        CFI (cfiCond23) R7 load(1, XDATA, add(CFA_XSP16, literal(-6)))
        CFI (cfiCond23) ?RET_LOW load(1, XDATA, add(CFA_XSP16, literal(-5)))
        CFI (cfiCond23) ?RET_HIGH load(1, XDATA, add(CFA_XSP16, literal(-4)))
        CFI (cfiCond23) ?BRET_EXT load(1, XDATA, add(CFA_XSP16, literal(-3)))
        CFI (cfiCond23) DPL0 load(1, XDATA, add(CFA_XSP16, literal(-2)))
        CFI (cfiCond23) DPH0 load(1, XDATA, add(CFA_XSP16, literal(-1)))
        CFI (cfiCond23) CFA_SP SP+0
        CFI (cfiCond23) CFA_XSP16 add(XSP16, 17)
        CFI Block cfiCond24 Using cfiCommon0
        CFI (cfiCond24) NoFunction
        CFI (cfiCond24) Conditional ??CrossCallReturnLabel_50, ??CrossCallReturnLabel_1
        CFI (cfiCond24) R6 load(1, XDATA, add(CFA_XSP16, literal(-16)))
        CFI (cfiCond24) VB load(1, XDATA, add(CFA_XSP16, literal(-15)))
        CFI (cfiCond24) V0 load(1, XDATA, add(CFA_XSP16, literal(-14)))
        CFI (cfiCond24) V1 load(1, XDATA, add(CFA_XSP16, literal(-13)))
        CFI (cfiCond24) V2 load(1, XDATA, add(CFA_XSP16, literal(-12)))
        CFI (cfiCond24) V3 load(1, XDATA, add(CFA_XSP16, literal(-11)))
        CFI (cfiCond24) V4 load(1, XDATA, add(CFA_XSP16, literal(-10)))
        CFI (cfiCond24) V5 load(1, XDATA, add(CFA_XSP16, literal(-9)))
        CFI (cfiCond24) V6 load(1, XDATA, add(CFA_XSP16, literal(-8)))
        CFI (cfiCond24) V7 load(1, XDATA, add(CFA_XSP16, literal(-7)))
        CFI (cfiCond24) R7 load(1, XDATA, add(CFA_XSP16, literal(-6)))
        CFI (cfiCond24) ?RET_LOW load(1, XDATA, add(CFA_XSP16, literal(-5)))
        CFI (cfiCond24) ?RET_HIGH load(1, XDATA, add(CFA_XSP16, literal(-4)))
        CFI (cfiCond24) ?BRET_EXT load(1, XDATA, add(CFA_XSP16, literal(-3)))
        CFI (cfiCond24) DPL0 load(1, XDATA, add(CFA_XSP16, literal(-2)))
        CFI (cfiCond24) DPH0 load(1, XDATA, add(CFA_XSP16, literal(-1)))
        CFI (cfiCond24) CFA_SP SP+0
        CFI (cfiCond24) CFA_XSP16 add(XSP16, 17)
        CFI Block cfiCond25 Using cfiCommon0
        CFI (cfiCond25) NoFunction
        CFI (cfiCond25) Conditional ??CrossCallReturnLabel_50, ??CrossCallReturnLabel_2
        CFI (cfiCond25) R6 load(1, XDATA, add(CFA_XSP16, literal(-16)))
        CFI (cfiCond25) VB load(1, XDATA, add(CFA_XSP16, literal(-15)))
        CFI (cfiCond25) V0 load(1, XDATA, add(CFA_XSP16, literal(-14)))
        CFI (cfiCond25) V1 load(1, XDATA, add(CFA_XSP16, literal(-13)))
        CFI (cfiCond25) V2 load(1, XDATA, add(CFA_XSP16, literal(-12)))
        CFI (cfiCond25) V3 load(1, XDATA, add(CFA_XSP16, literal(-11)))
        CFI (cfiCond25) V4 load(1, XDATA, add(CFA_XSP16, literal(-10)))
        CFI (cfiCond25) V5 load(1, XDATA, add(CFA_XSP16, literal(-9)))
        CFI (cfiCond25) V6 load(1, XDATA, add(CFA_XSP16, literal(-8)))
        CFI (cfiCond25) V7 load(1, XDATA, add(CFA_XSP16, literal(-7)))
        CFI (cfiCond25) R7 load(1, XDATA, add(CFA_XSP16, literal(-6)))
        CFI (cfiCond25) ?RET_LOW load(1, XDATA, add(CFA_XSP16, literal(-5)))
        CFI (cfiCond25) ?RET_HIGH load(1, XDATA, add(CFA_XSP16, literal(-4)))
        CFI (cfiCond25) ?BRET_EXT load(1, XDATA, add(CFA_XSP16, literal(-3)))
        CFI (cfiCond25) DPL0 load(1, XDATA, add(CFA_XSP16, literal(-2)))
        CFI (cfiCond25) DPH0 load(1, XDATA, add(CFA_XSP16, literal(-1)))
        CFI (cfiCond25) CFA_SP SP+0
        CFI (cfiCond25) CFA_XSP16 add(XSP16, 17)
        CFI Block cfiCond26 Using cfiCommon0
        CFI (cfiCond26) NoFunction
        CFI (cfiCond26) Conditional ??CrossCallReturnLabel_50, ??CrossCallReturnLabel_3
        CFI (cfiCond26) R6 load(1, XDATA, add(CFA_XSP16, literal(-16)))
        CFI (cfiCond26) VB load(1, XDATA, add(CFA_XSP16, literal(-15)))
        CFI (cfiCond26) V0 load(1, XDATA, add(CFA_XSP16, literal(-14)))
        CFI (cfiCond26) V1 load(1, XDATA, add(CFA_XSP16, literal(-13)))
        CFI (cfiCond26) V2 load(1, XDATA, add(CFA_XSP16, literal(-12)))
        CFI (cfiCond26) V3 load(1, XDATA, add(CFA_XSP16, literal(-11)))
        CFI (cfiCond26) V4 load(1, XDATA, add(CFA_XSP16, literal(-10)))
        CFI (cfiCond26) V5 load(1, XDATA, add(CFA_XSP16, literal(-9)))
        CFI (cfiCond26) V6 load(1, XDATA, add(CFA_XSP16, literal(-8)))
        CFI (cfiCond26) V7 load(1, XDATA, add(CFA_XSP16, literal(-7)))
        CFI (cfiCond26) R7 load(1, XDATA, add(CFA_XSP16, literal(-6)))
        CFI (cfiCond26) ?RET_LOW load(1, XDATA, add(CFA_XSP16, literal(-5)))
        CFI (cfiCond26) ?RET_HIGH load(1, XDATA, add(CFA_XSP16, literal(-4)))
        CFI (cfiCond26) ?BRET_EXT load(1, XDATA, add(CFA_XSP16, literal(-3)))
        CFI (cfiCond26) DPL0 load(1, XDATA, add(CFA_XSP16, literal(-2)))
        CFI (cfiCond26) DPH0 load(1, XDATA, add(CFA_XSP16, literal(-1)))
        CFI (cfiCond26) CFA_SP SP+0
        CFI (cfiCond26) CFA_XSP16 add(XSP16, 17)
        CFI Block cfiPicker27 Using cfiCommon1
        CFI (cfiPicker27) NoFunction
        CFI (cfiPicker27) Picker
        MOVX    @DPTR,A
        INC     DPTR
        MOV     ?V0 + 4,DPL
        MOV     ?V0 + 5,DPH
        RET
        CFI EndBlock cfiCond21
        CFI EndBlock cfiCond22
        CFI EndBlock cfiCond23
        CFI EndBlock cfiCond24
        CFI EndBlock cfiCond25
        CFI EndBlock cfiCond26
        CFI EndBlock cfiPicker27
//  381 
//  382 /***************************************************************************************************
//  383  * @fn      MT_UtilGetNvInfo
//  384  *
//  385  * @brief   The Get NV Info serial message.
//  386  *
//  387  * @param   None.
//  388  *
//  389  * @return  void
//  390  ***************************************************************************************************/

        RSEG BANKED_CODE:CODE:NOROOT(0)
//  391 void MT_UtilGetNvInfo(void)
MT_UtilGetNvInfo:
        CFI Block cfiBlock28 Using cfiCommon0
        CFI Function MT_UtilGetNvInfo
        CODE
//  392 {
        FUNCALL MT_UtilGetNvInfo, osal_mem_alloc
        LOCFRAME ISTACK, 0, STACK
        LOCFRAME PSTACK, 0, STACK
        LOCFRAME XSTACK, 22, STACK
        LOCFRAME IOVERLAY, 0, STATIC
        LOCFRAME DOVERLAY, 0, STATIC
        ARGFRAME ISTACK, 0, STACK
        ARGFRAME PSTACK, 0, STACK
        ARGFRAME XSTACK, 22, STACK
        ARGFRAME IOVERLAY, 0, STATIC
        ARGFRAME DOVERLAY, 0, STATIC
        FUNCALL MT_UtilGetNvInfo, osal_memset
        LOCFRAME ISTACK, 0, STACK
        LOCFRAME PSTACK, 0, STACK
        LOCFRAME XSTACK, 22, STACK
        LOCFRAME IOVERLAY, 0, STATIC
        LOCFRAME DOVERLAY, 0, STATIC
        ARGFRAME ISTACK, 0, STACK
        ARGFRAME PSTACK, 0, STACK
        ARGFRAME XSTACK, 22, STACK
        ARGFRAME IOVERLAY, 0, STATIC
        ARGFRAME DOVERLAY, 0, STATIC
        FUNCALL MT_UtilGetNvInfo, osal_nv_read
        LOCFRAME ISTACK, 0, STACK
        LOCFRAME PSTACK, 0, STACK
        LOCFRAME XSTACK, 26, STACK
        LOCFRAME IOVERLAY, 0, STATIC
        LOCFRAME DOVERLAY, 0, STATIC
        ARGFRAME ISTACK, 0, STACK
        ARGFRAME PSTACK, 0, STACK
        ARGFRAME XSTACK, 26, STACK
        ARGFRAME IOVERLAY, 0, STATIC
        ARGFRAME DOVERLAY, 0, STATIC
        FUNCALL MT_UtilGetNvInfo, osal_nv_read
        LOCFRAME ISTACK, 0, STACK
        LOCFRAME PSTACK, 0, STACK
        LOCFRAME XSTACK, 26, STACK
        LOCFRAME IOVERLAY, 0, STATIC
        LOCFRAME DOVERLAY, 0, STATIC
        ARGFRAME ISTACK, 0, STACK
        ARGFRAME PSTACK, 0, STACK
        ARGFRAME XSTACK, 26, STACK
        ARGFRAME IOVERLAY, 0, STATIC
        ARGFRAME DOVERLAY, 0, STATIC
        FUNCALL MT_UtilGetNvInfo, osal_nv_read
        LOCFRAME ISTACK, 0, STACK
        LOCFRAME PSTACK, 0, STACK
        LOCFRAME XSTACK, 26, STACK
        LOCFRAME IOVERLAY, 0, STATIC
        LOCFRAME DOVERLAY, 0, STATIC
        ARGFRAME ISTACK, 0, STACK
        ARGFRAME PSTACK, 0, STACK
        ARGFRAME XSTACK, 26, STACK
        ARGFRAME IOVERLAY, 0, STATIC
        ARGFRAME DOVERLAY, 0, STATIC
        FUNCALL MT_UtilGetNvInfo, osal_nv_read
        LOCFRAME ISTACK, 0, STACK
        LOCFRAME PSTACK, 0, STACK
        LOCFRAME XSTACK, 26, STACK
        LOCFRAME IOVERLAY, 0, STATIC
        LOCFRAME DOVERLAY, 0, STATIC
        ARGFRAME ISTACK, 0, STACK
        ARGFRAME PSTACK, 0, STACK
        ARGFRAME XSTACK, 26, STACK
        ARGFRAME IOVERLAY, 0, STATIC
        ARGFRAME DOVERLAY, 0, STATIC
        FUNCALL MT_UtilGetNvInfo, osal_nv_read
        LOCFRAME ISTACK, 0, STACK
        LOCFRAME PSTACK, 0, STACK
        LOCFRAME XSTACK, 26, STACK
        LOCFRAME IOVERLAY, 0, STATIC
        LOCFRAME DOVERLAY, 0, STATIC
        ARGFRAME ISTACK, 0, STACK
        ARGFRAME PSTACK, 0, STACK
        ARGFRAME XSTACK, 26, STACK
        ARGFRAME IOVERLAY, 0, STATIC
        ARGFRAME DOVERLAY, 0, STATIC
        FUNCALL MT_UtilGetNvInfo, MT_BuildAndSendZToolResponse
        LOCFRAME ISTACK, 0, STACK
        LOCFRAME PSTACK, 0, STACK
        LOCFRAME XSTACK, 22, STACK
        LOCFRAME IOVERLAY, 0, STATIC
        LOCFRAME DOVERLAY, 0, STATIC
        ARGFRAME ISTACK, 0, STACK
        ARGFRAME PSTACK, 0, STACK
        ARGFRAME XSTACK, 22, STACK
        ARGFRAME IOVERLAY, 0, STATIC
        ARGFRAME DOVERLAY, 0, STATIC
        FUNCALL MT_UtilGetNvInfo, osal_mem_free
        LOCFRAME ISTACK, 0, STACK
        LOCFRAME PSTACK, 0, STACK
        LOCFRAME XSTACK, 22, STACK
        LOCFRAME IOVERLAY, 0, STATIC
        LOCFRAME DOVERLAY, 0, STATIC
        ARGFRAME ISTACK, 0, STACK
        ARGFRAME PSTACK, 0, STACK
        ARGFRAME XSTACK, 22, STACK
        ARGFRAME IOVERLAY, 0, STATIC
        ARGFRAME DOVERLAY, 0, STATIC
        MOV     A,#-0x10
        LCALL   ?BANKED_ENTER_XDATA
        CFI DPH0 load(1, XDATA, add(CFA_XSP16, literal(-1)))
        CFI DPL0 load(1, XDATA, add(CFA_XSP16, literal(-2)))
        CFI ?BRET_EXT load(1, XDATA, add(CFA_XSP16, literal(-3)))
        CFI ?RET_HIGH load(1, XDATA, add(CFA_XSP16, literal(-4)))
        CFI ?RET_LOW load(1, XDATA, add(CFA_XSP16, literal(-5)))
        CFI R7 load(1, XDATA, add(CFA_XSP16, literal(-6)))
        CFI V7 load(1, XDATA, add(CFA_XSP16, literal(-7)))
        CFI V6 load(1, XDATA, add(CFA_XSP16, literal(-8)))
        CFI V5 load(1, XDATA, add(CFA_XSP16, literal(-9)))
        CFI V4 load(1, XDATA, add(CFA_XSP16, literal(-10)))
        CFI V3 load(1, XDATA, add(CFA_XSP16, literal(-11)))
        CFI V2 load(1, XDATA, add(CFA_XSP16, literal(-12)))
        CFI V1 load(1, XDATA, add(CFA_XSP16, literal(-13)))
        CFI V0 load(1, XDATA, add(CFA_XSP16, literal(-14)))
        CFI VB load(1, XDATA, add(CFA_XSP16, literal(-15)))
        CFI R6 load(1, XDATA, add(CFA_XSP16, literal(-16)))
        CFI CFA_SP SP+0
        CFI CFA_XSP16 add(XSP16, 16)
        ; Saved register size: 16
        ; Auto size: 6
        MOV     A,#-0x6
        LCALL   ?ALLOC_XSTACK8
        CFI CFA_XSP16 add(XSP16, 22)
//  393   uint8 len;
//  394   uint8 stat;
//  395   uint8 *buf;
//  396   uint8 *pBuf;
//  397   uint16 tmp16;
//  398   uint32 tmp32;
//  399 
//  400   /*
//  401     Get required length of buffer
//  402     Status + ExtAddr + ChanList + PanID  + SecLevel + PreCfgKey
//  403   */
//  404   len = 1 + Z_EXTADDR_LEN + 4 + 2 + 1 + SEC_KEY_LEN;
//  405 
//  406   buf = osal_mem_alloc( len );
        ; Setup parameters for call to function osal_mem_alloc
        MOV     R2,#0x20
        MOV     R3,#0x0
        LCALL   ??osal_mem_alloc?relay
        MOV     ?V0 + 0,R2
        MOV     ?V0 + 1,R3
        MOV     R6,?V0 + 0
        MOV     R7,?V0 + 1
//  407   if ( buf )
        MOV     A,R6
        ORL     A,R7
        JNZ     $+5
        LJMP    ??MT_UtilGetNvInfo_0 & 0xFFFF
//  408   {
//  409     /* Assume NV not available */
//  410     osal_memset( buf, 0xFF, len );
        ; Setup parameters for call to function osal_memset
        MOV     R4,#0x20
        MOV     R5,#0x0
        MOV     R1,#-0x1
        LCALL   ??osal_memset?relay
//  411 
//  412     /* Skip over status */
//  413     pBuf = buf + 1;
        MOV     DPL,R6
        MOV     DPH,R7
        INC     DPTR
        MOV     ?V0 + 2,DPL
        MOV     ?V0 + 3,DPH
//  414 
//  415     /* Start with 64-bit extended address */
//  416     stat = osal_nv_read( ZCD_NV_EXTADDR, 0, Z_EXTADDR_LEN, pBuf );
        ; Setup parameters for call to function osal_nv_read
        MOV     R0,#?V0 + 2
        LCALL   ?PUSH_XSTACK_I_TWO
        CFI CFA_XSP16 add(XSP16, 24)
        MOV     ?V0 + 0,#0x8
        MOV     ?V0 + 1,#0x0
        MOV     R0,#?V0 + 0
        LCALL   ?PUSH_XSTACK_I_TWO
        CFI CFA_XSP16 add(XSP16, 26)
        LCALL   ?Subroutine22 & 0xFFFF
??CrossCallReturnLabel_53:
        LCALL   ?DEALLOC_XSTACK8
        CFI CFA_XSP16 add(XSP16, 22)
        MOV     A,R1
        MOV     ?V0 + 0,A
//  417     if ( stat ) stat = 0x01;
        JZ      ??MT_UtilGetNvInfo_1
        MOV     ?V0 + 0,#0x1
//  418     pBuf += Z_EXTADDR_LEN;
??MT_UtilGetNvInfo_1:
        MOV     A,?V0 + 2
        ADD     A,#0x8
        MOV     ?V0 + 2,A
        MOV     A,?V0 + 3
        ADDC    A,#0x0
        MOV     ?V0 + 3,A
//  419 
//  420     /* Scan channel list (bit mask) */
//  421     if (  osal_nv_read( ZCD_NV_CHANLIST, 0, sizeof( tmp32 ), &tmp32 ) )
        ; Setup parameters for call to function osal_nv_read
        MOV     A,#0x2
        LCALL   ?XSTACK_DISP0_8
        MOV     ?V0 + 4,DPL
        MOV     ?V0 + 5,DPH
        MOV     R0,#?V0 + 4
        LCALL   ?PUSH_XSTACK_I_TWO
        CFI CFA_XSP16 add(XSP16, 24)
        MOV     ?V0 + 4,#0x4
        MOV     ?V0 + 5,#0x0
        MOV     R0,#?V0 + 4
        LCALL   ?PUSH_XSTACK_I_TWO
        CFI CFA_XSP16 add(XSP16, 26)
        MOV     R4,#0x0
        MOV     R5,#0x0
        MOV     R2,#-0x7c
        LCALL   ??Subroutine37_0 & 0xFFFF
??CrossCallReturnLabel_54:
        LCALL   ?DEALLOC_XSTACK8
        CFI CFA_XSP16 add(XSP16, 22)
        MOV     A,R1
        JZ      ??MT_UtilGetNvInfo_2
//  422       stat |= 0x02;
        MOV     A,?V0 + 0
        SETB    0xE0 /* A   */.1
        MOV     ?V0 + 0,A
        SJMP    ??MT_UtilGetNvInfo_3
//  423     else
//  424     {
//  425       pBuf[0] = BREAK_UINT32( tmp32, 3 );
??MT_UtilGetNvInfo_2:
        MOV     A,#0x2
        LCALL   ?XSTACK_DISP0_8
        MOV     R0,#?V0 + 4
        LCALL   ?L_MOV_X
        MOV     A,#0x18
        MOV     R0,#?V0 + 4
        LCALL   ?UL_SHR
        MOV     DPL,?V0 + 2
        MOV     DPH,?V0 + 3
        MOV     A,?V0 + 4
        MOVX    @DPTR,A
//  426       pBuf[1] = BREAK_UINT32( tmp32, 2 );
        MOV     A,#0x2
        LCALL   ?XSTACK_DISP0_8
        MOV     R0,#?V0 + 4
        LCALL   ?L_MOV_X
        MOV     A,#0x10
        MOV     R0,#?V0 + 4
        LCALL   ?UL_SHR
        MOV     DPL,?V0 + 2
        MOV     DPH,?V0 + 3
        INC     DPTR
        MOV     A,?V0 + 4
        MOVX    @DPTR,A
//  427       pBuf[2] = BREAK_UINT32( tmp32, 1 );
        MOV     A,#0x2
        LCALL   ?XSTACK_DISP0_8
        MOV     R0,#?V0 + 4
        LCALL   ?L_MOV_X
        MOV     A,?V0 + 5
        MOV     DPL,?V0 + 2
        MOV     DPH,?V0 + 3
        INC     DPTR
        INC     DPTR
        MOVX    @DPTR,A
//  428       pBuf[3] = BREAK_UINT32( tmp32, 0 );
        MOV     A,#0x2
        LCALL   ?XSTACK_DISP0_8
        MOV     R0,#?V0 + 4
        LCALL   ?L_MOV_X
        MOV     DPL,?V0 + 2
        MOV     DPH,?V0 + 3
        INC     DPTR
        INC     DPTR
        INC     DPTR
        MOV     A,?V0 + 4
        MOVX    @DPTR,A
//  429     }
//  430     pBuf += sizeof( tmp32 );
??MT_UtilGetNvInfo_3:
        MOV     A,?V0 + 2
        ADD     A,#0x4
        MOV     ?V0 + 2,A
        MOV     A,?V0 + 3
        ADDC    A,#0x0
        MOV     ?V0 + 3,A
//  431 
//  432     /* ZigBee PanID */
//  433     if ( osal_nv_read( ZCD_NV_PANID, 0, sizeof( tmp16 ), &tmp16 ) )
        ; Setup parameters for call to function osal_nv_read
        MOV     DPL,?XSP + 0
        MOV     DPH,?XSP + 1
        MOV     ?V0 + 4,DPL
        MOV     ?V0 + 5,DPH
        MOV     R0,#?V0 + 4
        LCALL   ?PUSH_XSTACK_I_TWO
        CFI CFA_XSP16 add(XSP16, 24)
        MOV     ?V0 + 4,#0x2
        MOV     ?V0 + 5,#0x0
        MOV     R0,#?V0 + 4
        LCALL   ?PUSH_XSTACK_I_TWO
        CFI CFA_XSP16 add(XSP16, 26)
        MOV     R4,#0x0
        MOV     R5,#0x0
        MOV     R2,#-0x7d
        LCALL   ??Subroutine37_0 & 0xFFFF
??CrossCallReturnLabel_55:
        LCALL   ?DEALLOC_XSTACK8
        CFI CFA_XSP16 add(XSP16, 22)
        MOV     A,R1
        JZ      ??MT_UtilGetNvInfo_4
//  434       stat |= 0x04;
        MOV     A,?V0 + 0
        SETB    0xE0 /* A   */.2
        MOV     ?V0 + 0,A
        SJMP    ??MT_UtilGetNvInfo_5
//  435     else
//  436     {
//  437       pBuf[0] = LO_UINT16( tmp16 );
??MT_UtilGetNvInfo_4:
        MOV     DPL,?XSP + 0
        MOV     DPH,?XSP + 1
        MOVX    A,@DPTR
        MOV     DPL,?V0 + 2
        MOV     DPH,?V0 + 3
        MOVX    @DPTR,A
//  438       pBuf[1] = HI_UINT16( tmp16 );
        MOV     DPL,?XSP + 0
        MOV     DPH,?XSP + 1
        INC     DPTR
        MOVX    A,@DPTR
        MOV     DPL,?V0 + 2
        MOV     DPH,?V0 + 3
        INC     DPTR
        MOVX    @DPTR,A
//  439     }
//  440     pBuf += sizeof( tmp16 );
??MT_UtilGetNvInfo_5:
        MOV     A,?V0 + 2
        ADD     A,#0x2
        MOV     ?V0 + 2,A
        MOV     A,?V0 + 3
        ADDC    A,#0x0
        MOV     ?V0 + 3,A
//  441 
//  442     /* Security level */
//  443     if ( osal_nv_read( ZCD_NV_SECURITY_LEVEL, 0, sizeof( uint8 ), pBuf++ ) )
        ; Setup parameters for call to function osal_nv_read
        MOV     R0,#?V0 + 2
        LCALL   ?PUSH_XSTACK_I_TWO
        CFI CFA_XSP16 add(XSP16, 24)
        MOV     ?V0 + 4,#0x1
        MOV     R0,#?V0 + 4
        LCALL   ?PUSH_XSTACK_I_TWO
        CFI CFA_XSP16 add(XSP16, 26)
        MOV     R4,#0x0
        MOV     R5,#0x0
        MOV     R2,#0x61
        LCALL   ??Subroutine37_0 & 0xFFFF
??CrossCallReturnLabel_56:
        LCALL   ?DEALLOC_XSTACK8
        CFI CFA_XSP16 add(XSP16, 22)
        MOV     A,R1
        MOV     DPL,?V0 + 2
        MOV     DPH,?V0 + 3
        INC     DPTR
        MOV     ?V0 + 2,DPL
        MOV     ?V0 + 3,DPH
        JZ      ??MT_UtilGetNvInfo_6
//  444       stat |= 0x08;
        MOV     A,?V0 + 0
        SETB    0xE0 /* A   */.3
        MOV     ?V0 + 0,A
//  445 
//  446     /* Pre-configured security key */
//  447     if ( osal_nv_read( ZCD_NV_PRECFGKEY, 0, SEC_KEY_LEN, pBuf ) )
??MT_UtilGetNvInfo_6:
        ; Setup parameters for call to function osal_nv_read
        MOV     R0,#?V0 + 2
        LCALL   ?PUSH_XSTACK_I_TWO
        CFI CFA_XSP16 add(XSP16, 24)
        MOV     ?V0 + 2,#0x10
        MOV     ?V0 + 3,#0x0
        MOV     R0,#?V0 + 2
        LCALL   ?PUSH_XSTACK_I_TWO
        CFI CFA_XSP16 add(XSP16, 26)
        MOV     R4,#0x0
        MOV     R5,#0x0
        MOV     R2,#0x62
        LCALL   ??Subroutine37_0 & 0xFFFF
??CrossCallReturnLabel_57:
        LCALL   ?DEALLOC_XSTACK8
        CFI CFA_XSP16 add(XSP16, 22)
        MOV     A,R1
        JZ      ??MT_UtilGetNvInfo_7
//  448       stat |= 0x10;
        MOV     A,?V0 + 0
        SETB    0xE0 /* A   */.4
        MOV     ?V0 + 0,A
//  449 
//  450     /* Status bit mask - bit=1 indicates failure */
//  451     *buf = stat;
??MT_UtilGetNvInfo_7:
        MOV     DPL,R6
        MOV     DPH,R7
        MOV     A,?V0 + 0
        MOVX    @DPTR,A
//  452 
//  453     MT_BuildAndSendZToolResponse(((uint8)MT_RPC_CMD_SRSP | (uint8)MT_RPC_SYS_UTIL), MT_UTIL_GET_NV_INFO,
//  454                                   len, buf );
        ; Setup parameters for call to function MT_BuildAndSendZToolResponse
        MOV     A,R6
        MOV     R4,A
        MOV     A,R7
        MOV     R5,A
        MOV     R3,#0x20
        MOV     R2,#0x1
        MOV     R1,#0x67
        LCALL   ??MT_BuildAndSendZToolResponse?relay
//  455 
//  456     osal_mem_free( buf );
        ; Setup parameters for call to function osal_mem_free
        MOV     A,R6
        MOV     R2,A
        MOV     A,R7
        MOV     R3,A
        LCALL   ??osal_mem_free?relay
//  457   }
//  458 }
??MT_UtilGetNvInfo_0:
        MOV     A,#0x6
        LJMP    ?Subroutine0 & 0xFFFF
        CFI EndBlock cfiBlock28
//  459 
//  460 /***************************************************************************************************
//  461  * @fn      MT_UtilSetPanID
//  462  *
//  463  * @brief   Set PanID message
//  464  *
//  465  * @param   pBuf - pointer to the data
//  466  *
//  467  * @return  void
//  468  ***************************************************************************************************/

        RSEG BANKED_CODE:CODE:NOROOT(0)
//  469 void MT_UtilSetPanID(uint8 *pBuf)
MT_UtilSetPanID:
        CFI Block cfiBlock29 Using cfiCommon0
        CFI Function MT_UtilSetPanID
        CODE
//  470 {
        FUNCALL MT_UtilSetPanID, NLME_UpdateNV
        LOCFRAME ISTACK, 0, STACK
        LOCFRAME PSTACK, 0, STACK
        LOCFRAME XSTACK, 13, STACK
        LOCFRAME IOVERLAY, 0, STATIC
        LOCFRAME DOVERLAY, 0, STATIC
        ARGFRAME ISTACK, 0, STACK
        ARGFRAME PSTACK, 0, STACK
        ARGFRAME XSTACK, 13, STACK
        ARGFRAME IOVERLAY, 0, STATIC
        ARGFRAME DOVERLAY, 0, STATIC
        FUNCALL MT_UtilSetPanID, osal_nv_item_len
        LOCFRAME ISTACK, 0, STACK
        LOCFRAME PSTACK, 0, STACK
        LOCFRAME XSTACK, 15, STACK
        LOCFRAME IOVERLAY, 0, STATIC
        LOCFRAME DOVERLAY, 0, STATIC
        ARGFRAME ISTACK, 0, STACK
        ARGFRAME PSTACK, 0, STACK
        ARGFRAME XSTACK, 15, STACK
        ARGFRAME IOVERLAY, 0, STATIC
        ARGFRAME DOVERLAY, 0, STATIC
        FUNCALL MT_UtilSetPanID, osal_nv_write
        LOCFRAME ISTACK, 0, STACK
        LOCFRAME PSTACK, 0, STACK
        LOCFRAME XSTACK, 17, STACK
        LOCFRAME IOVERLAY, 0, STATIC
        LOCFRAME DOVERLAY, 0, STATIC
        ARGFRAME ISTACK, 0, STACK
        ARGFRAME PSTACK, 0, STACK
        ARGFRAME XSTACK, 17, STACK
        ARGFRAME IOVERLAY, 0, STATIC
        ARGFRAME DOVERLAY, 0, STATIC
        FUNCALL MT_UtilSetPanID, MT_BuildAndSendZToolResponse
        LOCFRAME ISTACK, 0, STACK
        LOCFRAME PSTACK, 0, STACK
        LOCFRAME XSTACK, 13, STACK
        LOCFRAME IOVERLAY, 0, STATIC
        LOCFRAME DOVERLAY, 0, STATIC
        ARGFRAME ISTACK, 0, STACK
        ARGFRAME PSTACK, 0, STACK
        ARGFRAME XSTACK, 13, STACK
        ARGFRAME IOVERLAY, 0, STATIC
        ARGFRAME DOVERLAY, 0, STATIC
        FUNCALL MT_UtilSetPanID, Onboard_soft_reset
        LOCFRAME ISTACK, 0, STACK
        LOCFRAME PSTACK, 0, STACK
        LOCFRAME XSTACK, 13, STACK
        LOCFRAME IOVERLAY, 0, STATIC
        LOCFRAME DOVERLAY, 0, STATIC
        ARGFRAME ISTACK, 0, STACK
        ARGFRAME PSTACK, 0, STACK
        ARGFRAME XSTACK, 13, STACK
        ARGFRAME IOVERLAY, 0, STATIC
        ARGFRAME DOVERLAY, 0, STATIC
        MOV     A,#-0xa
        LCALL   ?BANKED_ENTER_XDATA
        CFI DPH0 load(1, XDATA, add(CFA_XSP16, literal(-1)))
        CFI DPL0 load(1, XDATA, add(CFA_XSP16, literal(-2)))
        CFI ?BRET_EXT load(1, XDATA, add(CFA_XSP16, literal(-3)))
        CFI ?RET_HIGH load(1, XDATA, add(CFA_XSP16, literal(-4)))
        CFI ?RET_LOW load(1, XDATA, add(CFA_XSP16, literal(-5)))
        CFI R7 load(1, XDATA, add(CFA_XSP16, literal(-6)))
        CFI V1 load(1, XDATA, add(CFA_XSP16, literal(-7)))
        CFI V0 load(1, XDATA, add(CFA_XSP16, literal(-8)))
        CFI VB load(1, XDATA, add(CFA_XSP16, literal(-9)))
        CFI R6 load(1, XDATA, add(CFA_XSP16, literal(-10)))
        CFI CFA_SP SP+0
        CFI CFA_XSP16 add(XSP16, 10)
        ; Saved register size: 10
        ; Auto size: 3
        MOV     A,#-0x3
        LCALL   ?ALLOC_XSTACK8
        CFI CFA_XSP16 add(XSP16, 13)
//  471   uint16 temp16;
//  472   uint8 retValue = ZFailure;
        LCALL   ?Subroutine7 & 0xFFFF
//  473   uint8 cmdId;
//  474 
//  475   /* parse header */
//  476   cmdId = pBuf[MT_RPC_POS_CMD1];
//  477   pBuf += MT_RPC_FRAME_HDR_SZ;
//  478 
//  479   temp16 = BUILD_UINT16(pBuf[0], pBuf[1]);
??CrossCallReturnLabel_4:
        MOV     R4,A
        INC     DPTR
        MOVX    A,@DPTR
        MOV     R1,A
        MOV     A,R4
        MOV     R0,A
        MOV     A,#0x1
        LCALL   ?XSTACK_DISP0_8
        MOV     A,R0
        MOVX    @DPTR,A
        INC     DPTR
        MOV     A,R1
        MOVX    @DPTR,A
//  480   pBuf += sizeof(uint16);
//  481 
//  482 #if defined(NV_RESTORE)
//  483   _NIB.nwkPanId = temp16;
        MOV     A,#0x1
        LCALL   ?XSTACK_DISP0_8
        MOVX    A,@DPTR
        MOV     DPTR,#_NIB + 33
        MOVX    @DPTR,A
        INC     DPTR
        MOV     A,R1
        LCALL   ?Subroutine24 & 0xFFFF
//  484   NLME_UpdateNV(NWK_NV_NIB_ENABLE);//czvf ÒòÎªÊÇNV_RESTORE,µÄ¹ØÏµ£¬ËùÒÔÒª¸üÐÂNIB,
//  485 #endif
//  486   retValue = osal_nv_write(ZCD_NV_PANID, 0, osal_nv_item_len( ZCD_NV_PANID ), &temp16);
??CrossCallReturnLabel_31:
        LCALL   ?XSTACK_DISP0_8
        MOV     ?V0 + 0,DPL
        MOV     ?V0 + 1,DPH
        MOV     R0,#?V0 + 0
        LCALL   ?PUSH_XSTACK_I_TWO
        CFI CFA_XSP16 add(XSP16, 15)
        ; Setup parameters for call to function osal_nv_item_len
        MOV     R2,#-0x7d
        LCALL   ?Subroutine25 & 0xFFFF
??CrossCallReturnLabel_33:
        LCALL   ?PUSH_XSTACK_I_TWO
        CFI CFA_XSP16 add(XSP16, 17)
        MOV     R4,#0x0
        MOV     R5,#0x0
        MOV     R2,#-0x7d
        MOV     R3,#0x0
        LCALL   ??osal_nv_write?relay
        MOV     A,#0x4
        LCALL   ?DEALLOC_XSTACK8
        CFI CFA_XSP16 add(XSP16, 13)
        LCALL   ?Subroutine19 & 0xFFFF
//  487 
//  488   /* Build and send back the response */
//  489   MT_BuildAndSendZToolResponse(((uint8)MT_RPC_CMD_SRSP | (uint8)MT_RPC_SYS_UTIL), cmdId, 1, &retValue);
//  490 #if defined (NV_RESTORE)  
//  491   SystemResetSoft();
??CrossCallReturnLabel_25:
        ; Setup parameters for call to function Onboard_soft_reset
        LCALL   Onboard_soft_reset & 0xFFFF
//  492 #endif
//  493 }
        MOV     A,#0x3
        LJMP    ??Subroutine39_0 & 0xFFFF
        CFI EndBlock cfiBlock29
//  494 
//  495 /***************************************************************************************************
//  496  * @fn      MT_UtilSetChannels
//  497  *
//  498  * @brief   Set Channels
//  499  *
//  500  * @param   pBuf - pointer to the data
//  501  *
//  502  * @return  void
//  503  ***************************************************************************************************/

        RSEG BANKED_CODE:CODE:NOROOT(0)
//  504 void MT_UtilSetChannels(uint8 *pBuf)
MT_UtilSetChannels:
        CFI Block cfiBlock30 Using cfiCommon0
        CFI Function MT_UtilSetChannels
        CODE
//  505 {
        FUNCALL MT_UtilSetChannels, NLME_UpdateNV
        LOCFRAME ISTACK, 0, STACK
        LOCFRAME PSTACK, 0, STACK
        LOCFRAME XSTACK, 25, STACK
        LOCFRAME IOVERLAY, 0, STATIC
        LOCFRAME DOVERLAY, 0, STATIC
        ARGFRAME ISTACK, 0, STACK
        ARGFRAME PSTACK, 0, STACK
        ARGFRAME XSTACK, 25, STACK
        ARGFRAME IOVERLAY, 0, STATIC
        ARGFRAME DOVERLAY, 0, STATIC
        FUNCALL MT_UtilSetChannels, osal_nv_item_len
        LOCFRAME ISTACK, 0, STACK
        LOCFRAME PSTACK, 0, STACK
        LOCFRAME XSTACK, 27, STACK
        LOCFRAME IOVERLAY, 0, STATIC
        LOCFRAME DOVERLAY, 0, STATIC
        ARGFRAME ISTACK, 0, STACK
        ARGFRAME PSTACK, 0, STACK
        ARGFRAME XSTACK, 27, STACK
        ARGFRAME IOVERLAY, 0, STATIC
        ARGFRAME DOVERLAY, 0, STATIC
        FUNCALL MT_UtilSetChannels, osal_nv_write
        LOCFRAME ISTACK, 0, STACK
        LOCFRAME PSTACK, 0, STACK
        LOCFRAME XSTACK, 29, STACK
        LOCFRAME IOVERLAY, 0, STATIC
        LOCFRAME DOVERLAY, 0, STATIC
        ARGFRAME ISTACK, 0, STACK
        ARGFRAME PSTACK, 0, STACK
        ARGFRAME XSTACK, 29, STACK
        ARGFRAME IOVERLAY, 0, STATIC
        ARGFRAME DOVERLAY, 0, STATIC
        FUNCALL MT_UtilSetChannels, MT_BuildAndSendZToolResponse
        LOCFRAME ISTACK, 0, STACK
        LOCFRAME PSTACK, 0, STACK
        LOCFRAME XSTACK, 25, STACK
        LOCFRAME IOVERLAY, 0, STATIC
        LOCFRAME DOVERLAY, 0, STATIC
        ARGFRAME ISTACK, 0, STACK
        ARGFRAME PSTACK, 0, STACK
        ARGFRAME XSTACK, 25, STACK
        ARGFRAME IOVERLAY, 0, STATIC
        ARGFRAME DOVERLAY, 0, STATIC
        MOV     A,#-0x14
        LCALL   ?BANKED_ENTER_XDATA
        CFI DPH0 load(1, XDATA, add(CFA_XSP16, literal(-1)))
        CFI DPL0 load(1, XDATA, add(CFA_XSP16, literal(-2)))
        CFI ?BRET_EXT load(1, XDATA, add(CFA_XSP16, literal(-3)))
        CFI ?RET_HIGH load(1, XDATA, add(CFA_XSP16, literal(-4)))
        CFI ?RET_LOW load(1, XDATA, add(CFA_XSP16, literal(-5)))
        CFI R7 load(1, XDATA, add(CFA_XSP16, literal(-6)))
        CFI V11 load(1, XDATA, add(CFA_XSP16, literal(-7)))
        CFI V10 load(1, XDATA, add(CFA_XSP16, literal(-8)))
        CFI V9 load(1, XDATA, add(CFA_XSP16, literal(-9)))
        CFI V8 load(1, XDATA, add(CFA_XSP16, literal(-10)))
        CFI V7 load(1, XDATA, add(CFA_XSP16, literal(-11)))
        CFI V6 load(1, XDATA, add(CFA_XSP16, literal(-12)))
        CFI V5 load(1, XDATA, add(CFA_XSP16, literal(-13)))
        CFI V4 load(1, XDATA, add(CFA_XSP16, literal(-14)))
        CFI V3 load(1, XDATA, add(CFA_XSP16, literal(-15)))
        CFI V2 load(1, XDATA, add(CFA_XSP16, literal(-16)))
        CFI V1 load(1, XDATA, add(CFA_XSP16, literal(-17)))
        CFI V0 load(1, XDATA, add(CFA_XSP16, literal(-18)))
        CFI VB load(1, XDATA, add(CFA_XSP16, literal(-19)))
        CFI R6 load(1, XDATA, add(CFA_XSP16, literal(-20)))
        CFI CFA_SP SP+0
        CFI CFA_XSP16 add(XSP16, 20)
        ; Saved register size: 20
        ; Auto size: 5
        MOV     A,#-0x5
        LCALL   ?ALLOC_XSTACK8
        CFI CFA_XSP16 add(XSP16, 25)
        MOV     A,R2
        MOV     R6,A
        MOV     A,R3
        MOV     R7,A
//  506   uint32 tmp32;
//  507   uint8 retValue = ZFailure;
        MOV     DPL,?XSP + 0
        MOV     DPH,?XSP + 1
        MOV     A,#0x1
        MOVX    @DPTR,A
//  508   uint8 cmdId;
//  509 
//  510   /* parse header */
//  511   cmdId = pBuf[MT_RPC_POS_CMD1];
        LCALL   ?Subroutine16 & 0xFFFF
//  512   pBuf += MT_RPC_FRAME_HDR_SZ;
//  513 
//  514   tmp32 = BUILD_UINT32(pBuf[0], pBuf[1], pBuf[2], pBuf[3]);
??CrossCallReturnLabel_21:
        MOV     DPL,R6
        MOV     DPH,R7
        MOVX    A,@DPTR
        MOV     ?V0 + 4,A
        CLR     A
        MOV     ?V0 + 5,A
        MOV     ?V0 + 6,A
        MOV     ?V0 + 7,A
        INC     DPTR
        MOVX    A,@DPTR
        MOV     ?V0 + 8,A
        CLR     A
        MOV     ?V0 + 9,A
        MOV     ?V0 + 10,A
        MOV     ?V0 + 11,A
        MOV     A,#0x8
        MOV     R0,#?V0 + 8
        LCALL   ?L_SHL
        MOV     R0,#?V0 + 4
        MOV     R1,#?V0 + 8
        LCALL   ?L_ADD
        MOV     DPL,R6
        MOV     DPH,R7
        INC     DPTR
        INC     DPTR
        MOVX    A,@DPTR
        MOV     ?V0 + 8,A
        CLR     A
        MOV     ?V0 + 9,A
        MOV     A,#0x10
        MOV     R0,#?V0 + 8
        LCALL   ?L_SHL
        MOV     R0,#?V0 + 4
        MOV     R1,#?V0 + 8
        LCALL   ?L_ADD
        MOV     DPL,R6
        MOV     DPH,R7
        INC     DPTR
        INC     DPTR
        INC     DPTR
        MOVX    A,@DPTR
        MOV     ?V0 + 8,A
        CLR     A
        MOV     ?V0 + 10,A
        MOV     A,#0x18
        MOV     R0,#?V0 + 8
        LCALL   ?L_SHL
        MOV     R0,#?V0 + 4
        MOV     R1,#?V0 + 8
        LCALL   ?L_ADD
        MOV     A,#0x1
        LCALL   ?XSTACK_DISP0_8
        MOV     R0,#?V0 + 4
        LCALL   ?L_MOV_TO_X
//  515 #if defined(NV_RESTORE)
//  516   _NIB.channelList = tmp32; //czv7
        MOV     A,#0x1
        LCALL   ?XSTACK_DISP0_8
        LCALL   ?XLOAD_R2345
        MOV     DPTR,#_NIB + 36
        LCALL   ?XSTORE_R2345
//  517   _NIB.nwkLogicalChannel= pBuf[4];
        MOV     DPL,R6
        MOV     DPH,R7
        INC     DPTR
        INC     DPTR
        INC     DPTR
        INC     DPTR
        MOVX    A,@DPTR
        MOV     DPTR,#_NIB + 22
        LCALL   ?Subroutine24 & 0xFFFF
//  518   NLME_UpdateNV(NWK_NV_NIB_ENABLE);
//  519 #endif
//  520   retValue = osal_nv_write(ZCD_NV_CHANLIST, 0, osal_nv_item_len( ZCD_NV_CHANLIST ), &tmp32);
??CrossCallReturnLabel_32:
        LCALL   ?XSTACK_DISP0_8
        MOV     ?V0 + 2,DPL
        MOV     ?V0 + 3,DPH
        MOV     R0,#?V0 + 2
        LCALL   ?PUSH_XSTACK_I_TWO
        CFI CFA_XSP16 add(XSP16, 27)
        ; Setup parameters for call to function osal_nv_item_len
        MOV     R2,#-0x7c
        MOV     R3,#0x0
        LCALL   ??osal_nv_item_len?relay
        MOV     ?V0 + 2,R2
        MOV     ?V0 + 3,R3
        MOV     R0,#?V0 + 2
        LCALL   ?PUSH_XSTACK_I_TWO
        CFI CFA_XSP16 add(XSP16, 29)
        MOV     R4,#0x0
        MOV     R5,#0x0
        MOV     R2,#-0x7c
        MOV     R3,#0x0
        LCALL   ??osal_nv_write?relay
        MOV     A,#0x4
        LCALL   ?DEALLOC_XSTACK8
        CFI CFA_XSP16 add(XSP16, 25)
        LCALL   ?Subroutine20 & 0xFFFF
//  521 
//  522   /* Build and send back the response */
//  523   MT_BuildAndSendZToolResponse(((uint8)MT_RPC_CMD_SRSP | (uint8)MT_RPC_SYS_UTIL), cmdId, 1, &retValue);
??CrossCallReturnLabel_59:
        MOV     R2,?V0 + 0
        MOV     R1,#0x67
        LCALL   ??MT_BuildAndSendZToolResponse?relay
//  524 }
        MOV     A,#0x5
        LCALL   ?DEALLOC_XSTACK8
        CFI CFA_XSP16 add(XSP16, 20)
        MOV     R7,#0xc
        LJMP    ?BANKED_LEAVE_XDATA
        CFI EndBlock cfiBlock30

        RSEG BANKED_CODE:CODE:NOROOT(0)
?Subroutine24:
        CFI Block cfiCond31 Using cfiCommon0
        CFI NoFunction
        CFI Conditional ??CrossCallReturnLabel_31
        CFI R6 load(1, XDATA, add(CFA_XSP16, literal(-10)))
        CFI VB load(1, XDATA, add(CFA_XSP16, literal(-9)))
        CFI V0 load(1, XDATA, add(CFA_XSP16, literal(-8)))
        CFI V1 load(1, XDATA, add(CFA_XSP16, literal(-7)))
        CFI R7 load(1, XDATA, add(CFA_XSP16, literal(-6)))
        CFI ?RET_LOW load(1, XDATA, add(CFA_XSP16, literal(-5)))
        CFI ?RET_HIGH load(1, XDATA, add(CFA_XSP16, literal(-4)))
        CFI ?BRET_EXT load(1, XDATA, add(CFA_XSP16, literal(-3)))
        CFI DPL0 load(1, XDATA, add(CFA_XSP16, literal(-2)))
        CFI DPH0 load(1, XDATA, add(CFA_XSP16, literal(-1)))
        CFI CFA_SP SP+0
        CFI CFA_XSP16 add(XSP16, 13)
        CFI Block cfiCond32 Using cfiCommon0
        CFI (cfiCond32) NoFunction
        CFI (cfiCond32) Conditional ??CrossCallReturnLabel_32
        CFI (cfiCond32) R6 load(1, XDATA, add(CFA_XSP16, literal(-20)))
        CFI (cfiCond32) VB load(1, XDATA, add(CFA_XSP16, literal(-19)))
        CFI (cfiCond32) V0 load(1, XDATA, add(CFA_XSP16, literal(-18)))
        CFI (cfiCond32) V1 load(1, XDATA, add(CFA_XSP16, literal(-17)))
        CFI (cfiCond32) V2 load(1, XDATA, add(CFA_XSP16, literal(-16)))
        CFI (cfiCond32) V3 load(1, XDATA, add(CFA_XSP16, literal(-15)))
        CFI (cfiCond32) V4 load(1, XDATA, add(CFA_XSP16, literal(-14)))
        CFI (cfiCond32) V5 load(1, XDATA, add(CFA_XSP16, literal(-13)))
        CFI (cfiCond32) V6 load(1, XDATA, add(CFA_XSP16, literal(-12)))
        CFI (cfiCond32) V7 load(1, XDATA, add(CFA_XSP16, literal(-11)))
        CFI (cfiCond32) V8 load(1, XDATA, add(CFA_XSP16, literal(-10)))
        CFI (cfiCond32) V9 load(1, XDATA, add(CFA_XSP16, literal(-9)))
        CFI (cfiCond32) V10 load(1, XDATA, add(CFA_XSP16, literal(-8)))
        CFI (cfiCond32) V11 load(1, XDATA, add(CFA_XSP16, literal(-7)))
        CFI (cfiCond32) R7 load(1, XDATA, add(CFA_XSP16, literal(-6)))
        CFI (cfiCond32) ?RET_LOW load(1, XDATA, add(CFA_XSP16, literal(-5)))
        CFI (cfiCond32) ?RET_HIGH load(1, XDATA, add(CFA_XSP16, literal(-4)))
        CFI (cfiCond32) ?BRET_EXT load(1, XDATA, add(CFA_XSP16, literal(-3)))
        CFI (cfiCond32) DPL0 load(1, XDATA, add(CFA_XSP16, literal(-2)))
        CFI (cfiCond32) DPH0 load(1, XDATA, add(CFA_XSP16, literal(-1)))
        CFI (cfiCond32) CFA_SP SP+0
        CFI (cfiCond32) CFA_XSP16 add(XSP16, 25)
        CFI Block cfiPicker33 Using cfiCommon1
        CFI (cfiPicker33) NoFunction
        CFI (cfiPicker33) Picker
        MOVX    @DPTR,A
        ; Setup parameters for call to function NLME_UpdateNV
        ; Setup parameters for call to function NLME_UpdateNV
        MOV     R1,#0x1
        LCALL   ??NLME_UpdateNV?relay
        ; Setup parameters for call to function osal_nv_write
        ; Setup parameters for call to function osal_nv_write
        MOV     A,#0x1
        RET
        CFI EndBlock cfiCond31
        CFI EndBlock cfiCond32
        CFI EndBlock cfiPicker33

        RSEG BANKED_CODE:CODE:NOROOT(0)
?Subroutine20:
        CFI Block cfiCond34 Using cfiCommon0
        CFI NoFunction
        CFI Conditional ??CrossCallReturnLabel_58
        CFI R6 load(1, XDATA, add(CFA_XSP16, literal(-15)))
        CFI VB load(1, XDATA, add(CFA_XSP16, literal(-14)))
        CFI V0 load(1, XDATA, add(CFA_XSP16, literal(-13)))
        CFI V1 load(1, XDATA, add(CFA_XSP16, literal(-12)))
        CFI V2 load(1, XDATA, add(CFA_XSP16, literal(-11)))
        CFI V3 load(1, XDATA, add(CFA_XSP16, literal(-10)))
        CFI V4 load(1, XDATA, add(CFA_XSP16, literal(-9)))
        CFI V5 load(1, XDATA, add(CFA_XSP16, literal(-8)))
        CFI V6 load(1, XDATA, add(CFA_XSP16, literal(-7)))
        CFI R7 load(1, XDATA, add(CFA_XSP16, literal(-6)))
        CFI ?RET_LOW load(1, XDATA, add(CFA_XSP16, literal(-5)))
        CFI ?RET_HIGH load(1, XDATA, add(CFA_XSP16, literal(-4)))
        CFI ?BRET_EXT load(1, XDATA, add(CFA_XSP16, literal(-3)))
        CFI DPL0 load(1, XDATA, add(CFA_XSP16, literal(-2)))
        CFI DPH0 load(1, XDATA, add(CFA_XSP16, literal(-1)))
        CFI CFA_SP SP+0
        CFI CFA_XSP16 add(XSP16, 37)
        CFI Block cfiCond35 Using cfiCommon0
        CFI (cfiCond35) NoFunction
        CFI (cfiCond35) Conditional ??CrossCallReturnLabel_59
        CFI (cfiCond35) R6 load(1, XDATA, add(CFA_XSP16, literal(-20)))
        CFI (cfiCond35) VB load(1, XDATA, add(CFA_XSP16, literal(-19)))
        CFI (cfiCond35) V0 load(1, XDATA, add(CFA_XSP16, literal(-18)))
        CFI (cfiCond35) V1 load(1, XDATA, add(CFA_XSP16, literal(-17)))
        CFI (cfiCond35) V2 load(1, XDATA, add(CFA_XSP16, literal(-16)))
        CFI (cfiCond35) V3 load(1, XDATA, add(CFA_XSP16, literal(-15)))
        CFI (cfiCond35) V4 load(1, XDATA, add(CFA_XSP16, literal(-14)))
        CFI (cfiCond35) V5 load(1, XDATA, add(CFA_XSP16, literal(-13)))
        CFI (cfiCond35) V6 load(1, XDATA, add(CFA_XSP16, literal(-12)))
        CFI (cfiCond35) V7 load(1, XDATA, add(CFA_XSP16, literal(-11)))
        CFI (cfiCond35) V8 load(1, XDATA, add(CFA_XSP16, literal(-10)))
        CFI (cfiCond35) V9 load(1, XDATA, add(CFA_XSP16, literal(-9)))
        CFI (cfiCond35) V10 load(1, XDATA, add(CFA_XSP16, literal(-8)))
        CFI (cfiCond35) V11 load(1, XDATA, add(CFA_XSP16, literal(-7)))
        CFI (cfiCond35) R7 load(1, XDATA, add(CFA_XSP16, literal(-6)))
        CFI (cfiCond35) ?RET_LOW load(1, XDATA, add(CFA_XSP16, literal(-5)))
        CFI (cfiCond35) ?RET_HIGH load(1, XDATA, add(CFA_XSP16, literal(-4)))
        CFI (cfiCond35) ?BRET_EXT load(1, XDATA, add(CFA_XSP16, literal(-3)))
        CFI (cfiCond35) DPL0 load(1, XDATA, add(CFA_XSP16, literal(-2)))
        CFI (cfiCond35) DPH0 load(1, XDATA, add(CFA_XSP16, literal(-1)))
        CFI (cfiCond35) CFA_SP SP+0
        CFI (cfiCond35) CFA_XSP16 add(XSP16, 25)
        CFI Block cfiCond36 Using cfiCommon0
        CFI (cfiCond36) NoFunction
        CFI (cfiCond36) Conditional ??CrossCallReturnLabel_60
        CFI (cfiCond36) DPL0 Frame(CFA_SP, 4)
        CFI (cfiCond36) DPH0 Frame(CFA_SP, 5)
        CFI (cfiCond36) CFA_SP SP+-5
        CFI (cfiCond36) CFA_XSP16 add(XSP16, 1)
        CFI Block cfiPicker37 Using cfiCommon1
        CFI (cfiPicker37) NoFunction
        CFI (cfiPicker37) Picker
        MOV     A,R1
        MOV     DPL,?XSP + 0
        MOV     DPH,?XSP + 1
        CFI EndBlock cfiCond34
        CFI EndBlock cfiCond35
        CFI EndBlock cfiCond36
        CFI EndBlock cfiPicker37
        REQUIRE ??Subroutine38_0
        ; // Fall through to label ??Subroutine38_0

        RSEG BANKED_CODE:CODE:NOROOT(0)
??Subroutine38_0:
        CFI Block cfiCond38 Using cfiCommon0
        CFI NoFunction
        CFI Conditional ??CrossCallReturnLabel_61
        CFI DPL0 Frame(CFA_SP, 4)
        CFI DPH0 Frame(CFA_SP, 5)
        CFI CFA_SP SP+-5
        CFI CFA_XSP16 add(XSP16, 1)
        CFI Block cfiCond39 Using cfiCommon0
        CFI (cfiCond39) NoFunction
        CFI (cfiCond39) Conditional ??CrossCallReturnLabel_61
        CFI (cfiCond39) DPL0 Frame(CFA_SP, 4)
        CFI (cfiCond39) DPH0 Frame(CFA_SP, 5)
        CFI (cfiCond39) CFA_SP SP+-5
        CFI (cfiCond39) CFA_XSP16 add(XSP16, 1)
        CFI Block cfiCond40 Using cfiCommon0
        CFI (cfiCond40) NoFunction
        CFI (cfiCond40) Conditional ??CrossCallReturnLabel_61
        CFI (cfiCond40) DPL0 Frame(CFA_SP, 4)
        CFI (cfiCond40) DPH0 Frame(CFA_SP, 5)
        CFI (cfiCond40) CFA_SP SP+-5
        CFI (cfiCond40) CFA_XSP16 add(XSP16, 1)
        CFI Block cfiCond41 Using cfiCommon0
        CFI (cfiCond41) NoFunction
        CFI (cfiCond41) Conditional ??CrossCallReturnLabel_61
        CFI (cfiCond41) DPL0 Frame(CFA_SP, 4)
        CFI (cfiCond41) DPH0 Frame(CFA_SP, 5)
        CFI (cfiCond41) CFA_SP SP+-5
        CFI (cfiCond41) CFA_XSP16 add(XSP16, 1)
        CFI Block cfiCond42 Using cfiCommon0
        CFI (cfiCond42) NoFunction
        CFI (cfiCond42) Conditional ??CrossCallReturnLabel_58
        CFI (cfiCond42) R6 load(1, XDATA, add(CFA_XSP16, literal(-15)))
        CFI (cfiCond42) VB load(1, XDATA, add(CFA_XSP16, literal(-14)))
        CFI (cfiCond42) V0 load(1, XDATA, add(CFA_XSP16, literal(-13)))
        CFI (cfiCond42) V1 load(1, XDATA, add(CFA_XSP16, literal(-12)))
        CFI (cfiCond42) V2 load(1, XDATA, add(CFA_XSP16, literal(-11)))
        CFI (cfiCond42) V3 load(1, XDATA, add(CFA_XSP16, literal(-10)))
        CFI (cfiCond42) V4 load(1, XDATA, add(CFA_XSP16, literal(-9)))
        CFI (cfiCond42) V5 load(1, XDATA, add(CFA_XSP16, literal(-8)))
        CFI (cfiCond42) V6 load(1, XDATA, add(CFA_XSP16, literal(-7)))
        CFI (cfiCond42) R7 load(1, XDATA, add(CFA_XSP16, literal(-6)))
        CFI (cfiCond42) ?RET_LOW load(1, XDATA, add(CFA_XSP16, literal(-5)))
        CFI (cfiCond42) ?RET_HIGH load(1, XDATA, add(CFA_XSP16, literal(-4)))
        CFI (cfiCond42) ?BRET_EXT load(1, XDATA, add(CFA_XSP16, literal(-3)))
        CFI (cfiCond42) DPL0 load(1, XDATA, add(CFA_XSP16, literal(-2)))
        CFI (cfiCond42) DPH0 load(1, XDATA, add(CFA_XSP16, literal(-1)))
        CFI (cfiCond42) CFA_SP SP+0
        CFI (cfiCond42) CFA_XSP16 add(XSP16, 37)
        CFI Block cfiCond43 Using cfiCommon0
        CFI (cfiCond43) NoFunction
        CFI (cfiCond43) Conditional ??CrossCallReturnLabel_59
        CFI (cfiCond43) R6 load(1, XDATA, add(CFA_XSP16, literal(-20)))
        CFI (cfiCond43) VB load(1, XDATA, add(CFA_XSP16, literal(-19)))
        CFI (cfiCond43) V0 load(1, XDATA, add(CFA_XSP16, literal(-18)))
        CFI (cfiCond43) V1 load(1, XDATA, add(CFA_XSP16, literal(-17)))
        CFI (cfiCond43) V2 load(1, XDATA, add(CFA_XSP16, literal(-16)))
        CFI (cfiCond43) V3 load(1, XDATA, add(CFA_XSP16, literal(-15)))
        CFI (cfiCond43) V4 load(1, XDATA, add(CFA_XSP16, literal(-14)))
        CFI (cfiCond43) V5 load(1, XDATA, add(CFA_XSP16, literal(-13)))
        CFI (cfiCond43) V6 load(1, XDATA, add(CFA_XSP16, literal(-12)))
        CFI (cfiCond43) V7 load(1, XDATA, add(CFA_XSP16, literal(-11)))
        CFI (cfiCond43) V8 load(1, XDATA, add(CFA_XSP16, literal(-10)))
        CFI (cfiCond43) V9 load(1, XDATA, add(CFA_XSP16, literal(-9)))
        CFI (cfiCond43) V10 load(1, XDATA, add(CFA_XSP16, literal(-8)))
        CFI (cfiCond43) V11 load(1, XDATA, add(CFA_XSP16, literal(-7)))
        CFI (cfiCond43) R7 load(1, XDATA, add(CFA_XSP16, literal(-6)))
        CFI (cfiCond43) ?RET_LOW load(1, XDATA, add(CFA_XSP16, literal(-5)))
        CFI (cfiCond43) ?RET_HIGH load(1, XDATA, add(CFA_XSP16, literal(-4)))
        CFI (cfiCond43) ?BRET_EXT load(1, XDATA, add(CFA_XSP16, literal(-3)))
        CFI (cfiCond43) DPL0 load(1, XDATA, add(CFA_XSP16, literal(-2)))
        CFI (cfiCond43) DPH0 load(1, XDATA, add(CFA_XSP16, literal(-1)))
        CFI (cfiCond43) CFA_SP SP+0
        CFI (cfiCond43) CFA_XSP16 add(XSP16, 25)
        CFI Block cfiCond44 Using cfiCommon0
        CFI (cfiCond44) NoFunction
        CFI (cfiCond44) Conditional ??CrossCallReturnLabel_60
        CFI (cfiCond44) DPL0 Frame(CFA_SP, 4)
        CFI (cfiCond44) DPH0 Frame(CFA_SP, 5)
        CFI (cfiCond44) CFA_SP SP+-5
        CFI (cfiCond44) CFA_XSP16 add(XSP16, 1)
        CFI Block cfiPicker45 Using cfiCommon1
        CFI (cfiPicker45) NoFunction
        CFI (cfiPicker45) Picker
        MOVX    @DPTR,A
        ; Setup parameters for call to function MT_BuildAndSendZToolResponse
        ; Setup parameters for call to function MT_BuildAndSendZToolResponse
        ; Setup parameters for call to function MT_BuildAndSendZToolResponse
        ; Setup parameters for call to function MT_BuildAndSendZToolResponse
        ; Setup parameters for call to function MT_BuildAndSendZToolResponse
        ; Setup parameters for call to function MT_BuildAndSendZToolResponse
        ; Setup parameters for call to function MT_BuildAndSendZToolResponse
        MOV     R4,DPL
        MOV     R5,DPH
        MOV     R3,#0x1
        RET
        CFI EndBlock cfiCond38
        CFI EndBlock cfiCond39
        CFI EndBlock cfiCond40
        CFI EndBlock cfiCond41
        CFI EndBlock cfiCond42
        CFI EndBlock cfiCond43
        CFI EndBlock cfiCond44
        CFI EndBlock cfiPicker45
//  525 
//  526 /***************************************************************************************************
//  527  * @fn      MT_UtilSetSecLevel
//  528  *
//  529  * @brief   Set Sec Level
//  530  *
//  531  * @param   byte *msg - pointer to the data
//  532  *
//  533  * @return  void
//  534  ***************************************************************************************************/

        RSEG BANKED_CODE:CODE:NOROOT(0)
//  535 void MT_UtilSetSecLevel(uint8 *pBuf)
MT_UtilSetSecLevel:
        CFI Block cfiBlock46 Using cfiCommon0
        CFI Function MT_UtilSetSecLevel
        CODE
//  536 {
        FUNCALL MT_UtilSetSecLevel, osal_nv_item_len
        LOCFRAME ISTACK, 0, STACK
        LOCFRAME PSTACK, 0, STACK
        LOCFRAME XSTACK, 13, STACK
        LOCFRAME IOVERLAY, 0, STATIC
        LOCFRAME DOVERLAY, 0, STATIC
        ARGFRAME ISTACK, 0, STACK
        ARGFRAME PSTACK, 0, STACK
        ARGFRAME XSTACK, 13, STACK
        ARGFRAME IOVERLAY, 0, STATIC
        ARGFRAME DOVERLAY, 0, STATIC
        FUNCALL MT_UtilSetSecLevel, osal_nv_write
        LOCFRAME ISTACK, 0, STACK
        LOCFRAME PSTACK, 0, STACK
        LOCFRAME XSTACK, 15, STACK
        LOCFRAME IOVERLAY, 0, STATIC
        LOCFRAME DOVERLAY, 0, STATIC
        ARGFRAME ISTACK, 0, STACK
        ARGFRAME PSTACK, 0, STACK
        ARGFRAME XSTACK, 15, STACK
        ARGFRAME IOVERLAY, 0, STATIC
        ARGFRAME DOVERLAY, 0, STATIC
        FUNCALL MT_UtilSetSecLevel, MT_BuildAndSendZToolResponse
        LOCFRAME ISTACK, 0, STACK
        LOCFRAME PSTACK, 0, STACK
        LOCFRAME XSTACK, 11, STACK
        LOCFRAME IOVERLAY, 0, STATIC
        LOCFRAME DOVERLAY, 0, STATIC
        ARGFRAME ISTACK, 0, STACK
        ARGFRAME PSTACK, 0, STACK
        ARGFRAME XSTACK, 11, STACK
        ARGFRAME IOVERLAY, 0, STATIC
        ARGFRAME DOVERLAY, 0, STATIC
        MOV     A,#-0xa
        LCALL   ?BANKED_ENTER_XDATA
        CFI DPH0 load(1, XDATA, add(CFA_XSP16, literal(-1)))
        CFI DPL0 load(1, XDATA, add(CFA_XSP16, literal(-2)))
        CFI ?BRET_EXT load(1, XDATA, add(CFA_XSP16, literal(-3)))
        CFI ?RET_HIGH load(1, XDATA, add(CFA_XSP16, literal(-4)))
        CFI ?RET_LOW load(1, XDATA, add(CFA_XSP16, literal(-5)))
        CFI R7 load(1, XDATA, add(CFA_XSP16, literal(-6)))
        CFI V1 load(1, XDATA, add(CFA_XSP16, literal(-7)))
        CFI V0 load(1, XDATA, add(CFA_XSP16, literal(-8)))
        CFI VB load(1, XDATA, add(CFA_XSP16, literal(-9)))
        CFI R6 load(1, XDATA, add(CFA_XSP16, literal(-10)))
        CFI CFA_SP SP+0
        CFI CFA_XSP16 add(XSP16, 10)
        ; Saved register size: 10
        ; Auto size: 1
        MOV     A,#-0x1
        LCALL   ?ALLOC_XSTACK8
        CFI CFA_XSP16 add(XSP16, 11)
//  537   uint8 retValue = ZFailure;
        LCALL   ?Subroutine13 & 0xFFFF
//  538   uint8 cmdId;
//  539 
//  540   /* parse header */
//  541   cmdId = pBuf[MT_RPC_POS_CMD1];
//  542   pBuf += MT_RPC_FRAME_HDR_SZ;
//  543 
//  544   retValue = osal_nv_write( ZCD_NV_SECURITY_LEVEL, 0, osal_nv_item_len( ZCD_NV_SECURITY_LEVEL ), pBuf);
??CrossCallReturnLabel_15:
        LCALL   ?PUSH_XSTACK_I_TWO
        CFI CFA_XSP16 add(XSP16, 13)
        ; Setup parameters for call to function osal_nv_item_len
        MOV     R2,#0x61
        LCALL   ?Subroutine25 & 0xFFFF
??CrossCallReturnLabel_34:
        LCALL   ?PUSH_XSTACK_I_TWO
        CFI CFA_XSP16 add(XSP16, 15)
        MOV     R4,#0x0
        MOV     R5,#0x0
        MOV     R2,#0x61
        CFI EndBlock cfiBlock46
        REQUIRE ?Subroutine1
        ; // Fall through to label ?Subroutine1
//  545 
//  546   /* Build and send back the response */
//  547   MT_BuildAndSendZToolResponse(((uint8)MT_RPC_CMD_SRSP | (uint8)MT_RPC_SYS_UTIL), cmdId, 1, &retValue );
//  548 
//  549 }

        RSEG BANKED_CODE:CODE:NOROOT(0)
?Subroutine1:
        CFI Block cfiBlock47 Using cfiCommon0
        CFI NoFunction
        CFI CFA_SP SP+0
        CFI CFA_XSP16 add(XSP16, 15)
        CFI VB load(1, XDATA, add(CFA_XSP16, literal(-9)))
        CFI DPL0 load(1, XDATA, add(CFA_XSP16, literal(-2)))
        CFI DPH0 load(1, XDATA, add(CFA_XSP16, literal(-1)))
        CFI R6 load(1, XDATA, add(CFA_XSP16, literal(-10)))
        CFI R7 load(1, XDATA, add(CFA_XSP16, literal(-6)))
        CFI V0 load(1, XDATA, add(CFA_XSP16, literal(-8)))
        CFI V1 load(1, XDATA, add(CFA_XSP16, literal(-7)))
        CFI ?BRET_EXT load(1, XDATA, add(CFA_XSP16, literal(-3)))
        CFI ?RET_HIGH load(1, XDATA, add(CFA_XSP16, literal(-4)))
        CFI ?RET_LOW load(1, XDATA, add(CFA_XSP16, literal(-5)))
        MOV     R3,#0x0
        LCALL   ??osal_nv_write?relay
        MOV     A,#0x4
        LCALL   ?DEALLOC_XSTACK8
        CFI CFA_XSP16 add(XSP16, 11)
        LCALL   ?Subroutine19 & 0xFFFF
??CrossCallReturnLabel_26:
        MOV     A,#0x1
        CFI EndBlock cfiBlock47
        REQUIRE ??Subroutine39_0
        ; // Fall through to label ??Subroutine39_0

        RSEG BANKED_CODE:CODE:NOROOT(0)
??Subroutine39_0:
        CFI Block cfiBlock48 Using cfiCommon0
        CFI NoFunction
        CFI CFA_SP SP+0
        CFI CFA_XSP16 add(XSP16, 13)
        CFI VB load(1, XDATA, add(CFA_XSP16, literal(-9)))
        CFI DPL0 load(1, XDATA, add(CFA_XSP16, literal(-2)))
        CFI DPH0 load(1, XDATA, add(CFA_XSP16, literal(-1)))
        CFI R6 load(1, XDATA, add(CFA_XSP16, literal(-10)))
        CFI R7 load(1, XDATA, add(CFA_XSP16, literal(-6)))
        CFI V0 load(1, XDATA, add(CFA_XSP16, literal(-8)))
        CFI V1 load(1, XDATA, add(CFA_XSP16, literal(-7)))
        CFI ?BRET_EXT load(1, XDATA, add(CFA_XSP16, literal(-3)))
        CFI ?RET_HIGH load(1, XDATA, add(CFA_XSP16, literal(-4)))
        CFI ?RET_LOW load(1, XDATA, add(CFA_XSP16, literal(-5)))
        CFI Invalid
        LCALL   ?DEALLOC_XSTACK8
        CFI CFA_XSP16 add(XSP16, 10)
        CFI Valid
        MOV     R7,#0x2
        LJMP    ?BANKED_LEAVE_XDATA
        CFI EndBlock cfiBlock48

        RSEG BANKED_CODE:CODE:NOROOT(0)
?Subroutine25:
        CFI Block cfiCond49 Using cfiCommon0
        CFI NoFunction
        CFI Conditional ??CrossCallReturnLabel_33
        CFI R6 load(1, XDATA, add(CFA_XSP16, literal(-10)))
        CFI VB load(1, XDATA, add(CFA_XSP16, literal(-9)))
        CFI V0 load(1, XDATA, add(CFA_XSP16, literal(-8)))
        CFI V1 load(1, XDATA, add(CFA_XSP16, literal(-7)))
        CFI R7 load(1, XDATA, add(CFA_XSP16, literal(-6)))
        CFI ?RET_LOW load(1, XDATA, add(CFA_XSP16, literal(-5)))
        CFI ?RET_HIGH load(1, XDATA, add(CFA_XSP16, literal(-4)))
        CFI ?BRET_EXT load(1, XDATA, add(CFA_XSP16, literal(-3)))
        CFI DPL0 load(1, XDATA, add(CFA_XSP16, literal(-2)))
        CFI DPH0 load(1, XDATA, add(CFA_XSP16, literal(-1)))
        CFI CFA_SP SP+0
        CFI CFA_XSP16 add(XSP16, 15)
        CFI Block cfiCond50 Using cfiCommon0
        CFI (cfiCond50) NoFunction
        CFI (cfiCond50) Conditional ??CrossCallReturnLabel_34
        CFI (cfiCond50) R6 load(1, XDATA, add(CFA_XSP16, literal(-10)))
        CFI (cfiCond50) VB load(1, XDATA, add(CFA_XSP16, literal(-9)))
        CFI (cfiCond50) V0 load(1, XDATA, add(CFA_XSP16, literal(-8)))
        CFI (cfiCond50) V1 load(1, XDATA, add(CFA_XSP16, literal(-7)))
        CFI (cfiCond50) R7 load(1, XDATA, add(CFA_XSP16, literal(-6)))
        CFI (cfiCond50) ?RET_LOW load(1, XDATA, add(CFA_XSP16, literal(-5)))
        CFI (cfiCond50) ?RET_HIGH load(1, XDATA, add(CFA_XSP16, literal(-4)))
        CFI (cfiCond50) ?BRET_EXT load(1, XDATA, add(CFA_XSP16, literal(-3)))
        CFI (cfiCond50) DPL0 load(1, XDATA, add(CFA_XSP16, literal(-2)))
        CFI (cfiCond50) DPH0 load(1, XDATA, add(CFA_XSP16, literal(-1)))
        CFI (cfiCond50) CFA_SP SP+0
        CFI (cfiCond50) CFA_XSP16 add(XSP16, 13)
        CFI Block cfiCond51 Using cfiCommon0
        CFI (cfiCond51) NoFunction
        CFI (cfiCond51) Conditional ??CrossCallReturnLabel_35
        CFI (cfiCond51) R6 load(1, XDATA, add(CFA_XSP16, literal(-10)))
        CFI (cfiCond51) VB load(1, XDATA, add(CFA_XSP16, literal(-9)))
        CFI (cfiCond51) V0 load(1, XDATA, add(CFA_XSP16, literal(-8)))
        CFI (cfiCond51) V1 load(1, XDATA, add(CFA_XSP16, literal(-7)))
        CFI (cfiCond51) R7 load(1, XDATA, add(CFA_XSP16, literal(-6)))
        CFI (cfiCond51) ?RET_LOW load(1, XDATA, add(CFA_XSP16, literal(-5)))
        CFI (cfiCond51) ?RET_HIGH load(1, XDATA, add(CFA_XSP16, literal(-4)))
        CFI (cfiCond51) ?BRET_EXT load(1, XDATA, add(CFA_XSP16, literal(-3)))
        CFI (cfiCond51) DPL0 load(1, XDATA, add(CFA_XSP16, literal(-2)))
        CFI (cfiCond51) DPH0 load(1, XDATA, add(CFA_XSP16, literal(-1)))
        CFI (cfiCond51) CFA_SP SP+0
        CFI (cfiCond51) CFA_XSP16 add(XSP16, 13)
        CFI Block cfiPicker52 Using cfiCommon1
        CFI (cfiPicker52) NoFunction
        CFI (cfiPicker52) Picker
        MOV     R3,#0x0
        LCALL   ??osal_nv_item_len?relay
        MOV     ?V0 + 0,R2
        MOV     ?V0 + 1,R3
        MOV     R0,#?V0 + 0
        RET
        CFI EndBlock cfiCond49
        CFI EndBlock cfiCond50
        CFI EndBlock cfiCond51
        CFI EndBlock cfiPicker52

        RSEG BANKED_CODE:CODE:NOROOT(0)
?Subroutine19:
        CFI Block cfiCond53 Using cfiCommon0
        CFI NoFunction
        CFI Conditional ??CrossCallReturnLabel_25
        CFI R6 load(1, XDATA, add(CFA_XSP16, literal(-10)))
        CFI VB load(1, XDATA, add(CFA_XSP16, literal(-9)))
        CFI V0 load(1, XDATA, add(CFA_XSP16, literal(-8)))
        CFI V1 load(1, XDATA, add(CFA_XSP16, literal(-7)))
        CFI R7 load(1, XDATA, add(CFA_XSP16, literal(-6)))
        CFI ?RET_LOW load(1, XDATA, add(CFA_XSP16, literal(-5)))
        CFI ?RET_HIGH load(1, XDATA, add(CFA_XSP16, literal(-4)))
        CFI ?BRET_EXT load(1, XDATA, add(CFA_XSP16, literal(-3)))
        CFI DPL0 load(1, XDATA, add(CFA_XSP16, literal(-2)))
        CFI DPH0 load(1, XDATA, add(CFA_XSP16, literal(-1)))
        CFI CFA_SP SP+0
        CFI CFA_XSP16 add(XSP16, 13)
        CFI Block cfiCond54 Using cfiCommon0
        CFI (cfiCond54) NoFunction
        CFI (cfiCond54) Conditional ??CrossCallReturnLabel_26
        CFI (cfiCond54) R6 load(1, XDATA, add(CFA_XSP16, literal(-10)))
        CFI (cfiCond54) VB load(1, XDATA, add(CFA_XSP16, literal(-9)))
        CFI (cfiCond54) V0 load(1, XDATA, add(CFA_XSP16, literal(-8)))
        CFI (cfiCond54) V1 load(1, XDATA, add(CFA_XSP16, literal(-7)))
        CFI (cfiCond54) R7 load(1, XDATA, add(CFA_XSP16, literal(-6)))
        CFI (cfiCond54) ?RET_LOW load(1, XDATA, add(CFA_XSP16, literal(-5)))
        CFI (cfiCond54) ?RET_HIGH load(1, XDATA, add(CFA_XSP16, literal(-4)))
        CFI (cfiCond54) ?BRET_EXT load(1, XDATA, add(CFA_XSP16, literal(-3)))
        CFI (cfiCond54) DPL0 load(1, XDATA, add(CFA_XSP16, literal(-2)))
        CFI (cfiCond54) DPH0 load(1, XDATA, add(CFA_XSP16, literal(-1)))
        CFI (cfiCond54) CFA_SP SP+0
        CFI (cfiCond54) CFA_XSP16 add(XSP16, 11)
        CFI Block cfiCond55 Using cfiCommon0
        CFI (cfiCond55) NoFunction
        CFI (cfiCond55) Conditional ??CrossCallReturnLabel_26
        CFI (cfiCond55) R6 load(1, XDATA, add(CFA_XSP16, literal(-10)))
        CFI (cfiCond55) VB load(1, XDATA, add(CFA_XSP16, literal(-9)))
        CFI (cfiCond55) V0 load(1, XDATA, add(CFA_XSP16, literal(-8)))
        CFI (cfiCond55) V1 load(1, XDATA, add(CFA_XSP16, literal(-7)))
        CFI (cfiCond55) R7 load(1, XDATA, add(CFA_XSP16, literal(-6)))
        CFI (cfiCond55) ?RET_LOW load(1, XDATA, add(CFA_XSP16, literal(-5)))
        CFI (cfiCond55) ?RET_HIGH load(1, XDATA, add(CFA_XSP16, literal(-4)))
        CFI (cfiCond55) ?BRET_EXT load(1, XDATA, add(CFA_XSP16, literal(-3)))
        CFI (cfiCond55) DPL0 load(1, XDATA, add(CFA_XSP16, literal(-2)))
        CFI (cfiCond55) DPH0 load(1, XDATA, add(CFA_XSP16, literal(-1)))
        CFI (cfiCond55) CFA_SP SP+0
        CFI (cfiCond55) CFA_XSP16 add(XSP16, 11)
        CFI Block cfiPicker56 Using cfiCommon1
        CFI (cfiPicker56) NoFunction
        CFI (cfiPicker56) Picker
        MOV     A,R1
        MOV     DPL,?XSP + 0
        MOV     DPH,?XSP + 1
        MOVX    @DPTR,A
        ; Setup parameters for call to function MT_BuildAndSendZToolResponse
        ; Setup parameters for call to function MT_BuildAndSendZToolResponse
        ; Setup parameters for call to function MT_BuildAndSendZToolResponse
        MOV     R4,DPL
        MOV     R5,DPH
        MOV     R3,#0x1
        MOV     A,R6
        MOV     R2,A
        MOV     R1,#0x67
        LCALL   ??MT_BuildAndSendZToolResponse?relay
        RET
        CFI EndBlock cfiCond53
        CFI EndBlock cfiCond54
        CFI EndBlock cfiCond55
        CFI EndBlock cfiPicker56
//  550 
//  551 /***************************************************************************************************
//  552  * @fn      MT_UtilSetPreCfgKey
//  553  *
//  554  * @brief   Set Pre Cfg Key
//  555  *
//  556  * @param   pBuf - pointer to the data
//  557  *
//  558  * @return  void
//  559  ***************************************************************************************************/

        RSEG BANKED_CODE:CODE:NOROOT(0)
//  560 void MT_UtilSetPreCfgKey(uint8 *pBuf)
MT_UtilSetPreCfgKey:
        CFI Block cfiBlock57 Using cfiCommon0
        CFI Function MT_UtilSetPreCfgKey
        CODE
//  561 {
        FUNCALL MT_UtilSetPreCfgKey, osal_nv_item_len
        LOCFRAME ISTACK, 0, STACK
        LOCFRAME PSTACK, 0, STACK
        LOCFRAME XSTACK, 13, STACK
        LOCFRAME IOVERLAY, 0, STATIC
        LOCFRAME DOVERLAY, 0, STATIC
        ARGFRAME ISTACK, 0, STACK
        ARGFRAME PSTACK, 0, STACK
        ARGFRAME XSTACK, 13, STACK
        ARGFRAME IOVERLAY, 0, STATIC
        ARGFRAME DOVERLAY, 0, STATIC
        FUNCALL MT_UtilSetPreCfgKey, osal_nv_write
        LOCFRAME ISTACK, 0, STACK
        LOCFRAME PSTACK, 0, STACK
        LOCFRAME XSTACK, 15, STACK
        LOCFRAME IOVERLAY, 0, STATIC
        LOCFRAME DOVERLAY, 0, STATIC
        ARGFRAME ISTACK, 0, STACK
        ARGFRAME PSTACK, 0, STACK
        ARGFRAME XSTACK, 15, STACK
        ARGFRAME IOVERLAY, 0, STATIC
        ARGFRAME DOVERLAY, 0, STATIC
        FUNCALL MT_UtilSetPreCfgKey, MT_BuildAndSendZToolResponse
        LOCFRAME ISTACK, 0, STACK
        LOCFRAME PSTACK, 0, STACK
        LOCFRAME XSTACK, 11, STACK
        LOCFRAME IOVERLAY, 0, STATIC
        LOCFRAME DOVERLAY, 0, STATIC
        ARGFRAME ISTACK, 0, STACK
        ARGFRAME PSTACK, 0, STACK
        ARGFRAME XSTACK, 11, STACK
        ARGFRAME IOVERLAY, 0, STATIC
        ARGFRAME DOVERLAY, 0, STATIC
        MOV     A,#-0xa
        LCALL   ?BANKED_ENTER_XDATA
        CFI DPH0 load(1, XDATA, add(CFA_XSP16, literal(-1)))
        CFI DPL0 load(1, XDATA, add(CFA_XSP16, literal(-2)))
        CFI ?BRET_EXT load(1, XDATA, add(CFA_XSP16, literal(-3)))
        CFI ?RET_HIGH load(1, XDATA, add(CFA_XSP16, literal(-4)))
        CFI ?RET_LOW load(1, XDATA, add(CFA_XSP16, literal(-5)))
        CFI R7 load(1, XDATA, add(CFA_XSP16, literal(-6)))
        CFI V1 load(1, XDATA, add(CFA_XSP16, literal(-7)))
        CFI V0 load(1, XDATA, add(CFA_XSP16, literal(-8)))
        CFI VB load(1, XDATA, add(CFA_XSP16, literal(-9)))
        CFI R6 load(1, XDATA, add(CFA_XSP16, literal(-10)))
        CFI CFA_SP SP+0
        CFI CFA_XSP16 add(XSP16, 10)
        ; Saved register size: 10
        ; Auto size: 1
        MOV     A,#-0x1
        LCALL   ?ALLOC_XSTACK8
        CFI CFA_XSP16 add(XSP16, 11)
//  562   uint8 retValue = ZFailure;
        LCALL   ?Subroutine13 & 0xFFFF
//  563   uint8 cmdId;
//  564 
//  565   /* parse header */
//  566   cmdId = pBuf[MT_RPC_POS_CMD1];
//  567   pBuf += MT_RPC_FRAME_HDR_SZ;
//  568 
//  569   retValue = osal_nv_write( ZCD_NV_PRECFGKEY, 0, osal_nv_item_len( ZCD_NV_PRECFGKEY ), pBuf);
??CrossCallReturnLabel_16:
        LCALL   ?PUSH_XSTACK_I_TWO
        CFI CFA_XSP16 add(XSP16, 13)
        ; Setup parameters for call to function osal_nv_item_len
        MOV     R2,#0x62
        LCALL   ?Subroutine25 & 0xFFFF
??CrossCallReturnLabel_35:
        LCALL   ?PUSH_XSTACK_I_TWO
        CFI CFA_XSP16 add(XSP16, 15)
        MOV     R4,#0x0
        MOV     R5,#0x0
        MOV     R2,#0x62
        SJMP    ?Subroutine1
        CFI EndBlock cfiBlock57
//  570 
//  571   /* Build and send back the response */
//  572   MT_BuildAndSendZToolResponse(((uint8)MT_RPC_CMD_SRSP | (uint8)MT_RPC_SYS_UTIL), cmdId, 1, &retValue );
//  573 
//  574 }

        RSEG BANKED_CODE:CODE:NOROOT(0)
?Subroutine13:
        CFI Block cfiCond58 Using cfiCommon0
        CFI NoFunction
        CFI Conditional ??CrossCallReturnLabel_15
        CFI R6 load(1, XDATA, add(CFA_XSP16, literal(-10)))
        CFI VB load(1, XDATA, add(CFA_XSP16, literal(-9)))
        CFI V0 load(1, XDATA, add(CFA_XSP16, literal(-8)))
        CFI V1 load(1, XDATA, add(CFA_XSP16, literal(-7)))
        CFI R7 load(1, XDATA, add(CFA_XSP16, literal(-6)))
        CFI ?RET_LOW load(1, XDATA, add(CFA_XSP16, literal(-5)))
        CFI ?RET_HIGH load(1, XDATA, add(CFA_XSP16, literal(-4)))
        CFI ?BRET_EXT load(1, XDATA, add(CFA_XSP16, literal(-3)))
        CFI DPL0 load(1, XDATA, add(CFA_XSP16, literal(-2)))
        CFI DPH0 load(1, XDATA, add(CFA_XSP16, literal(-1)))
        CFI CFA_SP SP+0
        CFI CFA_XSP16 add(XSP16, 11)
        CFI Block cfiCond59 Using cfiCommon0
        CFI (cfiCond59) NoFunction
        CFI (cfiCond59) Conditional ??CrossCallReturnLabel_16
        CFI (cfiCond59) R6 load(1, XDATA, add(CFA_XSP16, literal(-10)))
        CFI (cfiCond59) VB load(1, XDATA, add(CFA_XSP16, literal(-9)))
        CFI (cfiCond59) V0 load(1, XDATA, add(CFA_XSP16, literal(-8)))
        CFI (cfiCond59) V1 load(1, XDATA, add(CFA_XSP16, literal(-7)))
        CFI (cfiCond59) R7 load(1, XDATA, add(CFA_XSP16, literal(-6)))
        CFI (cfiCond59) ?RET_LOW load(1, XDATA, add(CFA_XSP16, literal(-5)))
        CFI (cfiCond59) ?RET_HIGH load(1, XDATA, add(CFA_XSP16, literal(-4)))
        CFI (cfiCond59) ?BRET_EXT load(1, XDATA, add(CFA_XSP16, literal(-3)))
        CFI (cfiCond59) DPL0 load(1, XDATA, add(CFA_XSP16, literal(-2)))
        CFI (cfiCond59) DPH0 load(1, XDATA, add(CFA_XSP16, literal(-1)))
        CFI (cfiCond59) CFA_SP SP+0
        CFI (cfiCond59) CFA_XSP16 add(XSP16, 11)
        CFI Block cfiPicker60 Using cfiCommon1
        CFI (cfiPicker60) NoFunction
        CFI (cfiPicker60) Picker
        LCALL   ?Subroutine33 & 0xFFFF
??CrossCallReturnLabel_48:
        ; Setup parameters for call to function osal_nv_write
        ; Setup parameters for call to function osal_nv_write
        MOV     A,R2
        ADD     A,#0x3
        MOV     ?V0 + 0,A
        MOV     A,R3
        ADDC    A,#0x0
        MOV     ?V0 + 1,A
        MOV     R0,#?V0 + 0
        RET
        CFI EndBlock cfiCond58
        CFI EndBlock cfiCond59
        CFI EndBlock cfiPicker60
//  575 
//  576 /***************************************************************************************************
//  577  * @fn      MT_UtilCallbackSub
//  578  *
//  579  * @brief   The Callback subscribe.
//  580  *
//  581  * @param   pBuf - pointer to the data
//  582  *
//  583  * @return  void
//  584  ***************************************************************************************************/

        RSEG BANKED_CODE:CODE:NOROOT(0)
//  585 void MT_UtilCallbackSub(uint8 *pBuf)
MT_UtilCallbackSub:
        CFI Block cfiBlock61 Using cfiCommon0
        CFI Function MT_UtilCallbackSub
        CODE
//  586 {
        FUNCALL MT_UtilCallbackSub, MT_BuildAndSendZToolResponse
        LOCFRAME ISTACK, 0, STACK
        LOCFRAME PSTACK, 0, STACK
        LOCFRAME XSTACK, 10, STACK
        LOCFRAME IOVERLAY, 0, STATIC
        LOCFRAME DOVERLAY, 0, STATIC
        ARGFRAME ISTACK, 0, STACK
        ARGFRAME PSTACK, 0, STACK
        ARGFRAME XSTACK, 10, STACK
        ARGFRAME IOVERLAY, 0, STATIC
        ARGFRAME DOVERLAY, 0, STATIC
        MOV     A,#-0x9
        LCALL   ?BANKED_ENTER_XDATA
        CFI DPH0 load(1, XDATA, add(CFA_XSP16, literal(-1)))
        CFI DPL0 load(1, XDATA, add(CFA_XSP16, literal(-2)))
        CFI ?BRET_EXT load(1, XDATA, add(CFA_XSP16, literal(-3)))
        CFI ?RET_HIGH load(1, XDATA, add(CFA_XSP16, literal(-4)))
        CFI ?RET_LOW load(1, XDATA, add(CFA_XSP16, literal(-5)))
        CFI R7 load(1, XDATA, add(CFA_XSP16, literal(-6)))
        CFI V0 load(1, XDATA, add(CFA_XSP16, literal(-7)))
        CFI VB load(1, XDATA, add(CFA_XSP16, literal(-8)))
        CFI R6 load(1, XDATA, add(CFA_XSP16, literal(-9)))
        CFI CFA_SP SP+0
        CFI CFA_XSP16 add(XSP16, 9)
        ; Saved register size: 9
        ; Auto size: 1
        MOV     A,#-0x1
        LCALL   ?ALLOC_XSTACK8
        CFI CFA_XSP16 add(XSP16, 10)
//  587   uint8 cmdId = pBuf[MT_RPC_POS_CMD1];
        MOV     DPL,R2
        MOV     DPH,R3
        INC     DPTR
        INC     DPTR
        MOVX    A,@DPTR
        MOV     R6,A
//  588   uint8 retValue = ZFailure;
//  589 
//  590 #if defined(MT_MAC_CB_FUNC) || defined(MT_NWK_CB_FUNC) || defined(MT_ZDO_CB_FUNC) || defined(MT_AF_CB_FUNC) || defined(MT_SAPI_CB_FUNC)
//  591   uint8 subSystem;
//  592   uint16 subscribed_command;
//  593 
//  594   // Move past header
//  595   retValue = ZSuccess;
        MOV     DPL,?XSP + 0
        MOV     DPH,?XSP + 1
        CLR     A
        MOVX    @DPTR,A
//  596   pBuf += MT_RPC_FRAME_HDR_SZ;
        LCALL   ?Subroutine29 & 0xFFFF
//  597 
//  598   /* Command */
//  599   subscribed_command = BUILD_UINT16(pBuf[0], pBuf[1]);
??CrossCallReturnLabel_40:
        MOV     R4,A
        INC     DPTR
        MOVX    A,@DPTR
        MOV     R1,A
        MOV     A,R4
        ADD     A,#0x0
        MOV     R0,A
        CLR     A
        ADDC    A,R1
//  600   pBuf += 2;
//  601 
//  602   /* Subsystem - 5 bits on the MSB of the command */
//  603   subSystem = HI_UINT16(subscribed_command) & 0x1F ;
        ANL     A,#0x1f
        MOV     R7,A
//  604 
//  605   /* What is the action - SUBSCRIBE or !SUBSCRIBE */
//  606   if (*pBuf)
        MOV     DPL,R2
        MOV     DPH,R3
        INC     DPTR
        INC     DPTR
        MOVX    A,@DPTR
        JZ      ??MT_UtilCallbackSub_0
//  607   {
//  608     /* Turn ON */
//  609   #if defined( MT_MAC_CB_FUNC )
//  610     if ((subSystem == MT_RPC_SYS_MAC) || (subscribed_command == 0xFFFF))
//  611       _macCallbackSub = 0xFFFF;
//  612   #endif
//  613 
//  614   #if defined( MT_NWK_CB_FUNC )
//  615     if ((subSystem == MT_RPC_SYS_NWK) || (subscribed_command == 0xFFFF))
        MOV     A,#0x3
        XRL     A,R7
        JZ      ??MT_UtilCallbackSub_1
        MOV     A,#-0x1
        XRL     A,R0
        JNZ     ??MT_UtilCallbackSub_2
        MOV     A,#-0x1
        XRL     A,R1
??MT_UtilCallbackSub_2:
        JNZ     ??MT_UtilCallbackSub_3
//  616       _nwkCallbackSub = 0xFFFF;
??MT_UtilCallbackSub_1:
        MOV     DPTR,#_nwkCallbackSub
        MOV     A,#-0x1
        MOVX    @DPTR,A
        INC     DPTR
        MOVX    @DPTR,A
//  617   #endif
//  618 
//  619   #if defined( MT_ZDO_CB_FUNC )
//  620     if ((subSystem == MT_RPC_SYS_ZDO) || (subscribed_command == 0xFFFF))
??MT_UtilCallbackSub_3:
        MOV     A,#0x5
        XRL     A,R7
        JZ      ??MT_UtilCallbackSub_4
        MOV     A,#-0x1
        XRL     A,R0
        JNZ     ??MT_UtilCallbackSub_5
        MOV     A,#-0x1
        XRL     A,R1
??MT_UtilCallbackSub_5:
        JNZ     ??MT_UtilCallbackSub_6
//  621       _zdoCallbackSub = 0xFFFFFFFF;
??MT_UtilCallbackSub_4:
        MOV     DPTR,#__Constant_ffffffff
        LCALL   ?XLOAD_R2345
        MOV     DPTR,#_zdoCallbackSub
        LCALL   ?XSTORE_R2345
//  622   #endif
//  623 
//  624   #if defined( MT_AF_CB_FUNC )
//  625     if ((subSystem == MT_RPC_SYS_AF) || (subscribed_command == 0xFFFF))
??MT_UtilCallbackSub_6:
        MOV     A,#0x4
        XRL     A,R7
        JZ      ??MT_UtilCallbackSub_7
        MOV     A,#-0x1
        XRL     A,R0
        JNZ     ??MT_UtilCallbackSub_8
        MOV     A,#-0x1
        XRL     A,R1
??MT_UtilCallbackSub_8:
        JNZ     ??MT_UtilCallbackSub_9
//  626       _afCallbackSub = 0xFFFF;
??MT_UtilCallbackSub_7:
        MOV     DPTR,#_afCallbackSub
        MOV     A,#-0x1
        SJMP    ??MT_UtilCallbackSub_10
//  627   #endif
//  628 
//  629   #if defined( MT_SAPI_CB_FUNC )
//  630     if ((subSystem == MT_RPC_SYS_SAPI) || (subscribed_command == 0xFFFF))
//  631       _sapiCallbackSub = 0xFFFF;
//  632   #endif
//  633   }
//  634   else
//  635   {
//  636     /* Turn OFF */
//  637   #if defined( MT_MAC_CB_FUNC )
//  638     if ((subSystem == MT_RPC_SYS_MAC) || (subscribed_command == 0xFFFF))
//  639       _macCallbackSub = 0x0000;
//  640   #endif
//  641 
//  642   #if defined( MT_NWK_CB_FUNC )
//  643     if ((subSystem == MT_RPC_SYS_NWK) || (subscribed_command == 0xFFFF))
??MT_UtilCallbackSub_0:
        MOV     A,#0x3
        XRL     A,R7
        JZ      ??MT_UtilCallbackSub_11
        MOV     A,#-0x1
        XRL     A,R0
        JNZ     ??MT_UtilCallbackSub_12
        MOV     A,#-0x1
        XRL     A,R1
??MT_UtilCallbackSub_12:
        JNZ     ??MT_UtilCallbackSub_13
//  644       _nwkCallbackSub = 0x0000;
??MT_UtilCallbackSub_11:
        MOV     DPTR,#_nwkCallbackSub
        CLR     A
        MOVX    @DPTR,A
        INC     DPTR
        MOVX    @DPTR,A
//  645   #endif
//  646 
//  647   #if defined( MT_ZDO_CB_FUNC )
//  648     if ((subSystem == MT_RPC_SYS_ZDO) || (subscribed_command == 0xFFFF))
??MT_UtilCallbackSub_13:
        MOV     A,#0x5
        XRL     A,R7
        JZ      ??MT_UtilCallbackSub_14
        MOV     A,#-0x1
        XRL     A,R0
        JNZ     ??MT_UtilCallbackSub_15
        MOV     A,#-0x1
        XRL     A,R1
??MT_UtilCallbackSub_15:
        JNZ     ??MT_UtilCallbackSub_16
//  649       _zdoCallbackSub = 0x00000000;
??MT_UtilCallbackSub_14:
        MOV     DPTR,#__Constant_0
        LCALL   ?XLOAD_R2345
        MOV     DPTR,#_zdoCallbackSub
        LCALL   ?XSTORE_R2345
//  650   #endif
//  651 
//  652   #if defined( MT_AF_CB_FUNC )
//  653     if ((subSystem == MT_RPC_SYS_AF) || (subscribed_command == 0xFFFF))
??MT_UtilCallbackSub_16:
        MOV     A,#0x4
        XRL     A,R7
        JZ      ??MT_UtilCallbackSub_17
        MOV     A,#-0x1
        XRL     A,R0
        JNZ     ??MT_UtilCallbackSub_18
        MOV     A,#-0x1
        XRL     A,R1
??MT_UtilCallbackSub_18:
        JNZ     ??MT_UtilCallbackSub_9
//  654       _afCallbackSub = 0x0000;
??MT_UtilCallbackSub_17:
        MOV     DPTR,#_afCallbackSub
        CLR     A
??MT_UtilCallbackSub_10:
        MOVX    @DPTR,A
        INC     DPTR
        MOVX    @DPTR,A
//  655   #endif
//  656 
//  657   #if defined( MT_SAPI_CB_FUNC )
//  658     if ((subSystem == MT_RPC_SYS_SAPI) || (subscribed_command == 0xFFFF))
//  659         _sapiCallbackSub = 0x0000;
//  660   #endif
//  661   }
//  662 #endif  // MT_MAC_CB_FUNC || MT_NWK_CB_FUNC || MT_ZDO_CB_FUNC || MT_AF_CB_FUNC || MT_SAPI_CB_FUNC || MT_SAPI_CB_FUNC
//  663 
//  664   /* Build and send back the response */
//  665   MT_BuildAndSendZToolResponse(((uint8)MT_RPC_CMD_SRSP | (uint8)MT_RPC_SYS_UTIL), cmdId, 1, &retValue );
??MT_UtilCallbackSub_9:
        ; Setup parameters for call to function MT_BuildAndSendZToolResponse
        LJMP    ?Subroutine2 & 0xFFFF
        CFI EndBlock cfiBlock61
//  666 }
//  667 
//  668 #if (defined HAL_KEY) && (HAL_KEY == TRUE)
//  669 /***************************************************************************************************
//  670  * @fn      MT_UtilKeyEvent
//  671  *
//  672  * @brief   Process Key Event
//  673  *
//  674  * @param   pBuf - pointer to the data
//  675  *
//  676  * @return  void
//  677  ***************************************************************************************************/

        RSEG BANKED_CODE:CODE:NOROOT(0)
//  678 void MT_UtilKeyEvent(uint8 *pBuf)
MT_UtilKeyEvent:
        CFI Block cfiBlock62 Using cfiCommon0
        CFI Function MT_UtilKeyEvent
        CODE
//  679 {
        FUNCALL MT_UtilKeyEvent, OnBoard_SendKeys
        LOCFRAME ISTACK, 0, STACK
        LOCFRAME PSTACK, 0, STACK
        LOCFRAME XSTACK, 10, STACK
        LOCFRAME IOVERLAY, 0, STATIC
        LOCFRAME DOVERLAY, 0, STATIC
        ARGFRAME ISTACK, 0, STACK
        ARGFRAME PSTACK, 0, STACK
        ARGFRAME XSTACK, 10, STACK
        ARGFRAME IOVERLAY, 0, STATIC
        ARGFRAME DOVERLAY, 0, STATIC
        FUNCALL MT_UtilKeyEvent, MT_BuildAndSendZToolResponse
        LOCFRAME ISTACK, 0, STACK
        LOCFRAME PSTACK, 0, STACK
        LOCFRAME XSTACK, 10, STACK
        LOCFRAME IOVERLAY, 0, STATIC
        LOCFRAME DOVERLAY, 0, STATIC
        ARGFRAME ISTACK, 0, STACK
        ARGFRAME PSTACK, 0, STACK
        ARGFRAME XSTACK, 10, STACK
        ARGFRAME IOVERLAY, 0, STATIC
        ARGFRAME DOVERLAY, 0, STATIC
        MOV     A,#-0x9
        LCALL   ?BANKED_ENTER_XDATA
        CFI DPH0 load(1, XDATA, add(CFA_XSP16, literal(-1)))
        CFI DPL0 load(1, XDATA, add(CFA_XSP16, literal(-2)))
        CFI ?BRET_EXT load(1, XDATA, add(CFA_XSP16, literal(-3)))
        CFI ?RET_HIGH load(1, XDATA, add(CFA_XSP16, literal(-4)))
        CFI ?RET_LOW load(1, XDATA, add(CFA_XSP16, literal(-5)))
        CFI R7 load(1, XDATA, add(CFA_XSP16, literal(-6)))
        CFI V0 load(1, XDATA, add(CFA_XSP16, literal(-7)))
        CFI VB load(1, XDATA, add(CFA_XSP16, literal(-8)))
        CFI R6 load(1, XDATA, add(CFA_XSP16, literal(-9)))
        CFI CFA_SP SP+0
        CFI CFA_XSP16 add(XSP16, 9)
        ; Saved register size: 9
        ; Auto size: 1
        MOV     A,#-0x1
        LCALL   ?ALLOC_XSTACK8
        CFI CFA_XSP16 add(XSP16, 10)
//  680   uint8 x = 0;
        MOV     R1,#0x0
//  681   uint8 retValue = ZFailure;
        LCALL   ?Subroutine7 & 0xFFFF
//  682   uint8 cmdId;
//  683 
//  684   /* parse header */
//  685   cmdId = pBuf[MT_RPC_POS_CMD1];
//  686   pBuf += MT_RPC_FRAME_HDR_SZ;
//  687 
//  688   /* Translate between SPI values to device values */
//  689   if ( *pBuf & 0x01 )
??CrossCallReturnLabel_5:
        MOV     C,0xE0 /* A   */.0
        JNC     ??MT_UtilKeyEvent_0
//  690     x |= HAL_KEY_SW_1;
        INC     R1
//  691   if ( *pBuf & 0x02 )
??MT_UtilKeyEvent_0:
        MOV     C,0xE0 /* A   */.1
        JNC     ??MT_UtilKeyEvent_1
//  692     x |= HAL_KEY_SW_2;
        MOV     A,R1
        SETB    0xE0 /* A   */.1
        MOV     R1,A
//  693   if ( *pBuf & 0x04 )
??MT_UtilKeyEvent_1:
        MOVX    A,@DPTR
        MOV     C,0xE0 /* A   */.2
        JNC     ??MT_UtilKeyEvent_2
//  694     x |= HAL_KEY_SW_3;
        MOV     A,R1
        SETB    0xE0 /* A   */.4
        MOV     R1,A
//  695   if ( *pBuf & 0x08 )
??MT_UtilKeyEvent_2:
        MOVX    A,@DPTR
        MOV     C,0xE0 /* A   */.3
        JNC     ??MT_UtilKeyEvent_3
//  696   x |= HAL_KEY_SW_4;
        MOV     A,R1
        SETB    0xE0 /* A   */.3
        MOV     R1,A
//  697 #if defined ( HAL_KEY_SW_5 )
//  698   if ( *pBuf & 0x10 )
??MT_UtilKeyEvent_3:
        MOVX    A,@DPTR
        MOV     C,0xE0 /* A   */.4
        JNC     ??MT_UtilKeyEvent_4
//  699     x |= HAL_KEY_SW_5;
        MOV     A,R1
        SETB    0xE0 /* A   */.2
        MOV     R1,A
//  700 #endif
//  701 #if defined ( HAL_KEY_SW_6 )
//  702   if ( *pBuf & 0x20 )
??MT_UtilKeyEvent_4:
        MOVX    A,@DPTR
        MOV     C,0xE0 /* A   */.5
        JNC     ??MT_UtilKeyEvent_5
//  703     x |= HAL_KEY_SW_6;
        MOV     A,R1
        SETB    0xE0 /* A   */.5
        MOV     R1,A
//  704 #endif
//  705 #if defined ( HAL_KEY_SW_7 )
//  706   if ( *pBuf & 0x40 )
??MT_UtilKeyEvent_5:
        MOVX    A,@DPTR
        MOV     C,0xE0 /* A   */.6
        JNC     ??MT_UtilKeyEvent_6
//  707     x |= HAL_KEY_SW_7;
        MOV     A,R1
        SETB    0xE0 /* A   */.6
        MOV     R1,A
//  708 #endif
//  709 #if defined ( HAL_KEY_SW_8 )
//  710   if ( *pBuf & 0x80 )
//  711     x |= HAL_KEY_SW_8;
//  712 #endif
//  713   pBuf++;
//  714 
//  715   retValue = OnBoard_SendKeys(x, *pBuf);
??MT_UtilKeyEvent_6:
        ; Setup parameters for call to function OnBoard_SendKeys
        INC     DPTR
        MOVX    A,@DPTR
        MOV     R2,A
        LCALL   ??OnBoard_SendKeys?relay
        MOV     A,R1
        MOV     DPL,?XSP + 0
        MOV     DPH,?XSP + 1
        MOVX    @DPTR,A
//  716 
//  717   /* Build and send back the response */
//  718   MT_BuildAndSendZToolResponse(((uint8)MT_RPC_CMD_SRSP | (uint8)MT_RPC_SYS_UTIL), cmdId, 1, &retValue );
        ; Setup parameters for call to function MT_BuildAndSendZToolResponse
        SJMP    ??Subroutine40_0
        CFI EndBlock cfiBlock62
//  719 }

        RSEG BANKED_CODE:CODE:NOROOT(0)
?Subroutine7:
        CFI Block cfiCond63 Using cfiCommon0
        CFI NoFunction
        CFI Conditional ??CrossCallReturnLabel_4
        CFI R6 load(1, XDATA, add(CFA_XSP16, literal(-10)))
        CFI VB load(1, XDATA, add(CFA_XSP16, literal(-9)))
        CFI V0 load(1, XDATA, add(CFA_XSP16, literal(-8)))
        CFI V1 load(1, XDATA, add(CFA_XSP16, literal(-7)))
        CFI R7 load(1, XDATA, add(CFA_XSP16, literal(-6)))
        CFI ?RET_LOW load(1, XDATA, add(CFA_XSP16, literal(-5)))
        CFI ?RET_HIGH load(1, XDATA, add(CFA_XSP16, literal(-4)))
        CFI ?BRET_EXT load(1, XDATA, add(CFA_XSP16, literal(-3)))
        CFI DPL0 load(1, XDATA, add(CFA_XSP16, literal(-2)))
        CFI DPH0 load(1, XDATA, add(CFA_XSP16, literal(-1)))
        CFI CFA_SP SP+0
        CFI CFA_XSP16 add(XSP16, 13)
        CFI Block cfiCond64 Using cfiCommon0
        CFI (cfiCond64) NoFunction
        CFI (cfiCond64) Conditional ??CrossCallReturnLabel_5
        CFI (cfiCond64) R6 load(1, XDATA, add(CFA_XSP16, literal(-9)))
        CFI (cfiCond64) VB load(1, XDATA, add(CFA_XSP16, literal(-8)))
        CFI (cfiCond64) V0 load(1, XDATA, add(CFA_XSP16, literal(-7)))
        CFI (cfiCond64) R7 load(1, XDATA, add(CFA_XSP16, literal(-6)))
        CFI (cfiCond64) ?RET_LOW load(1, XDATA, add(CFA_XSP16, literal(-5)))
        CFI (cfiCond64) ?RET_HIGH load(1, XDATA, add(CFA_XSP16, literal(-4)))
        CFI (cfiCond64) ?BRET_EXT load(1, XDATA, add(CFA_XSP16, literal(-3)))
        CFI (cfiCond64) DPL0 load(1, XDATA, add(CFA_XSP16, literal(-2)))
        CFI (cfiCond64) DPH0 load(1, XDATA, add(CFA_XSP16, literal(-1)))
        CFI (cfiCond64) CFA_SP SP+0
        CFI (cfiCond64) CFA_XSP16 add(XSP16, 10)
        CFI Block cfiCond65 Using cfiCommon0
        CFI (cfiCond65) NoFunction
        CFI (cfiCond65) Conditional ??CrossCallReturnLabel_6
        CFI (cfiCond65) R6 load(1, XDATA, add(CFA_XSP16, literal(-9)))
        CFI (cfiCond65) VB load(1, XDATA, add(CFA_XSP16, literal(-8)))
        CFI (cfiCond65) V0 load(1, XDATA, add(CFA_XSP16, literal(-7)))
        CFI (cfiCond65) R7 load(1, XDATA, add(CFA_XSP16, literal(-6)))
        CFI (cfiCond65) ?RET_LOW load(1, XDATA, add(CFA_XSP16, literal(-5)))
        CFI (cfiCond65) ?RET_HIGH load(1, XDATA, add(CFA_XSP16, literal(-4)))
        CFI (cfiCond65) ?BRET_EXT load(1, XDATA, add(CFA_XSP16, literal(-3)))
        CFI (cfiCond65) DPL0 load(1, XDATA, add(CFA_XSP16, literal(-2)))
        CFI (cfiCond65) DPH0 load(1, XDATA, add(CFA_XSP16, literal(-1)))
        CFI (cfiCond65) CFA_SP SP+0
        CFI (cfiCond65) CFA_XSP16 add(XSP16, 10)
        CFI Block cfiPicker66 Using cfiCommon1
        CFI (cfiPicker66) NoFunction
        CFI (cfiPicker66) Picker
        LCALL   ?Subroutine33 & 0xFFFF
??CrossCallReturnLabel_49:
        LCALL   ?Subroutine29 & 0xFFFF
??CrossCallReturnLabel_41:
        RET
        CFI EndBlock cfiCond63
        CFI EndBlock cfiCond64
        CFI EndBlock cfiCond65
        CFI EndBlock cfiPicker66

        RSEG BANKED_CODE:CODE:NOROOT(0)
?Subroutine33:
        CFI Block cfiCond67 Using cfiCommon0
        CFI NoFunction
        CFI Conditional ??CrossCallReturnLabel_48, ??CrossCallReturnLabel_15
        CFI R6 load(1, XDATA, add(CFA_XSP16, literal(-10)))
        CFI VB load(1, XDATA, add(CFA_XSP16, literal(-9)))
        CFI V0 load(1, XDATA, add(CFA_XSP16, literal(-8)))
        CFI V1 load(1, XDATA, add(CFA_XSP16, literal(-7)))
        CFI R7 load(1, XDATA, add(CFA_XSP16, literal(-6)))
        CFI ?RET_LOW load(1, XDATA, add(CFA_XSP16, literal(-5)))
        CFI ?RET_HIGH load(1, XDATA, add(CFA_XSP16, literal(-4)))
        CFI ?BRET_EXT load(1, XDATA, add(CFA_XSP16, literal(-3)))
        CFI DPL0 load(1, XDATA, add(CFA_XSP16, literal(-2)))
        CFI DPH0 load(1, XDATA, add(CFA_XSP16, literal(-1)))
        CFI CFA_SP SP+0
        CFI CFA_XSP16 add(XSP16, 11)
        CFI Block cfiCond68 Using cfiCommon0
        CFI (cfiCond68) NoFunction
        CFI (cfiCond68) Conditional ??CrossCallReturnLabel_48, ??CrossCallReturnLabel_16
        CFI (cfiCond68) R6 load(1, XDATA, add(CFA_XSP16, literal(-10)))
        CFI (cfiCond68) VB load(1, XDATA, add(CFA_XSP16, literal(-9)))
        CFI (cfiCond68) V0 load(1, XDATA, add(CFA_XSP16, literal(-8)))
        CFI (cfiCond68) V1 load(1, XDATA, add(CFA_XSP16, literal(-7)))
        CFI (cfiCond68) R7 load(1, XDATA, add(CFA_XSP16, literal(-6)))
        CFI (cfiCond68) ?RET_LOW load(1, XDATA, add(CFA_XSP16, literal(-5)))
        CFI (cfiCond68) ?RET_HIGH load(1, XDATA, add(CFA_XSP16, literal(-4)))
        CFI (cfiCond68) ?BRET_EXT load(1, XDATA, add(CFA_XSP16, literal(-3)))
        CFI (cfiCond68) DPL0 load(1, XDATA, add(CFA_XSP16, literal(-2)))
        CFI (cfiCond68) DPH0 load(1, XDATA, add(CFA_XSP16, literal(-1)))
        CFI (cfiCond68) CFA_SP SP+0
        CFI (cfiCond68) CFA_XSP16 add(XSP16, 11)
        CFI Block cfiCond69 Using cfiCommon0
        CFI (cfiCond69) NoFunction
        CFI (cfiCond69) Conditional ??CrossCallReturnLabel_49, ??CrossCallReturnLabel_4
        CFI (cfiCond69) R6 load(1, XDATA, add(CFA_XSP16, literal(-10)))
        CFI (cfiCond69) VB load(1, XDATA, add(CFA_XSP16, literal(-9)))
        CFI (cfiCond69) V0 load(1, XDATA, add(CFA_XSP16, literal(-8)))
        CFI (cfiCond69) V1 load(1, XDATA, add(CFA_XSP16, literal(-7)))
        CFI (cfiCond69) R7 load(1, XDATA, add(CFA_XSP16, literal(-6)))
        CFI (cfiCond69) ?RET_LOW load(1, XDATA, add(CFA_XSP16, literal(-5)))
        CFI (cfiCond69) ?RET_HIGH load(1, XDATA, add(CFA_XSP16, literal(-4)))
        CFI (cfiCond69) ?BRET_EXT load(1, XDATA, add(CFA_XSP16, literal(-3)))
        CFI (cfiCond69) DPL0 load(1, XDATA, add(CFA_XSP16, literal(-2)))
        CFI (cfiCond69) DPH0 load(1, XDATA, add(CFA_XSP16, literal(-1)))
        CFI (cfiCond69) CFA_SP SP+0
        CFI (cfiCond69) CFA_XSP16 add(XSP16, 13)
        CFI Block cfiCond70 Using cfiCommon0
        CFI (cfiCond70) NoFunction
        CFI (cfiCond70) Conditional ??CrossCallReturnLabel_49, ??CrossCallReturnLabel_5
        CFI (cfiCond70) R6 load(1, XDATA, add(CFA_XSP16, literal(-9)))
        CFI (cfiCond70) VB load(1, XDATA, add(CFA_XSP16, literal(-8)))
        CFI (cfiCond70) V0 load(1, XDATA, add(CFA_XSP16, literal(-7)))
        CFI (cfiCond70) R7 load(1, XDATA, add(CFA_XSP16, literal(-6)))
        CFI (cfiCond70) ?RET_LOW load(1, XDATA, add(CFA_XSP16, literal(-5)))
        CFI (cfiCond70) ?RET_HIGH load(1, XDATA, add(CFA_XSP16, literal(-4)))
        CFI (cfiCond70) ?BRET_EXT load(1, XDATA, add(CFA_XSP16, literal(-3)))
        CFI (cfiCond70) DPL0 load(1, XDATA, add(CFA_XSP16, literal(-2)))
        CFI (cfiCond70) DPH0 load(1, XDATA, add(CFA_XSP16, literal(-1)))
        CFI (cfiCond70) CFA_SP SP+0
        CFI (cfiCond70) CFA_XSP16 add(XSP16, 10)
        CFI Block cfiCond71 Using cfiCommon0
        CFI (cfiCond71) NoFunction
        CFI (cfiCond71) Conditional ??CrossCallReturnLabel_49, ??CrossCallReturnLabel_6
        CFI (cfiCond71) R6 load(1, XDATA, add(CFA_XSP16, literal(-9)))
        CFI (cfiCond71) VB load(1, XDATA, add(CFA_XSP16, literal(-8)))
        CFI (cfiCond71) V0 load(1, XDATA, add(CFA_XSP16, literal(-7)))
        CFI (cfiCond71) R7 load(1, XDATA, add(CFA_XSP16, literal(-6)))
        CFI (cfiCond71) ?RET_LOW load(1, XDATA, add(CFA_XSP16, literal(-5)))
        CFI (cfiCond71) ?RET_HIGH load(1, XDATA, add(CFA_XSP16, literal(-4)))
        CFI (cfiCond71) ?BRET_EXT load(1, XDATA, add(CFA_XSP16, literal(-3)))
        CFI (cfiCond71) DPL0 load(1, XDATA, add(CFA_XSP16, literal(-2)))
        CFI (cfiCond71) DPH0 load(1, XDATA, add(CFA_XSP16, literal(-1)))
        CFI (cfiCond71) CFA_SP SP+0
        CFI (cfiCond71) CFA_XSP16 add(XSP16, 10)
        CFI Block cfiPicker72 Using cfiCommon1
        CFI (cfiPicker72) NoFunction
        CFI (cfiPicker72) Picker
        MOV     DPL,?XSP + 0
        MOV     DPH,?XSP + 1
        MOV     A,#0x1
        MOVX    @DPTR,A
        MOV     DPL,R2
        MOV     DPH,R3
        INC     DPTR
        INC     DPTR
        MOVX    A,@DPTR
        MOV     R6,A
        RET
        CFI EndBlock cfiCond67
        CFI EndBlock cfiCond68
        CFI EndBlock cfiCond69
        CFI EndBlock cfiCond70
        CFI EndBlock cfiCond71
        CFI EndBlock cfiPicker72

        RSEG BANKED_CODE:CODE:NOROOT(0)
?Subroutine29:
        CFI Block cfiCond73 Using cfiCommon0
        CFI NoFunction
        CFI Conditional ??CrossCallReturnLabel_40
        CFI R6 load(1, XDATA, add(CFA_XSP16, literal(-9)))
        CFI VB load(1, XDATA, add(CFA_XSP16, literal(-8)))
        CFI V0 load(1, XDATA, add(CFA_XSP16, literal(-7)))
        CFI R7 load(1, XDATA, add(CFA_XSP16, literal(-6)))
        CFI ?RET_LOW load(1, XDATA, add(CFA_XSP16, literal(-5)))
        CFI ?RET_HIGH load(1, XDATA, add(CFA_XSP16, literal(-4)))
        CFI ?BRET_EXT load(1, XDATA, add(CFA_XSP16, literal(-3)))
        CFI DPL0 load(1, XDATA, add(CFA_XSP16, literal(-2)))
        CFI DPH0 load(1, XDATA, add(CFA_XSP16, literal(-1)))
        CFI CFA_SP SP+0
        CFI CFA_XSP16 add(XSP16, 10)
        CFI Block cfiCond74 Using cfiCommon0
        CFI (cfiCond74) NoFunction
        CFI (cfiCond74) Conditional ??CrossCallReturnLabel_41, ??CrossCallReturnLabel_4
        CFI (cfiCond74) R6 load(1, XDATA, add(CFA_XSP16, literal(-10)))
        CFI (cfiCond74) VB load(1, XDATA, add(CFA_XSP16, literal(-9)))
        CFI (cfiCond74) V0 load(1, XDATA, add(CFA_XSP16, literal(-8)))
        CFI (cfiCond74) V1 load(1, XDATA, add(CFA_XSP16, literal(-7)))
        CFI (cfiCond74) R7 load(1, XDATA, add(CFA_XSP16, literal(-6)))
        CFI (cfiCond74) ?RET_LOW load(1, XDATA, add(CFA_XSP16, literal(-5)))
        CFI (cfiCond74) ?RET_HIGH load(1, XDATA, add(CFA_XSP16, literal(-4)))
        CFI (cfiCond74) ?BRET_EXT load(1, XDATA, add(CFA_XSP16, literal(-3)))
        CFI (cfiCond74) DPL0 load(1, XDATA, add(CFA_XSP16, literal(-2)))
        CFI (cfiCond74) DPH0 load(1, XDATA, add(CFA_XSP16, literal(-1)))
        CFI (cfiCond74) CFA_SP SP+0
        CFI (cfiCond74) CFA_XSP16 add(XSP16, 13)
        CFI Block cfiCond75 Using cfiCommon0
        CFI (cfiCond75) NoFunction
        CFI (cfiCond75) Conditional ??CrossCallReturnLabel_41, ??CrossCallReturnLabel_5
        CFI (cfiCond75) R6 load(1, XDATA, add(CFA_XSP16, literal(-9)))
        CFI (cfiCond75) VB load(1, XDATA, add(CFA_XSP16, literal(-8)))
        CFI (cfiCond75) V0 load(1, XDATA, add(CFA_XSP16, literal(-7)))
        CFI (cfiCond75) R7 load(1, XDATA, add(CFA_XSP16, literal(-6)))
        CFI (cfiCond75) ?RET_LOW load(1, XDATA, add(CFA_XSP16, literal(-5)))
        CFI (cfiCond75) ?RET_HIGH load(1, XDATA, add(CFA_XSP16, literal(-4)))
        CFI (cfiCond75) ?BRET_EXT load(1, XDATA, add(CFA_XSP16, literal(-3)))
        CFI (cfiCond75) DPL0 load(1, XDATA, add(CFA_XSP16, literal(-2)))
        CFI (cfiCond75) DPH0 load(1, XDATA, add(CFA_XSP16, literal(-1)))
        CFI (cfiCond75) CFA_SP SP+0
        CFI (cfiCond75) CFA_XSP16 add(XSP16, 10)
        CFI Block cfiCond76 Using cfiCommon0
        CFI (cfiCond76) NoFunction
        CFI (cfiCond76) Conditional ??CrossCallReturnLabel_41, ??CrossCallReturnLabel_6
        CFI (cfiCond76) R6 load(1, XDATA, add(CFA_XSP16, literal(-9)))
        CFI (cfiCond76) VB load(1, XDATA, add(CFA_XSP16, literal(-8)))
        CFI (cfiCond76) V0 load(1, XDATA, add(CFA_XSP16, literal(-7)))
        CFI (cfiCond76) R7 load(1, XDATA, add(CFA_XSP16, literal(-6)))
        CFI (cfiCond76) ?RET_LOW load(1, XDATA, add(CFA_XSP16, literal(-5)))
        CFI (cfiCond76) ?RET_HIGH load(1, XDATA, add(CFA_XSP16, literal(-4)))
        CFI (cfiCond76) ?BRET_EXT load(1, XDATA, add(CFA_XSP16, literal(-3)))
        CFI (cfiCond76) DPL0 load(1, XDATA, add(CFA_XSP16, literal(-2)))
        CFI (cfiCond76) DPH0 load(1, XDATA, add(CFA_XSP16, literal(-1)))
        CFI (cfiCond76) CFA_SP SP+0
        CFI (cfiCond76) CFA_XSP16 add(XSP16, 10)
        CFI Block cfiPicker77 Using cfiCommon1
        CFI (cfiPicker77) NoFunction
        CFI (cfiPicker77) Picker
        MOV     A,R2
        ADD     A,#0x3
        INC     R2
        INC     R2
        INC     R2
        MOV     A,R3
        ADDC    A,#0x0
        MOV     R3,A
        MOV     DPL,R2
        MOV     DPH,R3
        MOVX    A,@DPTR
        RET
        CFI EndBlock cfiCond73
        CFI EndBlock cfiCond74
        CFI EndBlock cfiCond75
        CFI EndBlock cfiCond76
        CFI EndBlock cfiPicker77

        RSEG BANKED_CODE:CODE:NOROOT(0)
?Subroutine2:
        CFI Block cfiBlock78 Using cfiCommon0
        CFI NoFunction
        CFI CFA_SP SP+0
        CFI CFA_XSP16 add(XSP16, 10)
        CFI VB load(1, XDATA, add(CFA_XSP16, literal(-8)))
        CFI DPL0 load(1, XDATA, add(CFA_XSP16, literal(-2)))
        CFI DPH0 load(1, XDATA, add(CFA_XSP16, literal(-1)))
        CFI R6 load(1, XDATA, add(CFA_XSP16, literal(-9)))
        CFI R7 load(1, XDATA, add(CFA_XSP16, literal(-6)))
        CFI V0 load(1, XDATA, add(CFA_XSP16, literal(-7)))
        CFI ?BRET_EXT load(1, XDATA, add(CFA_XSP16, literal(-3)))
        CFI ?RET_HIGH load(1, XDATA, add(CFA_XSP16, literal(-4)))
        CFI ?RET_LOW load(1, XDATA, add(CFA_XSP16, literal(-5)))
        MOV     DPL,?XSP + 0
        MOV     DPH,?XSP + 1
        CFI EndBlock cfiBlock78
        REQUIRE ??Subroutine40_0
        ; // Fall through to label ??Subroutine40_0

        RSEG BANKED_CODE:CODE:NOROOT(0)
??Subroutine40_0:
        CFI Block cfiBlock79 Using cfiCommon0
        CFI NoFunction
        CFI CFA_SP SP+0
        CFI CFA_XSP16 add(XSP16, 10)
        CFI VB load(1, XDATA, add(CFA_XSP16, literal(-8)))
        CFI DPL0 load(1, XDATA, add(CFA_XSP16, literal(-2)))
        CFI DPH0 load(1, XDATA, add(CFA_XSP16, literal(-1)))
        CFI R6 load(1, XDATA, add(CFA_XSP16, literal(-9)))
        CFI R7 load(1, XDATA, add(CFA_XSP16, literal(-6)))
        CFI V0 load(1, XDATA, add(CFA_XSP16, literal(-7)))
        CFI ?BRET_EXT load(1, XDATA, add(CFA_XSP16, literal(-3)))
        CFI ?RET_HIGH load(1, XDATA, add(CFA_XSP16, literal(-4)))
        CFI ?RET_LOW load(1, XDATA, add(CFA_XSP16, literal(-5)))
        MOV     R4,DPL
        MOV     R5,DPH
        MOV     R3,#0x1
        MOV     A,R6
        MOV     R2,A
        MOV     R1,#0x67
        LCALL   ??MT_BuildAndSendZToolResponse?relay
        MOV     A,#0x1
        CFI EndBlock cfiBlock79
        REQUIRE ??Subroutine41_0
        ; // Fall through to label ??Subroutine41_0

        RSEG BANKED_CODE:CODE:NOROOT(0)
??Subroutine41_0:
        CFI Block cfiBlock80 Using cfiCommon0
        CFI NoFunction
        CFI CFA_SP SP+0
        CFI CFA_XSP16 add(XSP16, 27)
        CFI VB load(1, XDATA, add(CFA_XSP16, literal(-8)))
        CFI DPL0 load(1, XDATA, add(CFA_XSP16, literal(-2)))
        CFI DPH0 load(1, XDATA, add(CFA_XSP16, literal(-1)))
        CFI R6 load(1, XDATA, add(CFA_XSP16, literal(-9)))
        CFI R7 load(1, XDATA, add(CFA_XSP16, literal(-6)))
        CFI V0 load(1, XDATA, add(CFA_XSP16, literal(-7)))
        CFI ?BRET_EXT load(1, XDATA, add(CFA_XSP16, literal(-3)))
        CFI ?RET_HIGH load(1, XDATA, add(CFA_XSP16, literal(-4)))
        CFI ?RET_LOW load(1, XDATA, add(CFA_XSP16, literal(-5)))
        CFI Invalid
        LCALL   ?DEALLOC_XSTACK8
        CFI CFA_XSP16 add(XSP16, 9)
        CFI Valid
        MOV     R7,#0x1
        LJMP    ?BANKED_LEAVE_XDATA
        CFI EndBlock cfiBlock80
//  720 #endif
//  721 
//  722 /***************************************************************************************************
//  723  * @fn      MT_UtilTimeAlive
//  724  *
//  725  * @brief   Process Time Alive
//  726  *
//  727  * @param   None.
//  728  *
//  729  * @return  None
//  730  ***************************************************************************************************/

        RSEG BANKED_CODE:CODE:NOROOT(0)
//  731 void MT_UtilTimeAlive(void)
MT_UtilTimeAlive:
        CFI Block cfiBlock81 Using cfiCommon0
        CFI Function MT_UtilTimeAlive
        CODE
//  732 {
        FUNCALL MT_UtilTimeAlive, osal_GetSystemClock
        LOCFRAME ISTACK, 0, STACK
        LOCFRAME PSTACK, 0, STACK
        LOCFRAME XSTACK, 20, STACK
        LOCFRAME IOVERLAY, 0, STATIC
        LOCFRAME DOVERLAY, 0, STATIC
        ARGFRAME ISTACK, 0, STACK
        ARGFRAME PSTACK, 0, STACK
        ARGFRAME XSTACK, 20, STACK
        ARGFRAME IOVERLAY, 0, STATIC
        ARGFRAME DOVERLAY, 0, STATIC
        FUNCALL MT_UtilTimeAlive, MT_BuildAndSendZToolResponse
        LOCFRAME ISTACK, 0, STACK
        LOCFRAME PSTACK, 0, STACK
        LOCFRAME XSTACK, 20, STACK
        LOCFRAME IOVERLAY, 0, STATIC
        LOCFRAME DOVERLAY, 0, STATIC
        ARGFRAME ISTACK, 0, STACK
        ARGFRAME PSTACK, 0, STACK
        ARGFRAME XSTACK, 20, STACK
        ARGFRAME IOVERLAY, 0, STATIC
        ARGFRAME DOVERLAY, 0, STATIC
        MOV     A,#-0x10
        LCALL   ?BANKED_ENTER_XDATA
        CFI DPH0 load(1, XDATA, add(CFA_XSP16, literal(-1)))
        CFI DPL0 load(1, XDATA, add(CFA_XSP16, literal(-2)))
        CFI ?BRET_EXT load(1, XDATA, add(CFA_XSP16, literal(-3)))
        CFI ?RET_HIGH load(1, XDATA, add(CFA_XSP16, literal(-4)))
        CFI ?RET_LOW load(1, XDATA, add(CFA_XSP16, literal(-5)))
        CFI R7 load(1, XDATA, add(CFA_XSP16, literal(-6)))
        CFI V7 load(1, XDATA, add(CFA_XSP16, literal(-7)))
        CFI V6 load(1, XDATA, add(CFA_XSP16, literal(-8)))
        CFI V5 load(1, XDATA, add(CFA_XSP16, literal(-9)))
        CFI V4 load(1, XDATA, add(CFA_XSP16, literal(-10)))
        CFI V3 load(1, XDATA, add(CFA_XSP16, literal(-11)))
        CFI V2 load(1, XDATA, add(CFA_XSP16, literal(-12)))
        CFI V1 load(1, XDATA, add(CFA_XSP16, literal(-13)))
        CFI V0 load(1, XDATA, add(CFA_XSP16, literal(-14)))
        CFI VB load(1, XDATA, add(CFA_XSP16, literal(-15)))
        CFI R6 load(1, XDATA, add(CFA_XSP16, literal(-16)))
        CFI CFA_SP SP+0
        CFI CFA_XSP16 add(XSP16, 16)
        ; Saved register size: 16
        ; Auto size: 4
        MOV     A,#-0x4
        LCALL   ?ALLOC_XSTACK8
        CFI CFA_XSP16 add(XSP16, 20)
//  733   uint8 timeAlive[4];
//  734   uint32 tmp32;
//  735 
//  736   /* Time since last reset (seconds) */
//  737   tmp32 = osal_GetSystemClock() / 1000;
        ; Setup parameters for call to function osal_GetSystemClock
        LCALL   ??osal_GetSystemClock?relay
        MOV     ?V0 + 4,R2
        MOV     ?V0 + 5,R3
        MOV     ?V0 + 6,R4
        MOV     ?V0 + 7,R5
        MOV     DPTR,#__Constant_3e8
        MOV     R0,#?V0 + 0
        LCALL   ?L_MOV_X
        MOV     R0,#?V0 + 4
        MOV     R1,#?V0 + 0
        LCALL   ?UL_DIV_MOD
//  738 
//  739   /* Convert to high byte first into temp buffer */
//  740   timeAlive[0] = BREAK_UINT32(tmp32, 0);
        MOV     DPL,?XSP + 0
        MOV     DPH,?XSP + 1
        MOV     A,?V0 + 4
        MOVX    @DPTR,A
//  741   timeAlive[1] = BREAK_UINT32(tmp32, 1);
        MOV     ?V0 + 1,?V0 + 5
        MOV     A,?V0 + 1
        MOV     ?V0 + 0,A
        MOV     A,#0x1
        LCALL   ?XSTACK_DISP0_8
        MOV     A,?V0 + 0
        MOVX    @DPTR,A
//  742   timeAlive[2] = BREAK_UINT32(tmp32, 2);
        MOV     ?V0 + 0,?V0 + 4
        MOV     ?V0 + 2,?V0 + 6
        MOV     ?V0 + 3,?V0 + 7
        MOV     A,#0x10
        MOV     R0,#?V0 + 0
        LCALL   ?UL_SHR
        MOV     A,#0x2
        LCALL   ?XSTACK_DISP0_8
        MOV     A,?V0 + 0
        MOVX    @DPTR,A
//  743   timeAlive[3] = BREAK_UINT32(tmp32, 3);
        MOV     A,#0x18
        MOV     R0,#?V0 + 4
        LCALL   ?UL_SHR
        MOV     A,#0x3
        LCALL   ?XSTACK_DISP0_8
        MOV     A,?V0 + 4
        LCALL   ?Subroutine32 & 0xFFFF
//  744 
//  745   /* Build and send back the response */
//  746   MT_BuildAndSendZToolResponse(((uint8)MT_RPC_CMD_SRSP | (uint8)MT_RPC_SYS_UTIL),
//  747                                        MT_UTIL_TIME_ALIVE, sizeof(timeAlive), timeAlive);
??CrossCallReturnLabel_46:
        MOV     R3,#0x4
        MOV     R2,#0x9
        MOV     R1,#0x67
        LCALL   ??MT_BuildAndSendZToolResponse?relay
//  748 }
        MOV     A,#0x4
        LJMP    ?Subroutine0 & 0xFFFF
        CFI EndBlock cfiBlock81
//  749 
//  750 #if (defined GUU_HAL_LED) && (GUU_HAL_LED == TRUE)// czv7 ÐÞ¸ÄHAL_LED
//  751 /***************************************************************************************************
//  752  * @fn      MT_UtilLedControl
//  753  *
//  754  * @brief   Process the LED Control Message
//  755  *
//  756  * @param   pBuf - pointer to the received data
//  757  *
//  758  * @return  None
//  759  ***************************************************************************************************/

        RSEG BANKED_CODE:CODE:NOROOT(0)
//  760 void MT_UtilLedControl(uint8 *pBuf)
MT_UtilLedControl:
        CFI Block cfiBlock82 Using cfiCommon0
        CFI Function MT_UtilLedControl
        CODE
//  761 {
        FUNCALL MT_UtilLedControl, HalLedSet
        LOCFRAME ISTACK, 0, STACK
        LOCFRAME PSTACK, 0, STACK
        LOCFRAME XSTACK, 10, STACK
        LOCFRAME IOVERLAY, 0, STATIC
        LOCFRAME DOVERLAY, 0, STATIC
        ARGFRAME ISTACK, 0, STACK
        ARGFRAME PSTACK, 0, STACK
        ARGFRAME XSTACK, 10, STACK
        ARGFRAME IOVERLAY, 0, STATIC
        ARGFRAME DOVERLAY, 0, STATIC
        FUNCALL MT_UtilLedControl, MT_BuildAndSendZToolResponse
        LOCFRAME ISTACK, 0, STACK
        LOCFRAME PSTACK, 0, STACK
        LOCFRAME XSTACK, 10, STACK
        LOCFRAME IOVERLAY, 0, STATIC
        LOCFRAME DOVERLAY, 0, STATIC
        ARGFRAME ISTACK, 0, STACK
        ARGFRAME PSTACK, 0, STACK
        ARGFRAME XSTACK, 10, STACK
        ARGFRAME IOVERLAY, 0, STATIC
        ARGFRAME DOVERLAY, 0, STATIC
        MOV     A,#-0x9
        LCALL   ?BANKED_ENTER_XDATA
        CFI DPH0 load(1, XDATA, add(CFA_XSP16, literal(-1)))
        CFI DPL0 load(1, XDATA, add(CFA_XSP16, literal(-2)))
        CFI ?BRET_EXT load(1, XDATA, add(CFA_XSP16, literal(-3)))
        CFI ?RET_HIGH load(1, XDATA, add(CFA_XSP16, literal(-4)))
        CFI ?RET_LOW load(1, XDATA, add(CFA_XSP16, literal(-5)))
        CFI R7 load(1, XDATA, add(CFA_XSP16, literal(-6)))
        CFI V0 load(1, XDATA, add(CFA_XSP16, literal(-7)))
        CFI VB load(1, XDATA, add(CFA_XSP16, literal(-8)))
        CFI R6 load(1, XDATA, add(CFA_XSP16, literal(-9)))
        CFI CFA_SP SP+0
        CFI CFA_XSP16 add(XSP16, 9)
        ; Saved register size: 9
        ; Auto size: 1
        MOV     A,#-0x1
        LCALL   ?ALLOC_XSTACK8
        CFI CFA_XSP16 add(XSP16, 10)
//  762   uint8 iLed, Led, iMode, Mode, cmdId;
//  763   uint8 retValue = ZFailure;
        LCALL   ?Subroutine7 & 0xFFFF
//  764 
//  765   /* parse header */
//  766   cmdId = pBuf[MT_RPC_POS_CMD1];
//  767   pBuf += MT_RPC_FRAME_HDR_SZ;
//  768 
//  769   /* LED and Mode */
//  770   iLed = *pBuf++;
??CrossCallReturnLabel_6:
        MOV     R0,A
        INC     DPTR
//  771   iMode = *pBuf;
        MOVX    A,@DPTR
        MOV     R2,A
//  772 
//  773   if ( iLed == 1 )
        MOV     A,#0x1
        XRL     A,R0
        JNZ     ??MT_UtilLedControl_0
//  774     Led = HAL_LED_1;
        MOV     R1,#0x1
        SJMP    ??MT_UtilLedControl_1
//  775   else if ( iLed == 2 )
??MT_UtilLedControl_0:
        MOV     A,#0x2
        XRL     A,R0
        JNZ     ??MT_UtilLedControl_2
//  776     Led = HAL_LED_2;
        MOV     R1,#0x2
        SJMP    ??MT_UtilLedControl_1
//  777   else if ( iLed == 3 )
??MT_UtilLedControl_2:
        MOV     A,#0x3
        XRL     A,R0
        JNZ     ??MT_UtilLedControl_3
//  778     Led = HAL_LED_3;
        MOV     R1,#0x4
        SJMP    ??MT_UtilLedControl_1
//  779   else if ( iLed == 4 )
??MT_UtilLedControl_3:
        MOV     A,#0x4
        XRL     A,R0
        JNZ     ??MT_UtilLedControl_4
//  780     Led = HAL_LED_4;
        MOV     R1,#0x8
        SJMP    ??MT_UtilLedControl_1
//  781   else if ( iLed == 0xFF )
??MT_UtilLedControl_4:
        MOV     A,#-0x1
        XRL     A,R0
        JNZ     ??MT_UtilLedControl_5
//  782     Led = HAL_LED_ALL;
        MOV     R1,#-0x1
        SJMP    ??MT_UtilLedControl_1
//  783   else
//  784     Led = 0;
??MT_UtilLedControl_5:
        MOV     R1,#0x0
//  785 
//  786   if ( iMode == 0 )
??MT_UtilLedControl_1:
        MOV     A,R2
        JNZ     ??MT_UtilLedControl_6
//  787     Mode = HAL_LED_MODE_OFF;
        MOV     R2,#0x0
        SJMP    ??MT_UtilLedControl_7
//  788   else if ( iMode == 1 )
??MT_UtilLedControl_6:
        MOV     A,#0x1
        XRL     A,R2
        JNZ     ??MT_UtilLedControl_8
//  789     Mode = HAL_LED_MODE_ON;
        MOV     R2,#0x1
        SJMP    ??MT_UtilLedControl_7
//  790   else if ( iMode == 2 )
??MT_UtilLedControl_8:
        MOV     A,#0x2
        XRL     A,R2
        JNZ     ??MT_UtilLedControl_9
//  791     Mode = HAL_LED_MODE_BLINK;
        MOV     R2,#0x2
        SJMP    ??MT_UtilLedControl_7
//  792   else if ( iMode == 3 )
??MT_UtilLedControl_9:
        MOV     A,#0x3
        XRL     A,R2
        JNZ     ??MT_UtilLedControl_10
//  793     Mode = HAL_LED_MODE_FLASH;
        MOV     R2,#0x4
        SJMP    ??MT_UtilLedControl_7
//  794   else if ( iMode == 4 )
??MT_UtilLedControl_10:
        MOV     A,#0x4
        XRL     A,R2
        JNZ     ??MT_UtilLedControl_11
//  795     Mode = HAL_LED_MODE_TOGGLE;
        MOV     R2,#0x8
//  796   else
//  797     Led = 0;
//  798 
//  799   if ( Led != 0 )
??MT_UtilLedControl_7:
        MOV     A,R1
        JZ      ??MT_UtilLedControl_11
//  800   {
//  801     HalLedSet (Led, Mode);
        ; Setup parameters for call to function HalLedSet
        LCALL   ??HalLedSet?relay
//  802     retValue = ZSuccess;
        MOV     DPL,?XSP + 0
        MOV     DPH,?XSP + 1
        CLR     A
        MOVX    @DPTR,A
//  803   }
//  804 
//  805   /* Build and send back the response */
//  806   MT_BuildAndSendZToolResponse(((uint8)MT_RPC_CMD_SRSP | (uint8)MT_RPC_SYS_UTIL), cmdId, 1, &retValue );
??MT_UtilLedControl_11:
        ; Setup parameters for call to function MT_BuildAndSendZToolResponse
        LJMP    ?Subroutine2 & 0xFFFF
        CFI EndBlock cfiBlock82
//  807 }
//  808 #endif /* HAL_LED */
//  809 
//  810 
//  811 /***************************************************************************************************
//  812  * @fn          MT_UtilSrcMatchEnable
//  813  *
//  814  * @brief      Enabled AUTOPEND and source address matching.
//  815  *
//  816  * @param      pBuf - Buffer contains the data
//  817  *
//  818  * @return     void
//  819  ***************************************************************************************************/

        RSEG BANKED_CODE:CODE:NOROOT(0)
//  820 void MT_UtilSrcMatchEnable (uint8 *pBuf)
MT_UtilSrcMatchEnable:
        CFI Block cfiBlock83 Using cfiCommon0
        CFI Function MT_UtilSrcMatchEnable
        CODE
        FUNCALL MT_UtilSrcMatchEnable, MT_BuildAndSendZToolResponse
        LOCFRAME ISTACK, 2, STACK
        LOCFRAME PSTACK, 0, STACK
        LOCFRAME XSTACK, 1, STACK
        LOCFRAME IOVERLAY, 0, STATIC
        LOCFRAME DOVERLAY, 0, STATIC
        ARGFRAME ISTACK, 2, STACK
        ARGFRAME PSTACK, 0, STACK
        ARGFRAME XSTACK, 1, STACK
        ARGFRAME IOVERLAY, 0, STATIC
        ARGFRAME DOVERLAY, 0, STATIC
        SJMP    ?Subroutine3
        CFI EndBlock cfiBlock83
//  821 {
//  822   uint8 retValue, cmdId;
//  823 
//  824   /* Parse header */
//  825   cmdId = pBuf[MT_RPC_POS_CMD1];
//  826   pBuf += MT_RPC_FRAME_HDR_SZ;
//  827 
//  828 #ifdef AUTO_PEND
//  829   /* Call the routine */
//  830   retValue = ZMacSrcMatchEnable (pBuf[0], pBuf[1]);
//  831 #else
//  832   retValue = ZMacUnsupported;
//  833 #endif
//  834 
//  835   /* Build and send back the response */
//  836   MT_BuildAndSendZToolResponse(((uint8)MT_RPC_CMD_SRSP | (uint8)MT_RPC_SYS_UTIL), cmdId, 1, &retValue );
//  837 
//  838 }
//  839 
//  840 /***************************************************************************************************
//  841  * @fn          MT_UtilSrcMatchAddEntry
//  842  *
//  843  * @brief       Add a short or extended address to source address table.
//  844  *
//  845  * @param       pBuf - Buffer contains the data
//  846  *
//  847  * @return      void
//  848  ***************************************************************************************************/

        RSEG BANKED_CODE:CODE:NOROOT(0)
//  849 void MT_UtilSrcMatchAddEntry (uint8 *pBuf)
MT_UtilSrcMatchAddEntry:
        CFI Block cfiBlock84 Using cfiCommon0
        CFI Function MT_UtilSrcMatchAddEntry
        CODE
        FUNCALL MT_UtilSrcMatchAddEntry, MT_BuildAndSendZToolResponse
        LOCFRAME ISTACK, 2, STACK
        LOCFRAME PSTACK, 0, STACK
        LOCFRAME XSTACK, 1, STACK
        LOCFRAME IOVERLAY, 0, STATIC
        LOCFRAME DOVERLAY, 0, STATIC
        ARGFRAME ISTACK, 2, STACK
        ARGFRAME PSTACK, 0, STACK
        ARGFRAME XSTACK, 1, STACK
        ARGFRAME IOVERLAY, 0, STATIC
        ARGFRAME DOVERLAY, 0, STATIC
        SJMP    ?Subroutine3
        CFI EndBlock cfiBlock84
//  850 {
//  851   uint8 retValue, cmdId;
//  852 
//  853   /* Parse header */
//  854   cmdId = pBuf[MT_RPC_POS_CMD1];
//  855   pBuf += MT_RPC_FRAME_HDR_SZ;
//  856 
//  857 #ifdef AUTO_PEND
//  858   uint16 panID;
//  859   zAddrType_t devAddr;
//  860 
//  861   /* Address mode */
//  862   devAddr.addrMode = *pBuf++;
//  863 
//  864   /* Address based on the address mode */
//  865   MT_UtilSpi2Addr( &devAddr, pBuf);
//  866   pBuf += Z_EXTADDR_LEN;
//  867 
//  868   /* PanID */
//  869   panID = BUILD_UINT16( pBuf[0] , pBuf[1] );
//  870 
//  871   /* Call the routine */
//  872   retValue =  ZMacSrcMatchAddEntry (&devAddr, panID);
//  873 #else
//  874   retValue = ZMacUnsupported;
//  875 #endif
//  876 
//  877   /* Build and send back the response */
//  878   MT_BuildAndSendZToolResponse(((uint8)MT_RPC_CMD_SRSP | (uint8)MT_RPC_SYS_UTIL), cmdId, 1, &retValue );
//  879 }
//  880 
//  881 /***************************************************************************************************
//  882  * @fn          MT_UtilSrcMatchDeleteEntry
//  883  *
//  884  * @brief      Delete a short or extended address from source address table.
//  885  *
//  886  * @param      pBuf - Buffer contains the data
//  887  *
//  888  * @return     void
//  889  ***************************************************************************************************/

        RSEG BANKED_CODE:CODE:NOROOT(0)
//  890 void MT_UtilSrcMatchDeleteEntry (uint8 *pBuf)
MT_UtilSrcMatchDeleteEntry:
        CFI Block cfiBlock85 Using cfiCommon0
        CFI Function MT_UtilSrcMatchDeleteEntry
        CODE
        FUNCALL MT_UtilSrcMatchDeleteEntry, MT_BuildAndSendZToolResponse
        LOCFRAME ISTACK, 2, STACK
        LOCFRAME PSTACK, 0, STACK
        LOCFRAME XSTACK, 1, STACK
        LOCFRAME IOVERLAY, 0, STATIC
        LOCFRAME DOVERLAY, 0, STATIC
        ARGFRAME ISTACK, 2, STACK
        ARGFRAME PSTACK, 0, STACK
        ARGFRAME XSTACK, 1, STACK
        ARGFRAME IOVERLAY, 0, STATIC
        ARGFRAME DOVERLAY, 0, STATIC
        SJMP    ?Subroutine3
        CFI EndBlock cfiBlock85
//  891 {
//  892   uint8 retValue, cmdId;
//  893 
//  894   /* Parse header */
//  895   cmdId = pBuf[MT_RPC_POS_CMD1];
//  896   pBuf += MT_RPC_FRAME_HDR_SZ;
//  897 
//  898 #ifdef AUTO_PEND
//  899   uint16 panID;
//  900   zAddrType_t devAddr;
//  901 
//  902   /* Address mode */
//  903   devAddr.addrMode = *pBuf++;
//  904 
//  905   /* Address based on the address mode */
//  906   MT_UtilSpi2Addr( &devAddr, pBuf);
//  907   pBuf += Z_EXTADDR_LEN;
//  908 
//  909   /* PanID */
//  910   panID = BUILD_UINT16( pBuf[0] , pBuf[1] );
//  911 
//  912   /* Call the routine */
//  913   retValue =  ZMacSrcMatchDeleteEntry (&devAddr, panID);
//  914 #else
//  915   retValue = ZMacUnsupported;
//  916 #endif
//  917 
//  918   /* Build and send back the response */
//  919   MT_BuildAndSendZToolResponse(((uint8)MT_RPC_CMD_SRSP | (uint8)MT_RPC_SYS_UTIL), cmdId, 1, &retValue );
//  920 }
//  921 
//  922 /***************************************************************************************************
//  923  * @fn          MT_UtilSrcMatchCheckSrcAddr
//  924  *
//  925  * @brief      Check if a short or extended address is in the source address table.
//  926  *
//  927  * @param      pBuf - Buffer contains the data
//  928  *
//  929  * @return     void
//  930  ***************************************************************************************************/

        RSEG BANKED_CODE:CODE:NOROOT(0)
//  931 void MT_UtilSrcMatchCheckSrcAddr (uint8 *pBuf)
MT_UtilSrcMatchCheckSrcAddr:
        CFI Block cfiBlock86 Using cfiCommon0
        CFI Function MT_UtilSrcMatchCheckSrcAddr
        CODE
//  932 {
        FUNCALL MT_UtilSrcMatchCheckSrcAddr, MT_BuildAndSendZToolResponse
        LOCFRAME ISTACK, 2, STACK
        LOCFRAME PSTACK, 0, STACK
        LOCFRAME XSTACK, 2, STACK
        LOCFRAME IOVERLAY, 0, STATIC
        LOCFRAME DOVERLAY, 0, STATIC
        ARGFRAME ISTACK, 2, STACK
        ARGFRAME PSTACK, 0, STACK
        ARGFRAME XSTACK, 2, STACK
        ARGFRAME IOVERLAY, 0, STATIC
        ARGFRAME DOVERLAY, 0, STATIC
        PUSH    DPL
        CFI DPL0 Frame(CFA_SP, 4)
        CFI CFA_SP SP+-4
        PUSH    DPH
        CFI DPH0 Frame(CFA_SP, 5)
        CFI CFA_SP SP+-5
        ; Saved register size: 2
        ; Auto size: 2
        MOV     A,#-0x2
        LCALL   ?ALLOC_XSTACK8
        CFI CFA_XSP16 add(XSP16, 2)
//  933   uint8 cmdId;
//  934   uint8 retArray[2];
//  935 
//  936   /* Parse header */
//  937   cmdId = pBuf[MT_RPC_POS_CMD1];
        LCALL   ?Subroutine15 & 0xFFFF
//  938   pBuf += MT_RPC_FRAME_HDR_SZ;
//  939 
//  940 #if 0  /* Unsupported  */
//  941   uint16 panID;
//  942   zAddrType_t devAddr;
//  943 
//  944   /* Address mode */
//  945   devAddr.addrMode = *pBuf++;
//  946 
//  947   /* Address based on the address mode */
//  948   MT_UtilSpi2Addr( &devAddr, pBuf);
//  949   pBuf += Z_EXTADDR_LEN;
//  950 
//  951   /* PanID */
//  952   panID = BUILD_UINT16( pBuf[0] , pBuf[1] );
//  953 
//  954   /* Call the routine */
//  955   retArray[1] =  ZMacSrcMatchCheckSrcAddr (&devAddr, panID);
//  956 
//  957     /* Return failure if the index is invalid */
//  958   if (retArray[1] == ZMacSrcMatchInvalidIndex )
//  959   {
//  960     retArray[0] = ZFailure;
//  961   }
//  962   else
//  963   {
//  964     retArray[0] = ZSuccess;
//  965   }
//  966 #else
//  967   retArray[0] = ZMacUnsupported;
//  968   retArray[1] = ZMacSrcMatchInvalidIndex;
??CrossCallReturnLabel_19:
        LCALL   ?XSTACK_DISP0_8
        MOV     A,#-0x1
        CFI EndBlock cfiBlock86
        REQUIRE ?Subroutine4
        ; // Fall through to label ?Subroutine4
//  969 #endif
//  970 
//  971   /* Build and send back the response */
//  972   MT_BuildAndSendZToolResponse(((uint8)MT_RPC_CMD_SRSP | (uint8)MT_RPC_SYS_UTIL), cmdId, 2, retArray );
//  973 }

        RSEG BANKED_CODE:CODE:NOROOT(0)
?Subroutine4:
        CFI Block cfiBlock87 Using cfiCommon0
        CFI NoFunction
        CFI CFA_SP SP+-5
        CFI CFA_XSP16 add(XSP16, 2)
        CFI DPL0 Frame(CFA_SP, 4)
        CFI DPH0 Frame(CFA_SP, 5)
        LCALL   ?Subroutine21 & 0xFFFF
??CrossCallReturnLabel_27:
        MOV     R1,#0x67
        LCALL   ??MT_BuildAndSendZToolResponse?relay
        MOV     A,#0x2
        SJMP    ??Subroutine43_0
        CFI EndBlock cfiBlock87
//  974 
//  975 /***************************************************************************************************
//  976  * @fn          MT_UtilSrcMatchAckAllPending
//  977  *
//  978  * @brief       Enabled/disable acknowledging all packets with pending bit set
//  979  *              It is normally enabled when adding new entries to
//  980  *              the source address table fails due to the table is full, or
//  981  *              disabled when more entries are deleted and the table has
//  982  *              empty slots.
//  983  *
//  984  * @param       pBuf - Buffer contains the data
//  985  *
//  986  * @return      void
//  987  ***************************************************************************************************/

        RSEG BANKED_CODE:CODE:NOROOT(0)
//  988 void MT_UtilSrcMatchAckAllPending (uint8 *pBuf)
MT_UtilSrcMatchAckAllPending:
        CODE
        FUNCALL MT_UtilSrcMatchAckAllPending, MT_BuildAndSendZToolResponse
        LOCFRAME ISTACK, 2, STACK
        LOCFRAME PSTACK, 0, STACK
        LOCFRAME XSTACK, 1, STACK
        LOCFRAME IOVERLAY, 0, STATIC
        LOCFRAME DOVERLAY, 0, STATIC
        ARGFRAME ISTACK, 2, STACK
        ARGFRAME PSTACK, 0, STACK
        ARGFRAME XSTACK, 1, STACK
        ARGFRAME IOVERLAY, 0, STATIC
        ARGFRAME DOVERLAY, 0, STATIC
        REQUIRE ?Subroutine3
        ; // Fall through to label ?Subroutine3

        RSEG BANKED_CODE:CODE:NOROOT(0)
?Subroutine3:
        CFI Block cfiBlock88 Using cfiCommon0
        CFI NoFunction
//  989 {
        PUSH    DPL
        CFI CFA_SP SP+-4
        CFI DPL0 Frame(CFA_SP, 4)
        PUSH    DPH
        CFI CFA_SP SP+-5
        CFI DPH0 Frame(CFA_SP, 5)
        ; Saved register size: 2
        ; Auto size: 1
        ; Saved register size: 2
        ; Auto size: 1
        ; Saved register size: 2
        ; Auto size: 1
        ; Saved register size: 2
        ; Auto size: 1
        MOV     A,#-0x1
        LCALL   ?ALLOC_XSTACK8
        CFI CFA_XSP16 add(XSP16, 1)
//  990   uint8 retValue, cmdId;
//  991 
//  992   /* Parse header */
//  993   cmdId = pBuf[MT_RPC_POS_CMD1];
        LCALL   ?Subroutine30 & 0xFFFF
//  994   pBuf += MT_RPC_FRAME_HDR_SZ;
//  995 
//  996 #ifdef AUTO_PEND
//  997   /* Call the routine */
//  998   retValue = ZMacSrcMatchAckAllPending(*pBuf);
//  999 #else
// 1000   retValue = ZMacUnsupported;
??CrossCallReturnLabel_42:
        LCALL   ??Subroutine38_0 & 0xFFFF
        CFI EndBlock cfiBlock88
// 1001 #endif
// 1002 
// 1003   /* Build and send back the response */
// 1004   MT_BuildAndSendZToolResponse(((uint8)MT_RPC_CMD_SRSP | (uint8)MT_RPC_SYS_UTIL), cmdId, 1, &retValue );
??CrossCallReturnLabel_61:
        REQUIRE ??Subroutine42_0
        ; // Fall through to label ??Subroutine42_0

        RSEG BANKED_CODE:CODE:NOROOT(0)
??Subroutine42_0:
        CFI Block cfiBlock89 Using cfiCommon0
        CFI NoFunction
        CFI CFA_SP SP+-5
        CFI CFA_XSP16 add(XSP16, 1)
        CFI DPL0 Frame(CFA_SP, 4)
        CFI DPH0 Frame(CFA_SP, 5)
        MOV     R1,#0x67
        LCALL   ??MT_BuildAndSendZToolResponse?relay
// 1005 }
        MOV     A,#0x1
        CFI EndBlock cfiBlock89
        REQUIRE ??Subroutine43_0
        ; // Fall through to label ??Subroutine43_0

        RSEG BANKED_CODE:CODE:NOROOT(0)
??Subroutine43_0:
        CFI Block cfiBlock90 Using cfiCommon0
        CFI NoFunction
        CFI CFA_SP SP+-5
        CFI CFA_XSP16 add(XSP16, 2)
        CFI DPL0 Frame(CFA_SP, 4)
        CFI DPH0 Frame(CFA_SP, 5)
        CFI Invalid
        LCALL   ?DEALLOC_XSTACK8
        CFI CFA_XSP16 XSP16+0
        CFI Valid
        POP     DPH
        CFI CFA_SP SP+-4
        CFI DPH0 SameValue
        POP     DPL
        CFI CFA_SP SP+-3
        CFI DPL0 SameValue
        LJMP    ?BRET
        CFI EndBlock cfiBlock90
// 1006 
// 1007 /***************************************************************************************************
// 1008  * @fn          MT_UtilSrcMatchCheckAllPending
// 1009  *
// 1010  * @brief       Check if acknowledging all packets with pending bit set
// 1011  *              is enabled.
// 1012  *
// 1013  * @param       pBuf - Buffer contains the data
// 1014  *
// 1015  * @return      void
// 1016  ***************************************************************************************************/

        RSEG BANKED_CODE:CODE:NOROOT(0)
// 1017 void MT_UtilSrcMatchCheckAllPending (uint8 *pBuf)
MT_UtilSrcMatchCheckAllPending:
        CFI Block cfiBlock91 Using cfiCommon0
        CFI Function MT_UtilSrcMatchCheckAllPending
        CODE
// 1018 {
        FUNCALL MT_UtilSrcMatchCheckAllPending, MT_BuildAndSendZToolResponse
        LOCFRAME ISTACK, 2, STACK
        LOCFRAME PSTACK, 0, STACK
        LOCFRAME XSTACK, 2, STACK
        LOCFRAME IOVERLAY, 0, STATIC
        LOCFRAME DOVERLAY, 0, STATIC
        ARGFRAME ISTACK, 2, STACK
        ARGFRAME PSTACK, 0, STACK
        ARGFRAME XSTACK, 2, STACK
        ARGFRAME IOVERLAY, 0, STATIC
        ARGFRAME DOVERLAY, 0, STATIC
        PUSH    DPL
        CFI DPL0 Frame(CFA_SP, 4)
        CFI CFA_SP SP+-4
        PUSH    DPH
        CFI DPH0 Frame(CFA_SP, 5)
        CFI CFA_SP SP+-5
        ; Saved register size: 2
        ; Auto size: 2
        MOV     A,#-0x2
        LCALL   ?ALLOC_XSTACK8
        CFI CFA_XSP16 add(XSP16, 2)
// 1019   uint8 retArray[2], cmdId;
// 1020 
// 1021   /* Parse header */
// 1022   cmdId = pBuf[MT_RPC_POS_CMD1];
        LCALL   ?Subroutine15 & 0xFFFF
// 1023   pBuf += MT_RPC_FRAME_HDR_SZ;
// 1024 
// 1025 #ifdef AUTO_PEND
// 1026   /* Call the routine */
// 1027   retArray[0] = ZMacSuccess;
// 1028   retArray[1] = ZMacSrcMatchCheckAllPending();
// 1029 #else
// 1030   retArray[0] = ZMacUnsupported;
// 1031   retArray[1] = FALSE;
??CrossCallReturnLabel_20:
        LCALL   ?XSTACK_DISP0_8
        CLR     A
        SJMP    ?Subroutine4
        CFI EndBlock cfiBlock91
// 1032 #endif
// 1033 
// 1034   /* Build and send back the response */
// 1035   MT_BuildAndSendZToolResponse(((uint8)MT_RPC_CMD_SRSP | (uint8)MT_RPC_SYS_UTIL), cmdId, 2, retArray );
// 1036 }

        RSEG BANKED_CODE:CODE:NOROOT(0)
?Subroutine15:
        CFI Block cfiCond92 Using cfiCommon0
        CFI NoFunction
        CFI Conditional ??CrossCallReturnLabel_19
        CFI DPL0 Frame(CFA_SP, 4)
        CFI DPH0 Frame(CFA_SP, 5)
        CFI CFA_SP SP+-5
        CFI CFA_XSP16 add(XSP16, 2)
        CFI Block cfiCond93 Using cfiCommon0
        CFI (cfiCond93) NoFunction
        CFI (cfiCond93) Conditional ??CrossCallReturnLabel_20
        CFI (cfiCond93) DPL0 Frame(CFA_SP, 4)
        CFI (cfiCond93) DPH0 Frame(CFA_SP, 5)
        CFI (cfiCond93) CFA_SP SP+-5
        CFI (cfiCond93) CFA_XSP16 add(XSP16, 2)
        CFI Block cfiPicker94 Using cfiCommon1
        CFI (cfiPicker94) NoFunction
        CFI (cfiPicker94) Picker
        LCALL   ?Subroutine30 & 0xFFFF
??CrossCallReturnLabel_43:
        MOVX    @DPTR,A
        MOV     A,#0x1
        RET
        CFI EndBlock cfiCond92
        CFI EndBlock cfiCond93
        CFI EndBlock cfiPicker94

        RSEG BANKED_CODE:CODE:NOROOT(0)
?Subroutine30:
        CFI Block cfiCond95 Using cfiCommon0
        CFI NoFunction
        CFI Conditional ??CrossCallReturnLabel_42
        CFI DPL0 Frame(CFA_SP, 4)
        CFI DPH0 Frame(CFA_SP, 5)
        CFI CFA_SP SP+-5
        CFI CFA_XSP16 add(XSP16, 1)
        CFI Block cfiCond96 Using cfiCommon0
        CFI (cfiCond96) NoFunction
        CFI (cfiCond96) Conditional ??CrossCallReturnLabel_42
        CFI (cfiCond96) DPL0 Frame(CFA_SP, 4)
        CFI (cfiCond96) DPH0 Frame(CFA_SP, 5)
        CFI (cfiCond96) CFA_SP SP+-5
        CFI (cfiCond96) CFA_XSP16 add(XSP16, 1)
        CFI Block cfiCond97 Using cfiCommon0
        CFI (cfiCond97) NoFunction
        CFI (cfiCond97) Conditional ??CrossCallReturnLabel_42
        CFI (cfiCond97) DPL0 Frame(CFA_SP, 4)
        CFI (cfiCond97) DPH0 Frame(CFA_SP, 5)
        CFI (cfiCond97) CFA_SP SP+-5
        CFI (cfiCond97) CFA_XSP16 add(XSP16, 1)
        CFI Block cfiCond98 Using cfiCommon0
        CFI (cfiCond98) NoFunction
        CFI (cfiCond98) Conditional ??CrossCallReturnLabel_42
        CFI (cfiCond98) DPL0 Frame(CFA_SP, 4)
        CFI (cfiCond98) DPH0 Frame(CFA_SP, 5)
        CFI (cfiCond98) CFA_SP SP+-5
        CFI (cfiCond98) CFA_XSP16 add(XSP16, 1)
        CFI Block cfiCond99 Using cfiCommon0
        CFI (cfiCond99) NoFunction
        CFI (cfiCond99) Conditional ??CrossCallReturnLabel_43, ??CrossCallReturnLabel_19
        CFI (cfiCond99) DPL0 Frame(CFA_SP, 4)
        CFI (cfiCond99) DPH0 Frame(CFA_SP, 5)
        CFI (cfiCond99) CFA_SP SP+-5
        CFI (cfiCond99) CFA_XSP16 add(XSP16, 2)
        CFI Block cfiCond100 Using cfiCommon0
        CFI (cfiCond100) NoFunction
        CFI (cfiCond100) Conditional ??CrossCallReturnLabel_43, ??CrossCallReturnLabel_20
        CFI (cfiCond100) DPL0 Frame(CFA_SP, 4)
        CFI (cfiCond100) DPH0 Frame(CFA_SP, 5)
        CFI (cfiCond100) CFA_SP SP+-5
        CFI (cfiCond100) CFA_XSP16 add(XSP16, 2)
        CFI Block cfiPicker101 Using cfiCommon1
        CFI (cfiPicker101) NoFunction
        CFI (cfiPicker101) Picker
        MOV     DPL,R2
        MOV     DPH,R3
        INC     DPTR
        INC     DPTR
        MOVX    A,@DPTR
        MOV     R2,A
        MOV     DPL,?XSP + 0
        MOV     DPH,?XSP + 1
        MOV     A,#-0xb
        RET
        CFI EndBlock cfiCond95
        CFI EndBlock cfiCond96
        CFI EndBlock cfiCond97
        CFI EndBlock cfiCond98
        CFI EndBlock cfiCond99
        CFI EndBlock cfiCond100
        CFI EndBlock cfiPicker101
// 1037 
// 1038 /***************************************************************************************************
// 1039  * SUPPORT
// 1040  ***************************************************************************************************/
// 1041 
// 1042 #ifdef AUTO_PEND
// 1043 /***************************************************************************************************
// 1044  * @fn      MT_UtilRevExtCpy
// 1045  *
// 1046  * @brief
// 1047  *
// 1048  *   Reverse-copy an extended address.
// 1049  *
// 1050  * @param   pDst - Pointer to data destination
// 1051  * @param   pSrc - Pointer to data source
// 1052  *
// 1053  * @return  void
// 1054  ***************************************************************************************************/
// 1055 static void MT_UtilRevExtCpy( uint8 *pDst, uint8 *pSrc )
// 1056 {
// 1057   int8 i;
// 1058 
// 1059   for ( i = Z_EXTADDR_LEN - 1; i >= 0; i-- )
// 1060   {
// 1061     *pDst++ = pSrc[i];
// 1062   }
// 1063 }
// 1064 
// 1065 /***************************************************************************************************
// 1066  * @fn      MT_UtilSpi2Addr
// 1067  *
// 1068  * @brief   Copy an address from an SPI message to an address struct.  The
// 1069  *          addrMode in pAddr must already be set.
// 1070  *
// 1071  * @param   pDst - Pointer to address struct
// 1072  * @param   pSrc - Pointer SPI message byte array
// 1073  *
// 1074  * @return  void
// 1075  ***************************************************************************************************/
// 1076 static void MT_UtilSpi2Addr( zAddrType_t *pDst, uint8 *pSrc )
// 1077 {
// 1078   if ( pDst->addrMode == Addr16Bit )
// 1079   {
// 1080     pDst->addr.shortAddr = BUILD_UINT16( pSrc[0] , pSrc[1] );
// 1081   }
// 1082   else if ( pDst->addrMode == Addr64Bit )
// 1083   {
// 1084     MT_UtilRevExtCpy( pDst->addr.extAddr, pSrc );
// 1085   }
// 1086 }
// 1087 #endif // AUTO_PEND
// 1088 
// 1089 #if !defined NONWK
// 1090 /**************************************************************************************************
// 1091  * @fn      MT_UtilDataReq
// 1092  *
// 1093  * @brief   Process the MAC Data Request command.
// 1094  *
// 1095  * @param   pBuf - pointer to the received data
// 1096  *
// 1097  * @return  None
// 1098 **************************************************************************************************/

        RSEG BANKED_CODE:CODE:NOROOT(0)
// 1099 void MT_UtilDataReq(uint8 *pBuf)
MT_UtilDataReq:
        CFI Block cfiBlock102 Using cfiCommon0
        CFI Function MT_UtilDataReq
        CODE
// 1100 {
        FUNCALL MT_UtilDataReq, NwkPollReq
        LOCFRAME ISTACK, 2, STACK
        LOCFRAME PSTACK, 0, STACK
        LOCFRAME XSTACK, 1, STACK
        LOCFRAME IOVERLAY, 0, STATIC
        LOCFRAME DOVERLAY, 0, STATIC
        ARGFRAME ISTACK, 2, STACK
        ARGFRAME PSTACK, 0, STACK
        ARGFRAME XSTACK, 1, STACK
        ARGFRAME IOVERLAY, 0, STATIC
        ARGFRAME DOVERLAY, 0, STATIC
        FUNCALL MT_UtilDataReq, MT_BuildAndSendZToolResponse
        LOCFRAME ISTACK, 2, STACK
        LOCFRAME PSTACK, 0, STACK
        LOCFRAME XSTACK, 1, STACK
        LOCFRAME IOVERLAY, 0, STATIC
        LOCFRAME DOVERLAY, 0, STATIC
        ARGFRAME ISTACK, 2, STACK
        ARGFRAME PSTACK, 0, STACK
        ARGFRAME XSTACK, 1, STACK
        ARGFRAME IOVERLAY, 0, STATIC
        ARGFRAME DOVERLAY, 0, STATIC
        PUSH    DPL
        CFI DPL0 Frame(CFA_SP, 4)
        CFI CFA_SP SP+-4
        PUSH    DPH
        CFI DPH0 Frame(CFA_SP, 5)
        CFI CFA_SP SP+-5
        ; Saved register size: 2
        ; Auto size: 1
        MOV     A,#-0x1
        LCALL   ?ALLOC_XSTACK8
        CFI CFA_XSP16 add(XSP16, 1)
// 1101   uint8 rtrn = NwkPollReq(pBuf[MT_RPC_POS_DAT0]);
        ; Setup parameters for call to function NwkPollReq
        MOV     DPL,R2
        MOV     DPH,R3
        INC     DPTR
        INC     DPTR
        INC     DPTR
        MOVX    A,@DPTR
        MOV     R1,A
        LCALL   ??NwkPollReq?relay
        LCALL   ?Subroutine20 & 0xFFFF
// 1102   MT_BuildAndSendZToolResponse(((uint8)MT_RPC_CMD_SRSP | (uint8)MT_RPC_SYS_UTIL), MT_UTIL_DATA_REQ,
// 1103                                                                                1, &rtrn);
??CrossCallReturnLabel_60:
        MOV     R2,#0x11
        SJMP    ??Subroutine42_0
        CFI EndBlock cfiBlock102
// 1104 }
// 1105 
// 1106 /***************************************************************************************************
// 1107  * @fn      MT_UtilAddrMgrEntryLookupExt
// 1108  *
// 1109  * @brief   Proxy the AddrMgrEntryLookupExt() function.
// 1110  *
// 1111  * @param   pBuf - pointer to the received buffer
// 1112  *
// 1113  * @return  void
// 1114  ***************************************************************************************************/

        RSEG BANKED_CODE:CODE:NOROOT(0)
// 1115 static void MT_UtilAddrMgrEntryLookupExt(uint8 *pBuf)
MT_UtilAddrMgrEntryLookupExt:
        CFI Block cfiBlock103 Using cfiCommon0
        CFI Function MT_UtilAddrMgrEntryLookupExt
        CODE
// 1116 {
        FUNCALL MT_UtilAddrMgrEntryLookupExt, osal_memcpy
        LOCFRAME ISTACK, 0, STACK
        LOCFRAME PSTACK, 0, STACK
        LOCFRAME XSTACK, 29, STACK
        LOCFRAME IOVERLAY, 0, STATIC
        LOCFRAME DOVERLAY, 0, STATIC
        ARGFRAME ISTACK, 0, STACK
        ARGFRAME PSTACK, 0, STACK
        ARGFRAME XSTACK, 29, STACK
        ARGFRAME IOVERLAY, 0, STATIC
        ARGFRAME DOVERLAY, 0, STATIC
        FUNCALL MT_UtilAddrMgrEntryLookupExt, AddrMgrEntryLookupExt
        LOCFRAME ISTACK, 0, STACK
        LOCFRAME PSTACK, 0, STACK
        LOCFRAME XSTACK, 26, STACK
        LOCFRAME IOVERLAY, 0, STATIC
        LOCFRAME DOVERLAY, 0, STATIC
        ARGFRAME ISTACK, 0, STACK
        ARGFRAME PSTACK, 0, STACK
        ARGFRAME XSTACK, 26, STACK
        ARGFRAME IOVERLAY, 0, STATIC
        ARGFRAME DOVERLAY, 0, STATIC
        FUNCALL MT_UtilAddrMgrEntryLookupExt, MT_BuildAndSendZToolResponse
        LOCFRAME ISTACK, 0, STACK
        LOCFRAME PSTACK, 0, STACK
        LOCFRAME XSTACK, 26, STACK
        LOCFRAME IOVERLAY, 0, STATIC
        LOCFRAME DOVERLAY, 0, STATIC
        ARGFRAME ISTACK, 0, STACK
        ARGFRAME PSTACK, 0, STACK
        ARGFRAME XSTACK, 26, STACK
        ARGFRAME IOVERLAY, 0, STATIC
        ARGFRAME DOVERLAY, 0, STATIC
        MOV     A,#-0xb
        LCALL   ?BANKED_ENTER_XDATA
        CFI DPH0 load(1, XDATA, add(CFA_XSP16, literal(-1)))
        CFI DPL0 load(1, XDATA, add(CFA_XSP16, literal(-2)))
        CFI ?BRET_EXT load(1, XDATA, add(CFA_XSP16, literal(-3)))
        CFI ?RET_HIGH load(1, XDATA, add(CFA_XSP16, literal(-4)))
        CFI ?RET_LOW load(1, XDATA, add(CFA_XSP16, literal(-5)))
        CFI R7 load(1, XDATA, add(CFA_XSP16, literal(-6)))
        CFI V2 load(1, XDATA, add(CFA_XSP16, literal(-7)))
        CFI V1 load(1, XDATA, add(CFA_XSP16, literal(-8)))
        CFI V0 load(1, XDATA, add(CFA_XSP16, literal(-9)))
        CFI VB load(1, XDATA, add(CFA_XSP16, literal(-10)))
        CFI R6 load(1, XDATA, add(CFA_XSP16, literal(-11)))
        CFI CFA_SP SP+0
        CFI CFA_XSP16 add(XSP16, 11)
        ; Saved register size: 11
        ; Auto size: 15
        MOV     A,#-0xf
        LCALL   ?ALLOC_XSTACK8
        CFI CFA_XSP16 add(XSP16, 26)
// 1117   uint8 nwkAddr[2];
// 1118   AddrMgrEntry_t entry;
// 1119   uint8 cmdId = pBuf[MT_RPC_POS_CMD1];
        LCALL   ?Subroutine14 & 0xFFFF
// 1120   pBuf += MT_RPC_FRAME_HDR_SZ;
// 1121 
// 1122   osal_memcpy(entry.extAddr, pBuf, Z_EXTADDR_LEN);
??CrossCallReturnLabel_18:
        MOV     ?V0 + 0,R1
        MOV     ?V0 + 1,R2
        MOV     ?V0 + 2,#0x0
        MOV     R0,#?V0 + 0
        LCALL   ?PUSH_XSTACK_I_THREE
        CFI CFA_XSP16 add(XSP16, 29)
        MOV     R4,#0x8
        MOV     R5,#0x0
        MOV     A,R4
        LCALL   ?XSTACK_DISP0_8
        MOV     R2,DPL
        MOV     R3,DPH
        LCALL   ??osal_memcpy?relay
        MOV     A,#0x3
        LCALL   ?DEALLOC_XSTACK8
        CFI CFA_XSP16 add(XSP16, 26)
// 1123   (void)AddrMgrEntryLookupExt(&entry);
        ; Setup parameters for call to function AddrMgrEntryLookupExt
        MOV     A,#0x2
        LCALL   ?XSTACK_DISP0_8
        MOV     R2,DPL
        MOV     R3,DPH
        LCALL   ??AddrMgrEntryLookupExt?relay
// 1124   
// 1125   nwkAddr[0] = LO_UINT16(entry.nwkAddr);
        MOV     A,#0x3
        LCALL   ?XSTACK_DISP0_8
        MOVX    A,@DPTR
        MOV     DPL,?XSP + 0
        MOV     DPH,?XSP + 1
        MOVX    @DPTR,A
// 1126   nwkAddr[1] = HI_UINT16(entry.nwkAddr);
        MOV     A,#0x3
        LCALL   ?XSTACK_DISP0_8
        INC     DPTR
        MOVX    A,@DPTR
        PUSH    A
        CFI CFA_SP SP+-1
        MOV     A,#0x1
        LCALL   ?XSTACK_DISP0_8
        POP     A
        CFI CFA_SP SP+0
        LCALL   ?Subroutine21 & 0xFFFF
// 1127   MT_BuildAndSendZToolResponse(((uint8)MT_RPC_CMD_SRSP | (uint8)MT_RPC_SYS_UTIL),
// 1128                                        cmdId, sizeof(uint16), nwkAddr);
??CrossCallReturnLabel_28:
        MOV     A,R6
        MOV     R2,A
        MOV     R1,#0x67
        LCALL   ??MT_BuildAndSendZToolResponse?relay
// 1129 }
        MOV     A,#0xf
        LCALL   ?DEALLOC_XSTACK8
        CFI CFA_XSP16 add(XSP16, 11)
        MOV     R7,#0x3
        LJMP    ?BANKED_LEAVE_XDATA
        CFI EndBlock cfiBlock103

        RSEG BANKED_CODE:CODE:NOROOT(0)
?Subroutine21:
        CFI Block cfiCond104 Using cfiCommon0
        CFI NoFunction
        CFI Conditional ??CrossCallReturnLabel_27
        CFI DPL0 Frame(CFA_SP, 4)
        CFI DPH0 Frame(CFA_SP, 5)
        CFI CFA_SP SP+-5
        CFI CFA_XSP16 add(XSP16, 2)
        CFI Block cfiCond105 Using cfiCommon0
        CFI (cfiCond105) NoFunction
        CFI (cfiCond105) Conditional ??CrossCallReturnLabel_27
        CFI (cfiCond105) DPL0 Frame(CFA_SP, 4)
        CFI (cfiCond105) DPH0 Frame(CFA_SP, 5)
        CFI (cfiCond105) CFA_SP SP+-5
        CFI (cfiCond105) CFA_XSP16 add(XSP16, 2)
        CFI Block cfiCond106 Using cfiCommon0
        CFI (cfiCond106) NoFunction
        CFI (cfiCond106) Conditional ??CrossCallReturnLabel_28
        CFI (cfiCond106) R6 load(1, XDATA, add(CFA_XSP16, literal(-11)))
        CFI (cfiCond106) VB load(1, XDATA, add(CFA_XSP16, literal(-10)))
        CFI (cfiCond106) V0 load(1, XDATA, add(CFA_XSP16, literal(-9)))
        CFI (cfiCond106) V1 load(1, XDATA, add(CFA_XSP16, literal(-8)))
        CFI (cfiCond106) V2 load(1, XDATA, add(CFA_XSP16, literal(-7)))
        CFI (cfiCond106) R7 load(1, XDATA, add(CFA_XSP16, literal(-6)))
        CFI (cfiCond106) ?RET_LOW load(1, XDATA, add(CFA_XSP16, literal(-5)))
        CFI (cfiCond106) ?RET_HIGH load(1, XDATA, add(CFA_XSP16, literal(-4)))
        CFI (cfiCond106) ?BRET_EXT load(1, XDATA, add(CFA_XSP16, literal(-3)))
        CFI (cfiCond106) DPL0 load(1, XDATA, add(CFA_XSP16, literal(-2)))
        CFI (cfiCond106) DPH0 load(1, XDATA, add(CFA_XSP16, literal(-1)))
        CFI (cfiCond106) CFA_SP SP+0
        CFI (cfiCond106) CFA_XSP16 add(XSP16, 26)
        CFI Block cfiPicker107 Using cfiCommon1
        CFI (cfiPicker107) NoFunction
        CFI (cfiPicker107) Picker
        LCALL   ?Subroutine32 & 0xFFFF
??CrossCallReturnLabel_47:
        MOV     R3,#0x2
        RET
        CFI EndBlock cfiCond104
        CFI EndBlock cfiCond105
        CFI EndBlock cfiCond106
        CFI EndBlock cfiPicker107

        RSEG BANKED_CODE:CODE:NOROOT(0)
?Subroutine32:
        CFI Block cfiCond108 Using cfiCommon0
        CFI NoFunction
        CFI Conditional ??CrossCallReturnLabel_46
        CFI R6 load(1, XDATA, add(CFA_XSP16, literal(-16)))
        CFI VB load(1, XDATA, add(CFA_XSP16, literal(-15)))
        CFI V0 load(1, XDATA, add(CFA_XSP16, literal(-14)))
        CFI V1 load(1, XDATA, add(CFA_XSP16, literal(-13)))
        CFI V2 load(1, XDATA, add(CFA_XSP16, literal(-12)))
        CFI V3 load(1, XDATA, add(CFA_XSP16, literal(-11)))
        CFI V4 load(1, XDATA, add(CFA_XSP16, literal(-10)))
        CFI V5 load(1, XDATA, add(CFA_XSP16, literal(-9)))
        CFI V6 load(1, XDATA, add(CFA_XSP16, literal(-8)))
        CFI V7 load(1, XDATA, add(CFA_XSP16, literal(-7)))
        CFI R7 load(1, XDATA, add(CFA_XSP16, literal(-6)))
        CFI ?RET_LOW load(1, XDATA, add(CFA_XSP16, literal(-5)))
        CFI ?RET_HIGH load(1, XDATA, add(CFA_XSP16, literal(-4)))
        CFI ?BRET_EXT load(1, XDATA, add(CFA_XSP16, literal(-3)))
        CFI DPL0 load(1, XDATA, add(CFA_XSP16, literal(-2)))
        CFI DPH0 load(1, XDATA, add(CFA_XSP16, literal(-1)))
        CFI CFA_SP SP+0
        CFI CFA_XSP16 add(XSP16, 20)
        CFI Block cfiCond109 Using cfiCommon0
        CFI (cfiCond109) NoFunction
        CFI (cfiCond109) Conditional ??CrossCallReturnLabel_47, ??CrossCallReturnLabel_27
        CFI (cfiCond109) DPL0 Frame(CFA_SP, 4)
        CFI (cfiCond109) DPH0 Frame(CFA_SP, 5)
        CFI (cfiCond109) CFA_SP SP+-5
        CFI (cfiCond109) CFA_XSP16 add(XSP16, 2)
        CFI Block cfiCond110 Using cfiCommon0
        CFI (cfiCond110) NoFunction
        CFI (cfiCond110) Conditional ??CrossCallReturnLabel_47, ??CrossCallReturnLabel_27
        CFI (cfiCond110) DPL0 Frame(CFA_SP, 4)
        CFI (cfiCond110) DPH0 Frame(CFA_SP, 5)
        CFI (cfiCond110) CFA_SP SP+-5
        CFI (cfiCond110) CFA_XSP16 add(XSP16, 2)
        CFI Block cfiCond111 Using cfiCommon0
        CFI (cfiCond111) NoFunction
        CFI (cfiCond111) Conditional ??CrossCallReturnLabel_47, ??CrossCallReturnLabel_28
        CFI (cfiCond111) R6 load(1, XDATA, add(CFA_XSP16, literal(-11)))
        CFI (cfiCond111) VB load(1, XDATA, add(CFA_XSP16, literal(-10)))
        CFI (cfiCond111) V0 load(1, XDATA, add(CFA_XSP16, literal(-9)))
        CFI (cfiCond111) V1 load(1, XDATA, add(CFA_XSP16, literal(-8)))
        CFI (cfiCond111) V2 load(1, XDATA, add(CFA_XSP16, literal(-7)))
        CFI (cfiCond111) R7 load(1, XDATA, add(CFA_XSP16, literal(-6)))
        CFI (cfiCond111) ?RET_LOW load(1, XDATA, add(CFA_XSP16, literal(-5)))
        CFI (cfiCond111) ?RET_HIGH load(1, XDATA, add(CFA_XSP16, literal(-4)))
        CFI (cfiCond111) ?BRET_EXT load(1, XDATA, add(CFA_XSP16, literal(-3)))
        CFI (cfiCond111) DPL0 load(1, XDATA, add(CFA_XSP16, literal(-2)))
        CFI (cfiCond111) DPH0 load(1, XDATA, add(CFA_XSP16, literal(-1)))
        CFI (cfiCond111) CFA_SP SP+0
        CFI (cfiCond111) CFA_XSP16 add(XSP16, 26)
        CFI Block cfiPicker112 Using cfiCommon1
        CFI (cfiPicker112) NoFunction
        CFI (cfiPicker112) Picker
        MOVX    @DPTR,A
        ; Setup parameters for call to function MT_BuildAndSendZToolResponse
        ; Setup parameters for call to function MT_BuildAndSendZToolResponse
        ; Setup parameters for call to function MT_BuildAndSendZToolResponse
        ; Setup parameters for call to function MT_BuildAndSendZToolResponse
        MOV     DPL,?XSP + 0
        MOV     DPH,?XSP + 1
        MOV     R4,DPL
        MOV     R5,DPH
        RET
        CFI EndBlock cfiCond108
        CFI EndBlock cfiCond109
        CFI EndBlock cfiCond110
        CFI EndBlock cfiCond111
        CFI EndBlock cfiPicker112

        RSEG BANKED_CODE:CODE:NOROOT(0)
?Subroutine14:
        CFI Block cfiCond113 Using cfiCommon0
        CFI NoFunction
        CFI Conditional ??CrossCallReturnLabel_17
        CFI R6 load(1, XDATA, add(CFA_XSP16, literal(-15)))
        CFI VB load(1, XDATA, add(CFA_XSP16, literal(-14)))
        CFI V0 load(1, XDATA, add(CFA_XSP16, literal(-13)))
        CFI V1 load(1, XDATA, add(CFA_XSP16, literal(-12)))
        CFI V2 load(1, XDATA, add(CFA_XSP16, literal(-11)))
        CFI V3 load(1, XDATA, add(CFA_XSP16, literal(-10)))
        CFI V4 load(1, XDATA, add(CFA_XSP16, literal(-9)))
        CFI V5 load(1, XDATA, add(CFA_XSP16, literal(-8)))
        CFI V6 load(1, XDATA, add(CFA_XSP16, literal(-7)))
        CFI R7 load(1, XDATA, add(CFA_XSP16, literal(-6)))
        CFI ?RET_LOW load(1, XDATA, add(CFA_XSP16, literal(-5)))
        CFI ?RET_HIGH load(1, XDATA, add(CFA_XSP16, literal(-4)))
        CFI ?BRET_EXT load(1, XDATA, add(CFA_XSP16, literal(-3)))
        CFI DPL0 load(1, XDATA, add(CFA_XSP16, literal(-2)))
        CFI DPH0 load(1, XDATA, add(CFA_XSP16, literal(-1)))
        CFI CFA_SP SP+0
        CFI CFA_XSP16 add(XSP16, 37)
        CFI Block cfiCond114 Using cfiCommon0
        CFI (cfiCond114) NoFunction
        CFI (cfiCond114) Conditional ??CrossCallReturnLabel_18
        CFI (cfiCond114) R6 load(1, XDATA, add(CFA_XSP16, literal(-11)))
        CFI (cfiCond114) VB load(1, XDATA, add(CFA_XSP16, literal(-10)))
        CFI (cfiCond114) V0 load(1, XDATA, add(CFA_XSP16, literal(-9)))
        CFI (cfiCond114) V1 load(1, XDATA, add(CFA_XSP16, literal(-8)))
        CFI (cfiCond114) V2 load(1, XDATA, add(CFA_XSP16, literal(-7)))
        CFI (cfiCond114) R7 load(1, XDATA, add(CFA_XSP16, literal(-6)))
        CFI (cfiCond114) ?RET_LOW load(1, XDATA, add(CFA_XSP16, literal(-5)))
        CFI (cfiCond114) ?RET_HIGH load(1, XDATA, add(CFA_XSP16, literal(-4)))
        CFI (cfiCond114) ?BRET_EXT load(1, XDATA, add(CFA_XSP16, literal(-3)))
        CFI (cfiCond114) DPL0 load(1, XDATA, add(CFA_XSP16, literal(-2)))
        CFI (cfiCond114) DPH0 load(1, XDATA, add(CFA_XSP16, literal(-1)))
        CFI (cfiCond114) CFA_SP SP+0
        CFI (cfiCond114) CFA_XSP16 add(XSP16, 26)
        CFI Block cfiPicker115 Using cfiCommon1
        CFI (cfiPicker115) NoFunction
        CFI (cfiPicker115) Picker
        LCALL   ?Subroutine31 & 0xFFFF
??CrossCallReturnLabel_44:
        MOV     R1,DPL
        MOV     R2,DPH
        RET
        CFI EndBlock cfiCond113
        CFI EndBlock cfiCond114
        CFI EndBlock cfiPicker115
// 1130 
// 1131 /***************************************************************************************************
// 1132  * @fn      MT_UtilAddrMgrEntryLookupNwk
// 1133  *
// 1134  * @brief   Proxy the AddrMgrEntryLookupNwk() function.
// 1135  *
// 1136  * @param   pBuf - pointer to the received buffer
// 1137  *
// 1138  * @return  void
// 1139  ***************************************************************************************************/
// 1140 static void MT_UtilAddrMgrEntryLookupNwk(uint8 *pBuf)
// 1141 {
// 1142   AddrMgrEntry_t entry;
// 1143   uint8 cmdId = pBuf[MT_RPC_POS_CMD1];
// 1144   pBuf += MT_RPC_FRAME_HDR_SZ;
// 1145 
// 1146   entry.nwkAddr = BUILD_UINT16(pBuf[0], pBuf[1]);
// 1147   (void)AddrMgrEntryLookupNwk(&entry);
// 1148 
// 1149   MT_BuildAndSendZToolResponse(((uint8)MT_RPC_CMD_SRSP | (uint8)MT_RPC_SYS_UTIL),
// 1150                                        cmdId, Z_EXTADDR_LEN, entry.extAddr);
// 1151 }
// 1152 
// 1153 #if defined MT_SYS_KEY_MANAGEMENT
// 1154 /***************************************************************************************************
// 1155  * @fn      MT_UtilAPSME_LinkKeyDataGet
// 1156  *
// 1157  * @brief   Retrieves APS Link Key data from NV.
// 1158  *
// 1159  * @param   pBuf - pointer to the received buffer
// 1160  *
// 1161  * @return  void
// 1162  ***************************************************************************************************/
// 1163 static void MT_UtilAPSME_LinkKeyDataGet(uint8 *pBuf)
// 1164 {
// 1165   uint8 rsp[MT_APSME_LINKKEY_GET_RSP_LEN];
// 1166   APSME_LinkKeyData_t *pData = NULL;
// 1167   uint8 cmdId = pBuf[MT_RPC_POS_CMD1];
// 1168   uint16 apsLinkKeyNvId;
// 1169   uint32 *apsRxFrmCntr;
// 1170   uint32 *apsTxFrmCntr;
// 1171 
// 1172   pBuf += MT_RPC_FRAME_HDR_SZ;
// 1173 
// 1174   *rsp = APSME_LinkKeyNVIdGet(pBuf, &apsLinkKeyNvId);
// 1175 
// 1176   if (SUCCESS == *rsp)
// 1177   {
// 1178     pData = (APSME_LinkKeyData_t *)osal_mem_alloc(sizeof(APSME_LinkKeyData_t));
// 1179 
// 1180     if (pData != NULL)
// 1181     {
// 1182       // retrieve key from NV
// 1183       if ( osal_nv_read( apsLinkKeyNvId, 0,
// 1184                         sizeof(APSME_LinkKeyData_t), pData) == SUCCESS)
// 1185 
// 1186       {
// 1187         apsRxFrmCntr = &ApsLinkKeyFrmCntr[apsLinkKeyNvId - ZCD_NV_APS_LINK_KEY_DATA_START].rxFrmCntr;
// 1188         apsTxFrmCntr = &ApsLinkKeyFrmCntr[apsLinkKeyNvId - ZCD_NV_APS_LINK_KEY_DATA_START].txFrmCntr;
// 1189 
// 1190         uint8 *ptr = rsp+1;
// 1191         (void)osal_memcpy(ptr, pData->key, SEC_KEY_LEN);
// 1192         ptr += SEC_KEY_LEN;
// 1193         *ptr++ = BREAK_UINT32(*apsTxFrmCntr, 0);
// 1194         *ptr++ = BREAK_UINT32(*apsTxFrmCntr, 1);
// 1195         *ptr++ = BREAK_UINT32(*apsTxFrmCntr, 2);
// 1196         *ptr++ = BREAK_UINT32(*apsTxFrmCntr, 3);
// 1197         *ptr++ = BREAK_UINT32(*apsRxFrmCntr, 0);
// 1198         *ptr++ = BREAK_UINT32(*apsRxFrmCntr, 1);
// 1199         *ptr++ = BREAK_UINT32(*apsRxFrmCntr, 2);
// 1200         *ptr++ = BREAK_UINT32(*apsRxFrmCntr, 3);
// 1201       }
// 1202 
// 1203       // clear copy of key in RAM
// 1204       osal_memset( pData, 0x00, sizeof(APSME_LinkKeyData_t) );
// 1205 
// 1206       osal_mem_free(pData);
// 1207     }
// 1208   }
// 1209   else
// 1210   {
// 1211     // set data key and counters 0xFF
// 1212     osal_memset(&rsp[1], 0xFF, SEC_KEY_LEN + (MT_UTIL_FRM_CTR_LEN * 2));
// 1213   }
// 1214 
// 1215   MT_BuildAndSendZToolResponse(((uint8)MT_RPC_CMD_SRSP | (uint8)MT_RPC_SYS_UTIL), cmdId,
// 1216                                        MT_APSME_LINKKEY_GET_RSP_LEN, rsp);
// 1217 
// 1218   // clear key data
// 1219   osal_memset(rsp, 0x00, MT_APSME_LINKKEY_GET_RSP_LEN);
// 1220 
// 1221 }
// 1222 
// 1223 /***************************************************************************************************
// 1224  * @fn      MT_UtilAPSME_LinkKeyNvIdGet
// 1225  *
// 1226  * @brief   Retrieves APS Link Key NV ID from the entry table.
// 1227  *
// 1228  * @param   pBuf - pointer to the received buffer
// 1229  *
// 1230  * @return  void
// 1231  ***************************************************************************************************/
// 1232 static void MT_UtilAPSME_LinkKeyNvIdGet(uint8 *pBuf)
// 1233 {
// 1234   uint8 rsp[MT_APSME_LINKKEY_NV_ID_GET_RSP_LEN];
// 1235   uint8 cmdId = pBuf[MT_RPC_POS_CMD1];
// 1236   uint16 apsLinkKeyNvId;
// 1237 
// 1238   pBuf += MT_RPC_FRAME_HDR_SZ;
// 1239 
// 1240   *rsp = APSME_LinkKeyNVIdGet(pBuf, &apsLinkKeyNvId);
// 1241 
// 1242   if (SUCCESS == *rsp)
// 1243   {
// 1244     rsp[1] = LO_UINT16(apsLinkKeyNvId);
// 1245     rsp[2] = HI_UINT16(apsLinkKeyNvId);
// 1246   }
// 1247   else
// 1248   {
// 1249     // send failure response with invalid NV ID
// 1250     osal_memset(&rsp[1], 0xFF, 2);
// 1251   }
// 1252 
// 1253   MT_BuildAndSendZToolResponse(((uint8)MT_RPC_CMD_SRSP | (uint8)MT_RPC_SYS_UTIL), cmdId,
// 1254                                        MT_APSME_LINKKEY_NV_ID_GET_RSP_LEN, rsp);
// 1255 }
// 1256 #endif // MT_SYS_KEY_MANAGEMENT
// 1257 
// 1258 /***************************************************************************************************
// 1259  * @fn      MT_UtilAPSME_RequestKeyCmd
// 1260  *
// 1261  * @brief   Send RequestKey command message to TC for a specific partner Address.
// 1262  *
// 1263  * @param   pBuf  - pointer to the received buffer
// 1264  *
// 1265  * @return  void
// 1266  ***************************************************************************************************/
// 1267 void MT_UtilAPSME_RequestKeyCmd(uint8 *pBuf)
// 1268 {
// 1269   uint8 cmdId;
// 1270   uint8 partnerAddr[Z_EXTADDR_LEN];
// 1271   uint8 retValue;
// 1272 
// 1273   // parse header
// 1274   cmdId = pBuf[MT_RPC_POS_CMD1];
// 1275   pBuf += MT_RPC_FRAME_HDR_SZ;
// 1276 
// 1277   /* PartnerAddress */
// 1278   osal_memcpy(partnerAddr, pBuf, Z_EXTADDR_LEN);
// 1279 
// 1280   retValue = (uint8)ZDSecMgrRequestAppKey(partnerAddr);
// 1281 
// 1282   MT_BuildAndSendZToolResponse(((uint8)MT_RPC_CMD_SRSP | (uint8)MT_RPC_SYS_UTIL), cmdId, 1, &retValue);
// 1283 }
// 1284 
// 1285 /***************************************************************************************************
// 1286  * @fn      MT_UtilAssocCount
// 1287  *
// 1288  * @brief   Proxy the AssocCount() function.
// 1289  *
// 1290  * @param   pBuf - pointer to the received buffer
// 1291  *
// 1292  * @return  void
// 1293  ***************************************************************************************************/
// 1294 static void MT_UtilAssocCount(uint8 *pBuf)
// 1295 {
// 1296   uint16 cnt;
// 1297   uint8 cmdId = pBuf[MT_RPC_POS_CMD1];
// 1298   pBuf += MT_RPC_FRAME_HDR_SZ;
// 1299 
// 1300   cnt = AssocCount(pBuf[0], pBuf[1]);
// 1301   pBuf[0] = LO_UINT16(cnt);
// 1302   pBuf[1] = HI_UINT16(cnt);
// 1303 
// 1304   MT_BuildAndSendZToolResponse(((uint8)MT_RPC_CMD_SRSP | (uint8)MT_RPC_SYS_UTIL), cmdId, 2, pBuf);
// 1305 }
// 1306 
// 1307 /***************************************************************************************************
// 1308  * @fn      MT_UtilAssocFindDevice
// 1309  *
// 1310  * @brief   Get an associated device by index.
// 1311  *
// 1312  * @param   pBuf - pointer to the received buffer
// 1313  *
// 1314  * @return  void
// 1315  ***************************************************************************************************/

        RSEG BANKED_CODE:CODE:NOROOT(0)
// 1316 static void MT_UtilAssocFindDevice(uint8 *pBuf)
MT_UtilAssocFindDevice:
        CFI Block cfiBlock116 Using cfiCommon0
        CFI Function MT_UtilAssocFindDevice
        CODE
// 1317 {
        FUNCALL MT_UtilAssocFindDevice, AssocFindDevice
        LOCFRAME ISTACK, 0, STACK
        LOCFRAME PSTACK, 0, STACK
        LOCFRAME XSTACK, 27, STACK
        LOCFRAME IOVERLAY, 0, STATIC
        LOCFRAME DOVERLAY, 0, STATIC
        ARGFRAME ISTACK, 0, STACK
        ARGFRAME PSTACK, 0, STACK
        ARGFRAME XSTACK, 27, STACK
        ARGFRAME IOVERLAY, 0, STATIC
        ARGFRAME DOVERLAY, 0, STATIC
        FUNCALL MT_UtilAssocFindDevice, packDev_t
        LOCFRAME ISTACK, 0, STACK
        LOCFRAME PSTACK, 0, STACK
        LOCFRAME XSTACK, 27, STACK
        LOCFRAME IOVERLAY, 0, STATIC
        LOCFRAME DOVERLAY, 0, STATIC
        ARGFRAME ISTACK, 0, STACK
        ARGFRAME PSTACK, 0, STACK
        ARGFRAME XSTACK, 27, STACK
        ARGFRAME IOVERLAY, 0, STATIC
        ARGFRAME DOVERLAY, 0, STATIC
        FUNCALL MT_UtilAssocFindDevice, MT_BuildAndSendZToolResponse
        LOCFRAME ISTACK, 0, STACK
        LOCFRAME PSTACK, 0, STACK
        LOCFRAME XSTACK, 27, STACK
        LOCFRAME IOVERLAY, 0, STATIC
        LOCFRAME DOVERLAY, 0, STATIC
        ARGFRAME ISTACK, 0, STACK
        ARGFRAME PSTACK, 0, STACK
        ARGFRAME XSTACK, 27, STACK
        ARGFRAME IOVERLAY, 0, STATIC
        ARGFRAME DOVERLAY, 0, STATIC
        MOV     A,#-0x9
        LCALL   ?BANKED_ENTER_XDATA
        CFI DPH0 load(1, XDATA, add(CFA_XSP16, literal(-1)))
        CFI DPL0 load(1, XDATA, add(CFA_XSP16, literal(-2)))
        CFI ?BRET_EXT load(1, XDATA, add(CFA_XSP16, literal(-3)))
        CFI ?RET_HIGH load(1, XDATA, add(CFA_XSP16, literal(-4)))
        CFI ?RET_LOW load(1, XDATA, add(CFA_XSP16, literal(-5)))
        CFI R7 load(1, XDATA, add(CFA_XSP16, literal(-6)))
        CFI V0 load(1, XDATA, add(CFA_XSP16, literal(-7)))
        CFI VB load(1, XDATA, add(CFA_XSP16, literal(-8)))
        CFI R6 load(1, XDATA, add(CFA_XSP16, literal(-9)))
        CFI CFA_SP SP+0
        CFI CFA_XSP16 add(XSP16, 9)
        ; Saved register size: 9
        ; Auto size: 18
        MOV     A,#-0x12
        LCALL   ?ALLOC_XSTACK8
        CFI CFA_XSP16 add(XSP16, 27)
// 1318   uint8 cmdId = pBuf[MT_RPC_POS_CMD1];
        LCALL   ?Subroutine31 & 0xFFFF
// 1319   uint8 buf[sizeof(associated_devices_t)];
// 1320 
// 1321   packDev_t(buf, AssocFindDevice(pBuf[MT_RPC_FRAME_HDR_SZ]));
??CrossCallReturnLabel_45:
        MOVX    A,@DPTR
        MOV     R1,A
        LCALL   ??AssocFindDevice?relay
        LCALL   ?Subroutine26 & 0xFFFF
// 1322   MT_BuildAndSendZToolResponse(((uint8)MT_RPC_CMD_SRSP | (uint8)MT_RPC_SYS_UTIL), cmdId,
// 1323                                        sizeof(associated_devices_t), buf);
??CrossCallReturnLabel_36:
        MOV     A,R6
        MOV     R2,A
        CFI EndBlock cfiBlock116
        REQUIRE ?Subroutine5
        ; // Fall through to label ?Subroutine5
// 1324 }

        RSEG BANKED_CODE:CODE:NOROOT(0)
?Subroutine5:
        CFI Block cfiBlock117 Using cfiCommon0
        CFI NoFunction
        CFI CFA_SP SP+0
        CFI CFA_XSP16 add(XSP16, 27)
        CFI VB load(1, XDATA, add(CFA_XSP16, literal(-8)))
        CFI DPL0 load(1, XDATA, add(CFA_XSP16, literal(-2)))
        CFI DPH0 load(1, XDATA, add(CFA_XSP16, literal(-1)))
        CFI R6 load(1, XDATA, add(CFA_XSP16, literal(-9)))
        CFI R7 load(1, XDATA, add(CFA_XSP16, literal(-6)))
        CFI V0 load(1, XDATA, add(CFA_XSP16, literal(-7)))
        CFI ?BRET_EXT load(1, XDATA, add(CFA_XSP16, literal(-3)))
        CFI ?RET_HIGH load(1, XDATA, add(CFA_XSP16, literal(-4)))
        CFI ?RET_LOW load(1, XDATA, add(CFA_XSP16, literal(-5)))
        MOV     R1,#0x67
        LCALL   ??MT_BuildAndSendZToolResponse?relay
        MOV     A,#0x12
        LJMP    ??Subroutine41_0 & 0xFFFF
        CFI EndBlock cfiBlock117

        RSEG BANKED_CODE:CODE:NOROOT(0)
?Subroutine31:
        CFI Block cfiCond118 Using cfiCommon0
        CFI NoFunction
        CFI Conditional ??CrossCallReturnLabel_44, ??CrossCallReturnLabel_17
        CFI R6 load(1, XDATA, add(CFA_XSP16, literal(-15)))
        CFI VB load(1, XDATA, add(CFA_XSP16, literal(-14)))
        CFI V0 load(1, XDATA, add(CFA_XSP16, literal(-13)))
        CFI V1 load(1, XDATA, add(CFA_XSP16, literal(-12)))
        CFI V2 load(1, XDATA, add(CFA_XSP16, literal(-11)))
        CFI V3 load(1, XDATA, add(CFA_XSP16, literal(-10)))
        CFI V4 load(1, XDATA, add(CFA_XSP16, literal(-9)))
        CFI V5 load(1, XDATA, add(CFA_XSP16, literal(-8)))
        CFI V6 load(1, XDATA, add(CFA_XSP16, literal(-7)))
        CFI R7 load(1, XDATA, add(CFA_XSP16, literal(-6)))
        CFI ?RET_LOW load(1, XDATA, add(CFA_XSP16, literal(-5)))
        CFI ?RET_HIGH load(1, XDATA, add(CFA_XSP16, literal(-4)))
        CFI ?BRET_EXT load(1, XDATA, add(CFA_XSP16, literal(-3)))
        CFI DPL0 load(1, XDATA, add(CFA_XSP16, literal(-2)))
        CFI DPH0 load(1, XDATA, add(CFA_XSP16, literal(-1)))
        CFI CFA_SP SP+0
        CFI CFA_XSP16 add(XSP16, 37)
        CFI Block cfiCond119 Using cfiCommon0
        CFI (cfiCond119) NoFunction
        CFI (cfiCond119) Conditional ??CrossCallReturnLabel_44, ??CrossCallReturnLabel_18
        CFI (cfiCond119) R6 load(1, XDATA, add(CFA_XSP16, literal(-11)))
        CFI (cfiCond119) VB load(1, XDATA, add(CFA_XSP16, literal(-10)))
        CFI (cfiCond119) V0 load(1, XDATA, add(CFA_XSP16, literal(-9)))
        CFI (cfiCond119) V1 load(1, XDATA, add(CFA_XSP16, literal(-8)))
        CFI (cfiCond119) V2 load(1, XDATA, add(CFA_XSP16, literal(-7)))
        CFI (cfiCond119) R7 load(1, XDATA, add(CFA_XSP16, literal(-6)))
        CFI (cfiCond119) ?RET_LOW load(1, XDATA, add(CFA_XSP16, literal(-5)))
        CFI (cfiCond119) ?RET_HIGH load(1, XDATA, add(CFA_XSP16, literal(-4)))
        CFI (cfiCond119) ?BRET_EXT load(1, XDATA, add(CFA_XSP16, literal(-3)))
        CFI (cfiCond119) DPL0 load(1, XDATA, add(CFA_XSP16, literal(-2)))
        CFI (cfiCond119) DPH0 load(1, XDATA, add(CFA_XSP16, literal(-1)))
        CFI (cfiCond119) CFA_SP SP+0
        CFI (cfiCond119) CFA_XSP16 add(XSP16, 26)
        CFI Block cfiCond120 Using cfiCommon0
        CFI (cfiCond120) NoFunction
        CFI (cfiCond120) Conditional ??CrossCallReturnLabel_45
        CFI (cfiCond120) R6 load(1, XDATA, add(CFA_XSP16, literal(-9)))
        CFI (cfiCond120) VB load(1, XDATA, add(CFA_XSP16, literal(-8)))
        CFI (cfiCond120) V0 load(1, XDATA, add(CFA_XSP16, literal(-7)))
        CFI (cfiCond120) R7 load(1, XDATA, add(CFA_XSP16, literal(-6)))
        CFI (cfiCond120) ?RET_LOW load(1, XDATA, add(CFA_XSP16, literal(-5)))
        CFI (cfiCond120) ?RET_HIGH load(1, XDATA, add(CFA_XSP16, literal(-4)))
        CFI (cfiCond120) ?BRET_EXT load(1, XDATA, add(CFA_XSP16, literal(-3)))
        CFI (cfiCond120) DPL0 load(1, XDATA, add(CFA_XSP16, literal(-2)))
        CFI (cfiCond120) DPH0 load(1, XDATA, add(CFA_XSP16, literal(-1)))
        CFI (cfiCond120) CFA_SP SP+0
        CFI (cfiCond120) CFA_XSP16 add(XSP16, 27)
        CFI Block cfiPicker121 Using cfiCommon1
        CFI (cfiPicker121) NoFunction
        CFI (cfiPicker121) Picker
        MOV     DPL,R2
        MOV     DPH,R3
        INC     DPTR
        INC     DPTR
        MOVX    A,@DPTR
        MOV     R6,A
        ; Setup parameters for call to function osal_memcpy
        ; Setup parameters for call to function osal_memcpy
        ; Setup parameters for call to function packDev_t
        ; Setup parameters for call to function AssocFindDevice
        MOV     DPL,R2
        MOV     DPH,R3
        INC     DPTR
        INC     DPTR
        INC     DPTR
        RET
        CFI EndBlock cfiCond118
        CFI EndBlock cfiCond119
        CFI EndBlock cfiCond120
        CFI EndBlock cfiPicker121
// 1325 
// 1326 /***************************************************************************************************
// 1327  * @fn      MT_UtilAssocGetWithAddress
// 1328  *
// 1329  * @brief   Get an associated device by address.
// 1330  *
// 1331  * @param   pBuf - pointer to the received buffer
// 1332  *
// 1333  * @return  void
// 1334  ***************************************************************************************************/

        RSEG BANKED_CODE:CODE:NOROOT(0)
// 1335 static void MT_UtilAssocGetWithAddress(uint8 *pBuf)
MT_UtilAssocGetWithAddress:
        CFI Block cfiBlock122 Using cfiCommon0
        CFI Function MT_UtilAssocGetWithAddress
        CODE
// 1336 {
        FUNCALL MT_UtilAssocGetWithAddress, AddrMgrExtAddrValid
        LOCFRAME ISTACK, 0, STACK
        LOCFRAME PSTACK, 0, STACK
        LOCFRAME XSTACK, 27, STACK
        LOCFRAME IOVERLAY, 0, STATIC
        LOCFRAME DOVERLAY, 0, STATIC
        ARGFRAME ISTACK, 0, STACK
        ARGFRAME PSTACK, 0, STACK
        ARGFRAME XSTACK, 27, STACK
        ARGFRAME IOVERLAY, 0, STATIC
        ARGFRAME DOVERLAY, 0, STATIC
        FUNCALL MT_UtilAssocGetWithAddress, AssocGetWithAddress
        LOCFRAME ISTACK, 0, STACK
        LOCFRAME PSTACK, 0, STACK
        LOCFRAME XSTACK, 27, STACK
        LOCFRAME IOVERLAY, 0, STATIC
        LOCFRAME DOVERLAY, 0, STATIC
        ARGFRAME ISTACK, 0, STACK
        ARGFRAME PSTACK, 0, STACK
        ARGFRAME XSTACK, 27, STACK
        ARGFRAME IOVERLAY, 0, STATIC
        ARGFRAME DOVERLAY, 0, STATIC
        FUNCALL MT_UtilAssocGetWithAddress, packDev_t
        LOCFRAME ISTACK, 0, STACK
        LOCFRAME PSTACK, 0, STACK
        LOCFRAME XSTACK, 27, STACK
        LOCFRAME IOVERLAY, 0, STATIC
        LOCFRAME DOVERLAY, 0, STATIC
        ARGFRAME ISTACK, 0, STACK
        ARGFRAME PSTACK, 0, STACK
        ARGFRAME XSTACK, 27, STACK
        ARGFRAME IOVERLAY, 0, STATIC
        ARGFRAME DOVERLAY, 0, STATIC
        FUNCALL MT_UtilAssocGetWithAddress, MT_BuildAndSendZToolResponse
        LOCFRAME ISTACK, 0, STACK
        LOCFRAME PSTACK, 0, STACK
        LOCFRAME XSTACK, 27, STACK
        LOCFRAME IOVERLAY, 0, STATIC
        LOCFRAME DOVERLAY, 0, STATIC
        ARGFRAME ISTACK, 0, STACK
        ARGFRAME PSTACK, 0, STACK
        ARGFRAME XSTACK, 27, STACK
        ARGFRAME IOVERLAY, 0, STATIC
        ARGFRAME DOVERLAY, 0, STATIC
        MOV     A,#-0x9
        LCALL   ?BANKED_ENTER_XDATA
        CFI DPH0 load(1, XDATA, add(CFA_XSP16, literal(-1)))
        CFI DPL0 load(1, XDATA, add(CFA_XSP16, literal(-2)))
        CFI ?BRET_EXT load(1, XDATA, add(CFA_XSP16, literal(-3)))
        CFI ?RET_HIGH load(1, XDATA, add(CFA_XSP16, literal(-4)))
        CFI ?RET_LOW load(1, XDATA, add(CFA_XSP16, literal(-5)))
        CFI R7 load(1, XDATA, add(CFA_XSP16, literal(-6)))
        CFI V0 load(1, XDATA, add(CFA_XSP16, literal(-7)))
        CFI VB load(1, XDATA, add(CFA_XSP16, literal(-8)))
        CFI R6 load(1, XDATA, add(CFA_XSP16, literal(-9)))
        CFI CFA_SP SP+0
        CFI CFA_XSP16 add(XSP16, 9)
        ; Saved register size: 9
        ; Auto size: 18
        MOV     A,#-0x12
        LCALL   ?ALLOC_XSTACK8
        CFI CFA_XSP16 add(XSP16, 27)
        MOV     A,R2
        MOV     R6,A
        MOV     A,R3
        MOV     R7,A
// 1337   extern associated_devices_t *AssocGetWithAddress(uint8 *extAddr, uint16 shortAddr);
// 1338   uint8 cmdId = pBuf[MT_RPC_POS_CMD1];
        LCALL   ?Subroutine16 & 0xFFFF
// 1339   uint8 buf[sizeof(associated_devices_t)];
// 1340 
// 1341   pBuf += MT_RPC_FRAME_HDR_SZ;
// 1342   packDev_t(buf, AssocGetWithAddress(((AddrMgrExtAddrValid(pBuf)) ? pBuf : NULL),
// 1343                                   BUILD_UINT16(pBuf[Z_EXTADDR_LEN], pBuf[Z_EXTADDR_LEN+1])));
??CrossCallReturnLabel_22:
        ; Setup parameters for call to function AddrMgrExtAddrValid
        INC     R2
        INC     R2
        INC     R2
        MOV     R3,A
        LCALL   ??AddrMgrExtAddrValid?relay
        MOV     A,R1
        JZ      ??MT_UtilAssocGetWithAddress_0
        MOV     A,R6
        MOV     R2,A
        MOV     A,R7
        MOV     R3,A
        SJMP    ??MT_UtilAssocGetWithAddress_1
??MT_UtilAssocGetWithAddress_0:
        MOV     R2,#0x0
        MOV     R3,#0x0
??MT_UtilAssocGetWithAddress_1:
        ; Setup parameters for call to function packDev_t
        ; Setup parameters for call to function AssocGetWithAddress
        MOV     DPL,R6
        MOV     DPH,R7
        INC     DPTR
        INC     DPTR
        INC     DPTR
        INC     DPTR
        INC     DPTR
        INC     DPTR
        INC     DPTR
        INC     DPTR
        MOVX    A,@DPTR
        MOV     R4,A
        MOV     DPL,R6
        MOV     DPH,R7
        INC     DPTR
        INC     DPTR
        INC     DPTR
        INC     DPTR
        INC     DPTR
        INC     DPTR
        INC     DPTR
        INC     DPTR
        INC     DPTR
        MOVX    A,@DPTR
        MOV     R1,A
        MOV     A,R4
        ADD     A,#0x0
        CLR     A
        ADDC    A,R1
        MOV     R5,A
        LCALL   ??AssocGetWithAddress?relay
        LCALL   ?Subroutine26 & 0xFFFF
// 1344 
// 1345   MT_BuildAndSendZToolResponse(((uint8)MT_RPC_CMD_SRSP | (uint8)MT_RPC_SYS_UTIL), cmdId,
// 1346                                        sizeof(associated_devices_t), buf);
??CrossCallReturnLabel_37:
        MOV     R2,?V0 + 0
        SJMP    ?Subroutine5
        CFI EndBlock cfiBlock122
// 1347 }

        RSEG BANKED_CODE:CODE:NOROOT(0)
?Subroutine26:
        CFI Block cfiCond123 Using cfiCommon0
        CFI NoFunction
        CFI Conditional ??CrossCallReturnLabel_36
        CFI R6 load(1, XDATA, add(CFA_XSP16, literal(-9)))
        CFI VB load(1, XDATA, add(CFA_XSP16, literal(-8)))
        CFI V0 load(1, XDATA, add(CFA_XSP16, literal(-7)))
        CFI R7 load(1, XDATA, add(CFA_XSP16, literal(-6)))
        CFI ?RET_LOW load(1, XDATA, add(CFA_XSP16, literal(-5)))
        CFI ?RET_HIGH load(1, XDATA, add(CFA_XSP16, literal(-4)))
        CFI ?BRET_EXT load(1, XDATA, add(CFA_XSP16, literal(-3)))
        CFI DPL0 load(1, XDATA, add(CFA_XSP16, literal(-2)))
        CFI DPH0 load(1, XDATA, add(CFA_XSP16, literal(-1)))
        CFI CFA_SP SP+0
        CFI CFA_XSP16 add(XSP16, 27)
        CFI Block cfiCond124 Using cfiCommon0
        CFI (cfiCond124) NoFunction
        CFI (cfiCond124) Conditional ??CrossCallReturnLabel_37
        CFI (cfiCond124) R6 load(1, XDATA, add(CFA_XSP16, literal(-9)))
        CFI (cfiCond124) VB load(1, XDATA, add(CFA_XSP16, literal(-8)))
        CFI (cfiCond124) V0 load(1, XDATA, add(CFA_XSP16, literal(-7)))
        CFI (cfiCond124) R7 load(1, XDATA, add(CFA_XSP16, literal(-6)))
        CFI (cfiCond124) ?RET_LOW load(1, XDATA, add(CFA_XSP16, literal(-5)))
        CFI (cfiCond124) ?RET_HIGH load(1, XDATA, add(CFA_XSP16, literal(-4)))
        CFI (cfiCond124) ?BRET_EXT load(1, XDATA, add(CFA_XSP16, literal(-3)))
        CFI (cfiCond124) DPL0 load(1, XDATA, add(CFA_XSP16, literal(-2)))
        CFI (cfiCond124) DPH0 load(1, XDATA, add(CFA_XSP16, literal(-1)))
        CFI (cfiCond124) CFA_SP SP+0
        CFI (cfiCond124) CFA_XSP16 add(XSP16, 27)
        CFI Block cfiPicker125 Using cfiCommon1
        CFI (cfiPicker125) NoFunction
        CFI (cfiPicker125) Picker
        MOV     A,R2
        MOV     R4,A
        MOV     A,R3
        MOV     R5,A
        MOV     DPL,?XSP + 0
        MOV     DPH,?XSP + 1
        MOV     R2,DPL
        MOV     R3,DPH
        LCALL   ??packDev_t?relay
        ; Setup parameters for call to function MT_BuildAndSendZToolResponse
        ; Setup parameters for call to function MT_BuildAndSendZToolResponse
        MOV     DPL,?XSP + 0
        MOV     DPH,?XSP + 1
        MOV     R4,DPL
        MOV     R5,DPH
        MOV     R3,#0x12
        RET
        CFI EndBlock cfiCond123
        CFI EndBlock cfiCond124
        CFI EndBlock cfiPicker125

        RSEG BANKED_CODE:CODE:NOROOT(0)
?Subroutine16:
        CFI Block cfiCond126 Using cfiCommon0
        CFI NoFunction
        CFI Conditional ??CrossCallReturnLabel_21
        CFI R6 load(1, XDATA, add(CFA_XSP16, literal(-20)))
        CFI VB load(1, XDATA, add(CFA_XSP16, literal(-19)))
        CFI V0 load(1, XDATA, add(CFA_XSP16, literal(-18)))
        CFI V1 load(1, XDATA, add(CFA_XSP16, literal(-17)))
        CFI V2 load(1, XDATA, add(CFA_XSP16, literal(-16)))
        CFI V3 load(1, XDATA, add(CFA_XSP16, literal(-15)))
        CFI V4 load(1, XDATA, add(CFA_XSP16, literal(-14)))
        CFI V5 load(1, XDATA, add(CFA_XSP16, literal(-13)))
        CFI V6 load(1, XDATA, add(CFA_XSP16, literal(-12)))
        CFI V7 load(1, XDATA, add(CFA_XSP16, literal(-11)))
        CFI V8 load(1, XDATA, add(CFA_XSP16, literal(-10)))
        CFI V9 load(1, XDATA, add(CFA_XSP16, literal(-9)))
        CFI V10 load(1, XDATA, add(CFA_XSP16, literal(-8)))
        CFI V11 load(1, XDATA, add(CFA_XSP16, literal(-7)))
        CFI R7 load(1, XDATA, add(CFA_XSP16, literal(-6)))
        CFI ?RET_LOW load(1, XDATA, add(CFA_XSP16, literal(-5)))
        CFI ?RET_HIGH load(1, XDATA, add(CFA_XSP16, literal(-4)))
        CFI ?BRET_EXT load(1, XDATA, add(CFA_XSP16, literal(-3)))
        CFI DPL0 load(1, XDATA, add(CFA_XSP16, literal(-2)))
        CFI DPH0 load(1, XDATA, add(CFA_XSP16, literal(-1)))
        CFI CFA_SP SP+0
        CFI CFA_XSP16 add(XSP16, 25)
        CFI Block cfiCond127 Using cfiCommon0
        CFI (cfiCond127) NoFunction
        CFI (cfiCond127) Conditional ??CrossCallReturnLabel_22
        CFI (cfiCond127) R6 load(1, XDATA, add(CFA_XSP16, literal(-9)))
        CFI (cfiCond127) VB load(1, XDATA, add(CFA_XSP16, literal(-8)))
        CFI (cfiCond127) V0 load(1, XDATA, add(CFA_XSP16, literal(-7)))
        CFI (cfiCond127) R7 load(1, XDATA, add(CFA_XSP16, literal(-6)))
        CFI (cfiCond127) ?RET_LOW load(1, XDATA, add(CFA_XSP16, literal(-5)))
        CFI (cfiCond127) ?RET_HIGH load(1, XDATA, add(CFA_XSP16, literal(-4)))
        CFI (cfiCond127) ?BRET_EXT load(1, XDATA, add(CFA_XSP16, literal(-3)))
        CFI (cfiCond127) DPL0 load(1, XDATA, add(CFA_XSP16, literal(-2)))
        CFI (cfiCond127) DPH0 load(1, XDATA, add(CFA_XSP16, literal(-1)))
        CFI (cfiCond127) CFA_SP SP+0
        CFI (cfiCond127) CFA_XSP16 add(XSP16, 27)
        CFI Block cfiPicker128 Using cfiCommon1
        CFI (cfiPicker128) NoFunction
        CFI (cfiPicker128) Picker
        MOV     DPL,R6
        MOV     DPH,R7
        INC     DPTR
        INC     DPTR
        MOVX    A,@DPTR
        MOV     ?V0 + 0,A
        MOV     A,R6
        ADD     A,#0x3
        INC     R6
        INC     R6
        INC     R6
        MOV     A,R7
        ADDC    A,#0x0
        MOV     R7,A
        RET
        CFI EndBlock cfiCond126
        CFI EndBlock cfiCond127
        CFI EndBlock cfiPicker128
// 1348 
// 1349 /***************************************************************************************************
// 1350  * @fn      packDev_t
// 1351  *
// 1352  * @brief   Pack an associated_devices_t structure into a byte buffer (pack INVALID_NODE_ADDR if
// 1353  *          the pDev parameter is NULL).
// 1354  *
// 1355  * @param   pBuf - pointer to the buffer into which to pack the structure.
// 1356  * @param   pDev - pointer to the structure.
// 1357  *
// 1358  * @return  void
// 1359  ***************************************************************************************************/

        RSEG BANKED_CODE:CODE:NOROOT(0)
// 1360 static void packDev_t(uint8 *pBuf, associated_devices_t *pDev)
packDev_t:
        CFI Block cfiBlock129 Using cfiCommon0
        CFI Function packDev_t
        CODE
// 1361 {
        MOV     A,#-0xc
        LCALL   ?BANKED_ENTER_XDATA
        CFI DPH0 load(1, XDATA, add(CFA_XSP16, literal(-1)))
        CFI DPL0 load(1, XDATA, add(CFA_XSP16, literal(-2)))
        CFI ?BRET_EXT load(1, XDATA, add(CFA_XSP16, literal(-3)))
        CFI ?RET_HIGH load(1, XDATA, add(CFA_XSP16, literal(-4)))
        CFI ?RET_LOW load(1, XDATA, add(CFA_XSP16, literal(-5)))
        CFI R7 load(1, XDATA, add(CFA_XSP16, literal(-6)))
        CFI V3 load(1, XDATA, add(CFA_XSP16, literal(-7)))
        CFI V2 load(1, XDATA, add(CFA_XSP16, literal(-8)))
        CFI V1 load(1, XDATA, add(CFA_XSP16, literal(-9)))
        CFI V0 load(1, XDATA, add(CFA_XSP16, literal(-10)))
        CFI VB load(1, XDATA, add(CFA_XSP16, literal(-11)))
        CFI R6 load(1, XDATA, add(CFA_XSP16, literal(-12)))
        CFI CFA_SP SP+0
        CFI CFA_XSP16 add(XSP16, 12)
        ; Saved register size: 12
        ; Auto size: 0
// 1362   if (NULL == pDev)
        MOV     A,R4
        ORL     A,R5
        JNZ     ??packDev_t_0
// 1363   {
// 1364     uint16 rtrn = INVALID_NODE_ADDR;
// 1365     *pBuf++ = LO_UINT16(rtrn);
        MOV     DPL,R2
        MOV     DPH,R3
        MOV     A,#-0x2
        MOVX    @DPTR,A
        INC     DPTR
// 1366     *pBuf++ = HI_UINT16(rtrn);
        INC     A
        LJMP    ??CrossCallReturnLabel_12 & 0xFFFF
// 1367   }
// 1368   else
// 1369   {
// 1370     *pBuf++ = LO_UINT16(pDev->shortAddr);
??packDev_t_0:
        MOV     DPL,R4
        MOV     DPH,R5
        MOVX    A,@DPTR
        MOV     DPL,R2
        MOV     DPH,R3
        MOVX    @DPTR,A
        INC     DPTR
        MOV     R2,DPL
        MOV     R3,DPH
// 1371     *pBuf++ = HI_UINT16(pDev->shortAddr);
        MOV     DPL,R4
        MOV     DPH,R5
        LCALL   ?Subroutine11 & 0xFFFF
// 1372     *pBuf++ = LO_UINT16(pDev->addrIdx);
??CrossCallReturnLabel_65:
        ADD     A,#0x2
        LCALL   ?Subroutine10 & 0xFFFF
// 1373     *pBuf++ = HI_UINT16(pDev->addrIdx);
??CrossCallReturnLabel_11:
        LCALL   ?Subroutine36 & 0xFFFF
// 1374     *pBuf++ = pDev->nodeRelation;
??CrossCallReturnLabel_73:
        MOV     DPL,R4
        MOV     DPH,R5
        INC     DPTR
        INC     DPTR
        INC     DPTR
        INC     DPTR
        LCALL   ?Subroutine12 & 0xFFFF
// 1375     *pBuf++ = pDev->devStatus;
??CrossCallReturnLabel_13:
        LCALL   ?Subroutine12 & 0xFFFF
// 1376     *pBuf++ = pDev->assocCnt;
??CrossCallReturnLabel_14:
        INC     DPTR
        LCALL   ?Subroutine9 & 0xFFFF
// 1377     *pBuf++ = pDev->age;
??CrossCallReturnLabel_9:
        LCALL   ?Subroutine9 & 0xFFFF
// 1378     *pBuf++ = pDev->linkInfo.txCounter;
??CrossCallReturnLabel_10:
        INC     DPTR
        LCALL   ?Subroutine8 & 0xFFFF
// 1379     *pBuf++ = pDev->linkInfo.txCost;
??CrossCallReturnLabel_7:
        LCALL   ?Subroutine8 & 0xFFFF
// 1380     *pBuf++ = pDev->linkInfo.rxLqi;
??CrossCallReturnLabel_8:
        LCALL   ?Subroutine11 & 0xFFFF
// 1381     *pBuf++ = pDev->linkInfo.inKeySeqNum;
??CrossCallReturnLabel_66:
        ADD     A,#0xb
        MOV     DPL,A
        MOV     A,R5
        ADDC    A,#0x0
        MOV     DPH,A
        LCALL   ??Subroutine45_0 & 0xFFFF
// 1382     *pBuf++ = BREAK_UINT32(pDev->linkInfo.inFrmCntr, 0);
??CrossCallReturnLabel_67:
        ADD     A,#0xc
        MOV     R0,A
        MOV     A,R5
        LCALL   ?Subroutine17 & 0xFFFF
??CrossCallReturnLabel_24:
        MOV     R0,#?V0 + 0
        LCALL   ?L_MOV_X
        LCALL   ?Subroutine18 & 0xFFFF
// 1383     *pBuf++ = BREAK_UINT32(pDev->linkInfo.inFrmCntr, 1);
??CrossCallReturnLabel_62:
        LCALL   ?L_MOV_X
        MOV     A,?V0 + 1
        MOV     DPL,R2
        MOV     DPH,R3
        LCALL   ??Subroutine44_0 & 0xFFFF
// 1384     *pBuf++ = BREAK_UINT32(pDev->linkInfo.inFrmCntr, 2);
??CrossCallReturnLabel_64:
        LCALL   ?L_MOV_X
        MOV     A,#0x10
        MOV     R0,#?V0 + 0
        LCALL   ?UL_SHR
        LCALL   ?Subroutine18 & 0xFFFF
// 1385     *pBuf++ = BREAK_UINT32(pDev->linkInfo.inFrmCntr, 3);
??CrossCallReturnLabel_63:
        LCALL   ?L_MOV_X
        MOV     A,#0x18
        MOV     R0,#?V0 + 0
        LCALL   ?UL_SHR
        MOV     DPL,R2
        MOV     DPH,R3
        MOV     A,?V0 + 0
        LCALL   ?Subroutine36 & 0xFFFF
// 1386     *pBuf++ = LO_UINT16(pDev->linkInfo.txFailure);
??CrossCallReturnLabel_74:
        MOV     A,R4
        ADD     A,#0x10
        LCALL   ?Subroutine10 & 0xFFFF
// 1387     *pBuf++ = HI_UINT16(pDev->linkInfo.txFailure);
// 1388   }
??CrossCallReturnLabel_12:
        MOVX    @DPTR,A
// 1389 }
        MOV     R7,#0x4
        LJMP    ?BANKED_LEAVE_XDATA
        CFI EndBlock cfiBlock129

        RSEG BANKED_CODE:CODE:NOROOT(0)
?Subroutine18:
        CFI Block cfiCond130 Using cfiCommon0
        CFI NoFunction
        CFI Conditional ??CrossCallReturnLabel_62
        CFI R6 load(1, XDATA, add(CFA_XSP16, literal(-12)))
        CFI VB load(1, XDATA, add(CFA_XSP16, literal(-11)))
        CFI V0 load(1, XDATA, add(CFA_XSP16, literal(-10)))
        CFI V1 load(1, XDATA, add(CFA_XSP16, literal(-9)))
        CFI V2 load(1, XDATA, add(CFA_XSP16, literal(-8)))
        CFI V3 load(1, XDATA, add(CFA_XSP16, literal(-7)))
        CFI R7 load(1, XDATA, add(CFA_XSP16, literal(-6)))
        CFI ?RET_LOW load(1, XDATA, add(CFA_XSP16, literal(-5)))
        CFI ?RET_HIGH load(1, XDATA, add(CFA_XSP16, literal(-4)))
        CFI ?BRET_EXT load(1, XDATA, add(CFA_XSP16, literal(-3)))
        CFI DPL0 load(1, XDATA, add(CFA_XSP16, literal(-2)))
        CFI DPH0 load(1, XDATA, add(CFA_XSP16, literal(-1)))
        CFI CFA_SP SP+0
        CFI CFA_XSP16 add(XSP16, 12)
        CFI Block cfiCond131 Using cfiCommon0
        CFI (cfiCond131) NoFunction
        CFI (cfiCond131) Conditional ??CrossCallReturnLabel_63
        CFI (cfiCond131) R6 load(1, XDATA, add(CFA_XSP16, literal(-12)))
        CFI (cfiCond131) VB load(1, XDATA, add(CFA_XSP16, literal(-11)))
        CFI (cfiCond131) V0 load(1, XDATA, add(CFA_XSP16, literal(-10)))
        CFI (cfiCond131) V1 load(1, XDATA, add(CFA_XSP16, literal(-9)))
        CFI (cfiCond131) V2 load(1, XDATA, add(CFA_XSP16, literal(-8)))
        CFI (cfiCond131) V3 load(1, XDATA, add(CFA_XSP16, literal(-7)))
        CFI (cfiCond131) R7 load(1, XDATA, add(CFA_XSP16, literal(-6)))
        CFI (cfiCond131) ?RET_LOW load(1, XDATA, add(CFA_XSP16, literal(-5)))
        CFI (cfiCond131) ?RET_HIGH load(1, XDATA, add(CFA_XSP16, literal(-4)))
        CFI (cfiCond131) ?BRET_EXT load(1, XDATA, add(CFA_XSP16, literal(-3)))
        CFI (cfiCond131) DPL0 load(1, XDATA, add(CFA_XSP16, literal(-2)))
        CFI (cfiCond131) DPH0 load(1, XDATA, add(CFA_XSP16, literal(-1)))
        CFI (cfiCond131) CFA_SP SP+0
        CFI (cfiCond131) CFA_XSP16 add(XSP16, 12)
        CFI Block cfiPicker132 Using cfiCommon1
        CFI (cfiPicker132) NoFunction
        CFI (cfiPicker132) Picker
        MOV     DPL,R2
        MOV     DPH,R3
        MOV     A,?V0 + 0
        CFI EndBlock cfiCond130
        CFI EndBlock cfiCond131
        CFI EndBlock cfiPicker132
        REQUIRE ??Subroutine44_0
        ; // Fall through to label ??Subroutine44_0

        RSEG BANKED_CODE:CODE:NOROOT(0)
??Subroutine44_0:
        CFI Block cfiCond133 Using cfiCommon0
        CFI NoFunction
        CFI Conditional ??CrossCallReturnLabel_64
        CFI R6 load(1, XDATA, add(CFA_XSP16, literal(-12)))
        CFI VB load(1, XDATA, add(CFA_XSP16, literal(-11)))
        CFI V0 load(1, XDATA, add(CFA_XSP16, literal(-10)))
        CFI V1 load(1, XDATA, add(CFA_XSP16, literal(-9)))
        CFI V2 load(1, XDATA, add(CFA_XSP16, literal(-8)))
        CFI V3 load(1, XDATA, add(CFA_XSP16, literal(-7)))
        CFI R7 load(1, XDATA, add(CFA_XSP16, literal(-6)))
        CFI ?RET_LOW load(1, XDATA, add(CFA_XSP16, literal(-5)))
        CFI ?RET_HIGH load(1, XDATA, add(CFA_XSP16, literal(-4)))
        CFI ?BRET_EXT load(1, XDATA, add(CFA_XSP16, literal(-3)))
        CFI DPL0 load(1, XDATA, add(CFA_XSP16, literal(-2)))
        CFI DPH0 load(1, XDATA, add(CFA_XSP16, literal(-1)))
        CFI CFA_SP SP+0
        CFI CFA_XSP16 add(XSP16, 12)
        CFI Block cfiCond134 Using cfiCommon0
        CFI (cfiCond134) NoFunction
        CFI (cfiCond134) Conditional ??CrossCallReturnLabel_62
        CFI (cfiCond134) R6 load(1, XDATA, add(CFA_XSP16, literal(-12)))
        CFI (cfiCond134) VB load(1, XDATA, add(CFA_XSP16, literal(-11)))
        CFI (cfiCond134) V0 load(1, XDATA, add(CFA_XSP16, literal(-10)))
        CFI (cfiCond134) V1 load(1, XDATA, add(CFA_XSP16, literal(-9)))
        CFI (cfiCond134) V2 load(1, XDATA, add(CFA_XSP16, literal(-8)))
        CFI (cfiCond134) V3 load(1, XDATA, add(CFA_XSP16, literal(-7)))
        CFI (cfiCond134) R7 load(1, XDATA, add(CFA_XSP16, literal(-6)))
        CFI (cfiCond134) ?RET_LOW load(1, XDATA, add(CFA_XSP16, literal(-5)))
        CFI (cfiCond134) ?RET_HIGH load(1, XDATA, add(CFA_XSP16, literal(-4)))
        CFI (cfiCond134) ?BRET_EXT load(1, XDATA, add(CFA_XSP16, literal(-3)))
        CFI (cfiCond134) DPL0 load(1, XDATA, add(CFA_XSP16, literal(-2)))
        CFI (cfiCond134) DPH0 load(1, XDATA, add(CFA_XSP16, literal(-1)))
        CFI (cfiCond134) CFA_SP SP+0
        CFI (cfiCond134) CFA_XSP16 add(XSP16, 12)
        CFI Block cfiCond135 Using cfiCommon0
        CFI (cfiCond135) NoFunction
        CFI (cfiCond135) Conditional ??CrossCallReturnLabel_63
        CFI (cfiCond135) R6 load(1, XDATA, add(CFA_XSP16, literal(-12)))
        CFI (cfiCond135) VB load(1, XDATA, add(CFA_XSP16, literal(-11)))
        CFI (cfiCond135) V0 load(1, XDATA, add(CFA_XSP16, literal(-10)))
        CFI (cfiCond135) V1 load(1, XDATA, add(CFA_XSP16, literal(-9)))
        CFI (cfiCond135) V2 load(1, XDATA, add(CFA_XSP16, literal(-8)))
        CFI (cfiCond135) V3 load(1, XDATA, add(CFA_XSP16, literal(-7)))
        CFI (cfiCond135) R7 load(1, XDATA, add(CFA_XSP16, literal(-6)))
        CFI (cfiCond135) ?RET_LOW load(1, XDATA, add(CFA_XSP16, literal(-5)))
        CFI (cfiCond135) ?RET_HIGH load(1, XDATA, add(CFA_XSP16, literal(-4)))
        CFI (cfiCond135) ?BRET_EXT load(1, XDATA, add(CFA_XSP16, literal(-3)))
        CFI (cfiCond135) DPL0 load(1, XDATA, add(CFA_XSP16, literal(-2)))
        CFI (cfiCond135) DPH0 load(1, XDATA, add(CFA_XSP16, literal(-1)))
        CFI (cfiCond135) CFA_SP SP+0
        CFI (cfiCond135) CFA_XSP16 add(XSP16, 12)
        CFI Block cfiPicker136 Using cfiCommon1
        CFI (cfiPicker136) NoFunction
        CFI (cfiPicker136) Picker
        LCALL   ?Subroutine36 & 0xFFFF
??CrossCallReturnLabel_75:
        MOV     DPL,R6
        MOV     DPH,R7
        MOV     R0,#?V0 + 0
        RET
        CFI EndBlock cfiCond133
        CFI EndBlock cfiCond134
        CFI EndBlock cfiCond135
        CFI EndBlock cfiPicker136

        RSEG BANKED_CODE:CODE:NOROOT(0)
?Subroutine17:
        CFI Block cfiCond137 Using cfiCommon0
        CFI NoFunction
        CFI Conditional ??CrossCallReturnLabel_23
        CFI R6 load(1, XDATA, add(CFA_XSP16, literal(-15)))
        CFI VB load(1, XDATA, add(CFA_XSP16, literal(-14)))
        CFI V0 load(1, XDATA, add(CFA_XSP16, literal(-13)))
        CFI V1 load(1, XDATA, add(CFA_XSP16, literal(-12)))
        CFI V2 load(1, XDATA, add(CFA_XSP16, literal(-11)))
        CFI V3 load(1, XDATA, add(CFA_XSP16, literal(-10)))
        CFI V4 load(1, XDATA, add(CFA_XSP16, literal(-9)))
        CFI V5 load(1, XDATA, add(CFA_XSP16, literal(-8)))
        CFI V6 load(1, XDATA, add(CFA_XSP16, literal(-7)))
        CFI R7 load(1, XDATA, add(CFA_XSP16, literal(-6)))
        CFI ?RET_LOW load(1, XDATA, add(CFA_XSP16, literal(-5)))
        CFI ?RET_HIGH load(1, XDATA, add(CFA_XSP16, literal(-4)))
        CFI ?BRET_EXT load(1, XDATA, add(CFA_XSP16, literal(-3)))
        CFI DPL0 load(1, XDATA, add(CFA_XSP16, literal(-2)))
        CFI DPH0 load(1, XDATA, add(CFA_XSP16, literal(-1)))
        CFI CFA_SP SP+0
        CFI CFA_XSP16 add(XSP16, 37)
        CFI Block cfiCond138 Using cfiCommon0
        CFI (cfiCond138) NoFunction
        CFI (cfiCond138) Conditional ??CrossCallReturnLabel_24
        CFI (cfiCond138) R6 load(1, XDATA, add(CFA_XSP16, literal(-12)))
        CFI (cfiCond138) VB load(1, XDATA, add(CFA_XSP16, literal(-11)))
        CFI (cfiCond138) V0 load(1, XDATA, add(CFA_XSP16, literal(-10)))
        CFI (cfiCond138) V1 load(1, XDATA, add(CFA_XSP16, literal(-9)))
        CFI (cfiCond138) V2 load(1, XDATA, add(CFA_XSP16, literal(-8)))
        CFI (cfiCond138) V3 load(1, XDATA, add(CFA_XSP16, literal(-7)))
        CFI (cfiCond138) R7 load(1, XDATA, add(CFA_XSP16, literal(-6)))
        CFI (cfiCond138) ?RET_LOW load(1, XDATA, add(CFA_XSP16, literal(-5)))
        CFI (cfiCond138) ?RET_HIGH load(1, XDATA, add(CFA_XSP16, literal(-4)))
        CFI (cfiCond138) ?BRET_EXT load(1, XDATA, add(CFA_XSP16, literal(-3)))
        CFI (cfiCond138) DPL0 load(1, XDATA, add(CFA_XSP16, literal(-2)))
        CFI (cfiCond138) DPH0 load(1, XDATA, add(CFA_XSP16, literal(-1)))
        CFI (cfiCond138) CFA_SP SP+0
        CFI (cfiCond138) CFA_XSP16 add(XSP16, 12)
        CFI Block cfiPicker139 Using cfiCommon1
        CFI (cfiPicker139) NoFunction
        CFI (cfiPicker139) Picker
        ADDC    A,#0x0
        MOV     R1,A
        MOV     A,R0
        MOV     R6,A
        MOV     A,R1
        MOV     R7,A
        MOV     DPL,R6
        MOV     DPH,R7
        RET
        CFI EndBlock cfiCond137
        CFI EndBlock cfiCond138
        CFI EndBlock cfiPicker139

        RSEG BANKED_CODE:CODE:NOROOT(0)
?Subroutine12:
        CFI Block cfiCond140 Using cfiCommon0
        CFI NoFunction
        CFI Conditional ??CrossCallReturnLabel_13
        CFI R6 load(1, XDATA, add(CFA_XSP16, literal(-12)))
        CFI VB load(1, XDATA, add(CFA_XSP16, literal(-11)))
        CFI V0 load(1, XDATA, add(CFA_XSP16, literal(-10)))
        CFI V1 load(1, XDATA, add(CFA_XSP16, literal(-9)))
        CFI V2 load(1, XDATA, add(CFA_XSP16, literal(-8)))
        CFI V3 load(1, XDATA, add(CFA_XSP16, literal(-7)))
        CFI R7 load(1, XDATA, add(CFA_XSP16, literal(-6)))
        CFI ?RET_LOW load(1, XDATA, add(CFA_XSP16, literal(-5)))
        CFI ?RET_HIGH load(1, XDATA, add(CFA_XSP16, literal(-4)))
        CFI ?BRET_EXT load(1, XDATA, add(CFA_XSP16, literal(-3)))
        CFI DPL0 load(1, XDATA, add(CFA_XSP16, literal(-2)))
        CFI DPH0 load(1, XDATA, add(CFA_XSP16, literal(-1)))
        CFI CFA_SP SP+0
        CFI CFA_XSP16 add(XSP16, 12)
        CFI Block cfiCond141 Using cfiCommon0
        CFI (cfiCond141) NoFunction
        CFI (cfiCond141) Conditional ??CrossCallReturnLabel_14
        CFI (cfiCond141) R6 load(1, XDATA, add(CFA_XSP16, literal(-12)))
        CFI (cfiCond141) VB load(1, XDATA, add(CFA_XSP16, literal(-11)))
        CFI (cfiCond141) V0 load(1, XDATA, add(CFA_XSP16, literal(-10)))
        CFI (cfiCond141) V1 load(1, XDATA, add(CFA_XSP16, literal(-9)))
        CFI (cfiCond141) V2 load(1, XDATA, add(CFA_XSP16, literal(-8)))
        CFI (cfiCond141) V3 load(1, XDATA, add(CFA_XSP16, literal(-7)))
        CFI (cfiCond141) R7 load(1, XDATA, add(CFA_XSP16, literal(-6)))
        CFI (cfiCond141) ?RET_LOW load(1, XDATA, add(CFA_XSP16, literal(-5)))
        CFI (cfiCond141) ?RET_HIGH load(1, XDATA, add(CFA_XSP16, literal(-4)))
        CFI (cfiCond141) ?BRET_EXT load(1, XDATA, add(CFA_XSP16, literal(-3)))
        CFI (cfiCond141) DPL0 load(1, XDATA, add(CFA_XSP16, literal(-2)))
        CFI (cfiCond141) DPH0 load(1, XDATA, add(CFA_XSP16, literal(-1)))
        CFI (cfiCond141) CFA_SP SP+0
        CFI (cfiCond141) CFA_XSP16 add(XSP16, 12)
        CFI Block cfiPicker142 Using cfiCommon1
        CFI (cfiPicker142) NoFunction
        CFI (cfiPicker142) Picker
        LCALL   ?Subroutine28 & 0xFFFF
??CrossCallReturnLabel_69:
        MOV     DPL,R4
        MOV     DPH,R5
        INC     DPTR
        INC     DPTR
        INC     DPTR
        INC     DPTR
        INC     DPTR
        RET
        CFI EndBlock cfiCond140
        CFI EndBlock cfiCond141
        CFI EndBlock cfiPicker142

        RSEG BANKED_CODE:CODE:NOROOT(0)
?Subroutine11:
        CFI Block cfiCond143 Using cfiCommon0
        CFI NoFunction
        CFI Conditional ??CrossCallReturnLabel_65
        CFI R6 load(1, XDATA, add(CFA_XSP16, literal(-12)))
        CFI VB load(1, XDATA, add(CFA_XSP16, literal(-11)))
        CFI V0 load(1, XDATA, add(CFA_XSP16, literal(-10)))
        CFI V1 load(1, XDATA, add(CFA_XSP16, literal(-9)))
        CFI V2 load(1, XDATA, add(CFA_XSP16, literal(-8)))
        CFI V3 load(1, XDATA, add(CFA_XSP16, literal(-7)))
        CFI R7 load(1, XDATA, add(CFA_XSP16, literal(-6)))
        CFI ?RET_LOW load(1, XDATA, add(CFA_XSP16, literal(-5)))
        CFI ?RET_HIGH load(1, XDATA, add(CFA_XSP16, literal(-4)))
        CFI ?BRET_EXT load(1, XDATA, add(CFA_XSP16, literal(-3)))
        CFI DPL0 load(1, XDATA, add(CFA_XSP16, literal(-2)))
        CFI DPH0 load(1, XDATA, add(CFA_XSP16, literal(-1)))
        CFI CFA_SP SP+0
        CFI CFA_XSP16 add(XSP16, 12)
        CFI Block cfiCond144 Using cfiCommon0
        CFI (cfiCond144) NoFunction
        CFI (cfiCond144) Conditional ??CrossCallReturnLabel_66
        CFI (cfiCond144) R6 load(1, XDATA, add(CFA_XSP16, literal(-12)))
        CFI (cfiCond144) VB load(1, XDATA, add(CFA_XSP16, literal(-11)))
        CFI (cfiCond144) V0 load(1, XDATA, add(CFA_XSP16, literal(-10)))
        CFI (cfiCond144) V1 load(1, XDATA, add(CFA_XSP16, literal(-9)))
        CFI (cfiCond144) V2 load(1, XDATA, add(CFA_XSP16, literal(-8)))
        CFI (cfiCond144) V3 load(1, XDATA, add(CFA_XSP16, literal(-7)))
        CFI (cfiCond144) R7 load(1, XDATA, add(CFA_XSP16, literal(-6)))
        CFI (cfiCond144) ?RET_LOW load(1, XDATA, add(CFA_XSP16, literal(-5)))
        CFI (cfiCond144) ?RET_HIGH load(1, XDATA, add(CFA_XSP16, literal(-4)))
        CFI (cfiCond144) ?BRET_EXT load(1, XDATA, add(CFA_XSP16, literal(-3)))
        CFI (cfiCond144) DPL0 load(1, XDATA, add(CFA_XSP16, literal(-2)))
        CFI (cfiCond144) DPH0 load(1, XDATA, add(CFA_XSP16, literal(-1)))
        CFI (cfiCond144) CFA_SP SP+0
        CFI (cfiCond144) CFA_XSP16 add(XSP16, 12)
        CFI Block cfiPicker145 Using cfiCommon1
        CFI (cfiPicker145) NoFunction
        CFI (cfiPicker145) Picker
        INC     DPTR
        CFI EndBlock cfiCond143
        CFI EndBlock cfiCond144
        CFI EndBlock cfiPicker145
        REQUIRE ??Subroutine45_0
        ; // Fall through to label ??Subroutine45_0

        RSEG BANKED_CODE:CODE:NOROOT(0)
??Subroutine45_0:
        CFI Block cfiCond146 Using cfiCommon0
        CFI NoFunction
        CFI Conditional ??CrossCallReturnLabel_67
        CFI R6 load(1, XDATA, add(CFA_XSP16, literal(-12)))
        CFI VB load(1, XDATA, add(CFA_XSP16, literal(-11)))
        CFI V0 load(1, XDATA, add(CFA_XSP16, literal(-10)))
        CFI V1 load(1, XDATA, add(CFA_XSP16, literal(-9)))
        CFI V2 load(1, XDATA, add(CFA_XSP16, literal(-8)))
        CFI V3 load(1, XDATA, add(CFA_XSP16, literal(-7)))
        CFI R7 load(1, XDATA, add(CFA_XSP16, literal(-6)))
        CFI ?RET_LOW load(1, XDATA, add(CFA_XSP16, literal(-5)))
        CFI ?RET_HIGH load(1, XDATA, add(CFA_XSP16, literal(-4)))
        CFI ?BRET_EXT load(1, XDATA, add(CFA_XSP16, literal(-3)))
        CFI DPL0 load(1, XDATA, add(CFA_XSP16, literal(-2)))
        CFI DPH0 load(1, XDATA, add(CFA_XSP16, literal(-1)))
        CFI CFA_SP SP+0
        CFI CFA_XSP16 add(XSP16, 12)
        CFI Block cfiCond147 Using cfiCommon0
        CFI (cfiCond147) NoFunction
        CFI (cfiCond147) Conditional ??CrossCallReturnLabel_65
        CFI (cfiCond147) R6 load(1, XDATA, add(CFA_XSP16, literal(-12)))
        CFI (cfiCond147) VB load(1, XDATA, add(CFA_XSP16, literal(-11)))
        CFI (cfiCond147) V0 load(1, XDATA, add(CFA_XSP16, literal(-10)))
        CFI (cfiCond147) V1 load(1, XDATA, add(CFA_XSP16, literal(-9)))
        CFI (cfiCond147) V2 load(1, XDATA, add(CFA_XSP16, literal(-8)))
        CFI (cfiCond147) V3 load(1, XDATA, add(CFA_XSP16, literal(-7)))
        CFI (cfiCond147) R7 load(1, XDATA, add(CFA_XSP16, literal(-6)))
        CFI (cfiCond147) ?RET_LOW load(1, XDATA, add(CFA_XSP16, literal(-5)))
        CFI (cfiCond147) ?RET_HIGH load(1, XDATA, add(CFA_XSP16, literal(-4)))
        CFI (cfiCond147) ?BRET_EXT load(1, XDATA, add(CFA_XSP16, literal(-3)))
        CFI (cfiCond147) DPL0 load(1, XDATA, add(CFA_XSP16, literal(-2)))
        CFI (cfiCond147) DPH0 load(1, XDATA, add(CFA_XSP16, literal(-1)))
        CFI (cfiCond147) CFA_SP SP+0
        CFI (cfiCond147) CFA_XSP16 add(XSP16, 12)
        CFI Block cfiCond148 Using cfiCommon0
        CFI (cfiCond148) NoFunction
        CFI (cfiCond148) Conditional ??CrossCallReturnLabel_66
        CFI (cfiCond148) R6 load(1, XDATA, add(CFA_XSP16, literal(-12)))
        CFI (cfiCond148) VB load(1, XDATA, add(CFA_XSP16, literal(-11)))
        CFI (cfiCond148) V0 load(1, XDATA, add(CFA_XSP16, literal(-10)))
        CFI (cfiCond148) V1 load(1, XDATA, add(CFA_XSP16, literal(-9)))
        CFI (cfiCond148) V2 load(1, XDATA, add(CFA_XSP16, literal(-8)))
        CFI (cfiCond148) V3 load(1, XDATA, add(CFA_XSP16, literal(-7)))
        CFI (cfiCond148) R7 load(1, XDATA, add(CFA_XSP16, literal(-6)))
        CFI (cfiCond148) ?RET_LOW load(1, XDATA, add(CFA_XSP16, literal(-5)))
        CFI (cfiCond148) ?RET_HIGH load(1, XDATA, add(CFA_XSP16, literal(-4)))
        CFI (cfiCond148) ?BRET_EXT load(1, XDATA, add(CFA_XSP16, literal(-3)))
        CFI (cfiCond148) DPL0 load(1, XDATA, add(CFA_XSP16, literal(-2)))
        CFI (cfiCond148) DPH0 load(1, XDATA, add(CFA_XSP16, literal(-1)))
        CFI (cfiCond148) CFA_SP SP+0
        CFI (cfiCond148) CFA_XSP16 add(XSP16, 12)
        CFI Block cfiPicker149 Using cfiCommon1
        CFI (cfiPicker149) NoFunction
        CFI (cfiPicker149) Picker
        LCALL   ?Subroutine28 & 0xFFFF
??CrossCallReturnLabel_70:
        MOV     A,R4
        RET
        CFI EndBlock cfiCond146
        CFI EndBlock cfiCond147
        CFI EndBlock cfiCond148
        CFI EndBlock cfiPicker149

        RSEG BANKED_CODE:CODE:NOROOT(0)
?Subroutine28:
        CFI Block cfiCond150 Using cfiCommon0
        CFI NoFunction
        CFI Conditional ??CrossCallReturnLabel_69, ??CrossCallReturnLabel_13
        CFI R6 load(1, XDATA, add(CFA_XSP16, literal(-12)))
        CFI VB load(1, XDATA, add(CFA_XSP16, literal(-11)))
        CFI V0 load(1, XDATA, add(CFA_XSP16, literal(-10)))
        CFI V1 load(1, XDATA, add(CFA_XSP16, literal(-9)))
        CFI V2 load(1, XDATA, add(CFA_XSP16, literal(-8)))
        CFI V3 load(1, XDATA, add(CFA_XSP16, literal(-7)))
        CFI R7 load(1, XDATA, add(CFA_XSP16, literal(-6)))
        CFI ?RET_LOW load(1, XDATA, add(CFA_XSP16, literal(-5)))
        CFI ?RET_HIGH load(1, XDATA, add(CFA_XSP16, literal(-4)))
        CFI ?BRET_EXT load(1, XDATA, add(CFA_XSP16, literal(-3)))
        CFI DPL0 load(1, XDATA, add(CFA_XSP16, literal(-2)))
        CFI DPH0 load(1, XDATA, add(CFA_XSP16, literal(-1)))
        CFI CFA_SP SP+0
        CFI CFA_XSP16 add(XSP16, 12)
        CFI Block cfiCond151 Using cfiCommon0
        CFI (cfiCond151) NoFunction
        CFI (cfiCond151) Conditional ??CrossCallReturnLabel_69, ??CrossCallReturnLabel_14
        CFI (cfiCond151) R6 load(1, XDATA, add(CFA_XSP16, literal(-12)))
        CFI (cfiCond151) VB load(1, XDATA, add(CFA_XSP16, literal(-11)))
        CFI (cfiCond151) V0 load(1, XDATA, add(CFA_XSP16, literal(-10)))
        CFI (cfiCond151) V1 load(1, XDATA, add(CFA_XSP16, literal(-9)))
        CFI (cfiCond151) V2 load(1, XDATA, add(CFA_XSP16, literal(-8)))
        CFI (cfiCond151) V3 load(1, XDATA, add(CFA_XSP16, literal(-7)))
        CFI (cfiCond151) R7 load(1, XDATA, add(CFA_XSP16, literal(-6)))
        CFI (cfiCond151) ?RET_LOW load(1, XDATA, add(CFA_XSP16, literal(-5)))
        CFI (cfiCond151) ?RET_HIGH load(1, XDATA, add(CFA_XSP16, literal(-4)))
        CFI (cfiCond151) ?BRET_EXT load(1, XDATA, add(CFA_XSP16, literal(-3)))
        CFI (cfiCond151) DPL0 load(1, XDATA, add(CFA_XSP16, literal(-2)))
        CFI (cfiCond151) DPH0 load(1, XDATA, add(CFA_XSP16, literal(-1)))
        CFI (cfiCond151) CFA_SP SP+0
        CFI (cfiCond151) CFA_XSP16 add(XSP16, 12)
        CFI Block cfiCond152 Using cfiCommon0
        CFI (cfiCond152) NoFunction
        CFI (cfiCond152) Conditional ??CrossCallReturnLabel_70, ??CrossCallReturnLabel_65
        CFI (cfiCond152) R6 load(1, XDATA, add(CFA_XSP16, literal(-12)))
        CFI (cfiCond152) VB load(1, XDATA, add(CFA_XSP16, literal(-11)))
        CFI (cfiCond152) V0 load(1, XDATA, add(CFA_XSP16, literal(-10)))
        CFI (cfiCond152) V1 load(1, XDATA, add(CFA_XSP16, literal(-9)))
        CFI (cfiCond152) V2 load(1, XDATA, add(CFA_XSP16, literal(-8)))
        CFI (cfiCond152) V3 load(1, XDATA, add(CFA_XSP16, literal(-7)))
        CFI (cfiCond152) R7 load(1, XDATA, add(CFA_XSP16, literal(-6)))
        CFI (cfiCond152) ?RET_LOW load(1, XDATA, add(CFA_XSP16, literal(-5)))
        CFI (cfiCond152) ?RET_HIGH load(1, XDATA, add(CFA_XSP16, literal(-4)))
        CFI (cfiCond152) ?BRET_EXT load(1, XDATA, add(CFA_XSP16, literal(-3)))
        CFI (cfiCond152) DPL0 load(1, XDATA, add(CFA_XSP16, literal(-2)))
        CFI (cfiCond152) DPH0 load(1, XDATA, add(CFA_XSP16, literal(-1)))
        CFI (cfiCond152) CFA_SP SP+0
        CFI (cfiCond152) CFA_XSP16 add(XSP16, 12)
        CFI Block cfiCond153 Using cfiCommon0
        CFI (cfiCond153) NoFunction
        CFI (cfiCond153) Conditional ??CrossCallReturnLabel_70, ??CrossCallReturnLabel_66
        CFI (cfiCond153) R6 load(1, XDATA, add(CFA_XSP16, literal(-12)))
        CFI (cfiCond153) VB load(1, XDATA, add(CFA_XSP16, literal(-11)))
        CFI (cfiCond153) V0 load(1, XDATA, add(CFA_XSP16, literal(-10)))
        CFI (cfiCond153) V1 load(1, XDATA, add(CFA_XSP16, literal(-9)))
        CFI (cfiCond153) V2 load(1, XDATA, add(CFA_XSP16, literal(-8)))
        CFI (cfiCond153) V3 load(1, XDATA, add(CFA_XSP16, literal(-7)))
        CFI (cfiCond153) R7 load(1, XDATA, add(CFA_XSP16, literal(-6)))
        CFI (cfiCond153) ?RET_LOW load(1, XDATA, add(CFA_XSP16, literal(-5)))
        CFI (cfiCond153) ?RET_HIGH load(1, XDATA, add(CFA_XSP16, literal(-4)))
        CFI (cfiCond153) ?BRET_EXT load(1, XDATA, add(CFA_XSP16, literal(-3)))
        CFI (cfiCond153) DPL0 load(1, XDATA, add(CFA_XSP16, literal(-2)))
        CFI (cfiCond153) DPH0 load(1, XDATA, add(CFA_XSP16, literal(-1)))
        CFI (cfiCond153) CFA_SP SP+0
        CFI (cfiCond153) CFA_XSP16 add(XSP16, 12)
        CFI Block cfiCond154 Using cfiCommon0
        CFI (cfiCond154) NoFunction
        CFI (cfiCond154) Conditional ??CrossCallReturnLabel_70, ??CrossCallReturnLabel_67
        CFI (cfiCond154) R6 load(1, XDATA, add(CFA_XSP16, literal(-12)))
        CFI (cfiCond154) VB load(1, XDATA, add(CFA_XSP16, literal(-11)))
        CFI (cfiCond154) V0 load(1, XDATA, add(CFA_XSP16, literal(-10)))
        CFI (cfiCond154) V1 load(1, XDATA, add(CFA_XSP16, literal(-9)))
        CFI (cfiCond154) V2 load(1, XDATA, add(CFA_XSP16, literal(-8)))
        CFI (cfiCond154) V3 load(1, XDATA, add(CFA_XSP16, literal(-7)))
        CFI (cfiCond154) R7 load(1, XDATA, add(CFA_XSP16, literal(-6)))
        CFI (cfiCond154) ?RET_LOW load(1, XDATA, add(CFA_XSP16, literal(-5)))
        CFI (cfiCond154) ?RET_HIGH load(1, XDATA, add(CFA_XSP16, literal(-4)))
        CFI (cfiCond154) ?BRET_EXT load(1, XDATA, add(CFA_XSP16, literal(-3)))
        CFI (cfiCond154) DPL0 load(1, XDATA, add(CFA_XSP16, literal(-2)))
        CFI (cfiCond154) DPH0 load(1, XDATA, add(CFA_XSP16, literal(-1)))
        CFI (cfiCond154) CFA_SP SP+0
        CFI (cfiCond154) CFA_XSP16 add(XSP16, 12)
        CFI Block cfiCond155 Using cfiCommon0
        CFI (cfiCond155) NoFunction
        CFI (cfiCond155) Conditional ??CrossCallReturnLabel_68, ??CrossCallReturnLabel_11
        CFI (cfiCond155) R6 load(1, XDATA, add(CFA_XSP16, literal(-12)))
        CFI (cfiCond155) VB load(1, XDATA, add(CFA_XSP16, literal(-11)))
        CFI (cfiCond155) V0 load(1, XDATA, add(CFA_XSP16, literal(-10)))
        CFI (cfiCond155) V1 load(1, XDATA, add(CFA_XSP16, literal(-9)))
        CFI (cfiCond155) V2 load(1, XDATA, add(CFA_XSP16, literal(-8)))
        CFI (cfiCond155) V3 load(1, XDATA, add(CFA_XSP16, literal(-7)))
        CFI (cfiCond155) R7 load(1, XDATA, add(CFA_XSP16, literal(-6)))
        CFI (cfiCond155) ?RET_LOW load(1, XDATA, add(CFA_XSP16, literal(-5)))
        CFI (cfiCond155) ?RET_HIGH load(1, XDATA, add(CFA_XSP16, literal(-4)))
        CFI (cfiCond155) ?BRET_EXT load(1, XDATA, add(CFA_XSP16, literal(-3)))
        CFI (cfiCond155) DPL0 load(1, XDATA, add(CFA_XSP16, literal(-2)))
        CFI (cfiCond155) DPH0 load(1, XDATA, add(CFA_XSP16, literal(-1)))
        CFI (cfiCond155) CFA_SP SP+0
        CFI (cfiCond155) CFA_XSP16 add(XSP16, 12)
        CFI Block cfiCond156 Using cfiCommon0
        CFI (cfiCond156) NoFunction
        CFI (cfiCond156) Conditional ??CrossCallReturnLabel_68, ??CrossCallReturnLabel_12
        CFI (cfiCond156) R6 load(1, XDATA, add(CFA_XSP16, literal(-12)))
        CFI (cfiCond156) VB load(1, XDATA, add(CFA_XSP16, literal(-11)))
        CFI (cfiCond156) V0 load(1, XDATA, add(CFA_XSP16, literal(-10)))
        CFI (cfiCond156) V1 load(1, XDATA, add(CFA_XSP16, literal(-9)))
        CFI (cfiCond156) V2 load(1, XDATA, add(CFA_XSP16, literal(-8)))
        CFI (cfiCond156) V3 load(1, XDATA, add(CFA_XSP16, literal(-7)))
        CFI (cfiCond156) R7 load(1, XDATA, add(CFA_XSP16, literal(-6)))
        CFI (cfiCond156) ?RET_LOW load(1, XDATA, add(CFA_XSP16, literal(-5)))
        CFI (cfiCond156) ?RET_HIGH load(1, XDATA, add(CFA_XSP16, literal(-4)))
        CFI (cfiCond156) ?BRET_EXT load(1, XDATA, add(CFA_XSP16, literal(-3)))
        CFI (cfiCond156) DPL0 load(1, XDATA, add(CFA_XSP16, literal(-2)))
        CFI (cfiCond156) DPH0 load(1, XDATA, add(CFA_XSP16, literal(-1)))
        CFI (cfiCond156) CFA_SP SP+0
        CFI (cfiCond156) CFA_XSP16 add(XSP16, 12)
        CFI Block cfiPicker157 Using cfiCommon1
        CFI (cfiPicker157) NoFunction
        CFI (cfiPicker157) Picker
        LCALL   ?Subroutine35 & 0xFFFF
??CrossCallReturnLabel_72:
        RET
        CFI EndBlock cfiCond150
        CFI EndBlock cfiCond151
        CFI EndBlock cfiCond152
        CFI EndBlock cfiCond153
        CFI EndBlock cfiCond154
        CFI EndBlock cfiCond155
        CFI EndBlock cfiCond156
        CFI EndBlock cfiPicker157

        RSEG BANKED_CODE:CODE:NOROOT(0)
?Subroutine35:
        CFI Block cfiCond158 Using cfiCommon0
        CFI NoFunction
        CFI Conditional ??CrossCallReturnLabel_72, ??CrossCallReturnLabel_69, ??CrossCallReturnLabel_13
        CFI R6 load(1, XDATA, add(CFA_XSP16, literal(-12)))
        CFI VB load(1, XDATA, add(CFA_XSP16, literal(-11)))
        CFI V0 load(1, XDATA, add(CFA_XSP16, literal(-10)))
        CFI V1 load(1, XDATA, add(CFA_XSP16, literal(-9)))
        CFI V2 load(1, XDATA, add(CFA_XSP16, literal(-8)))
        CFI V3 load(1, XDATA, add(CFA_XSP16, literal(-7)))
        CFI R7 load(1, XDATA, add(CFA_XSP16, literal(-6)))
        CFI ?RET_LOW load(1, XDATA, add(CFA_XSP16, literal(-5)))
        CFI ?RET_HIGH load(1, XDATA, add(CFA_XSP16, literal(-4)))
        CFI ?BRET_EXT load(1, XDATA, add(CFA_XSP16, literal(-3)))
        CFI DPL0 load(1, XDATA, add(CFA_XSP16, literal(-2)))
        CFI DPH0 load(1, XDATA, add(CFA_XSP16, literal(-1)))
        CFI CFA_SP SP+0
        CFI CFA_XSP16 add(XSP16, 12)
        CFI Block cfiCond159 Using cfiCommon0
        CFI (cfiCond159) NoFunction
        CFI (cfiCond159) Conditional ??CrossCallReturnLabel_72, ??CrossCallReturnLabel_69, ??CrossCallReturnLabel_14
        CFI (cfiCond159) R6 load(1, XDATA, add(CFA_XSP16, literal(-12)))
        CFI (cfiCond159) VB load(1, XDATA, add(CFA_XSP16, literal(-11)))
        CFI (cfiCond159) V0 load(1, XDATA, add(CFA_XSP16, literal(-10)))
        CFI (cfiCond159) V1 load(1, XDATA, add(CFA_XSP16, literal(-9)))
        CFI (cfiCond159) V2 load(1, XDATA, add(CFA_XSP16, literal(-8)))
        CFI (cfiCond159) V3 load(1, XDATA, add(CFA_XSP16, literal(-7)))
        CFI (cfiCond159) R7 load(1, XDATA, add(CFA_XSP16, literal(-6)))
        CFI (cfiCond159) ?RET_LOW load(1, XDATA, add(CFA_XSP16, literal(-5)))
        CFI (cfiCond159) ?RET_HIGH load(1, XDATA, add(CFA_XSP16, literal(-4)))
        CFI (cfiCond159) ?BRET_EXT load(1, XDATA, add(CFA_XSP16, literal(-3)))
        CFI (cfiCond159) DPL0 load(1, XDATA, add(CFA_XSP16, literal(-2)))
        CFI (cfiCond159) DPH0 load(1, XDATA, add(CFA_XSP16, literal(-1)))
        CFI (cfiCond159) CFA_SP SP+0
        CFI (cfiCond159) CFA_XSP16 add(XSP16, 12)
        CFI Block cfiCond160 Using cfiCommon0
        CFI (cfiCond160) NoFunction
        CFI (cfiCond160) Conditional ??CrossCallReturnLabel_72, ??CrossCallReturnLabel_70, ??CrossCallReturnLabel_65
        CFI (cfiCond160) R6 load(1, XDATA, add(CFA_XSP16, literal(-12)))
        CFI (cfiCond160) VB load(1, XDATA, add(CFA_XSP16, literal(-11)))
        CFI (cfiCond160) V0 load(1, XDATA, add(CFA_XSP16, literal(-10)))
        CFI (cfiCond160) V1 load(1, XDATA, add(CFA_XSP16, literal(-9)))
        CFI (cfiCond160) V2 load(1, XDATA, add(CFA_XSP16, literal(-8)))
        CFI (cfiCond160) V3 load(1, XDATA, add(CFA_XSP16, literal(-7)))
        CFI (cfiCond160) R7 load(1, XDATA, add(CFA_XSP16, literal(-6)))
        CFI (cfiCond160) ?RET_LOW load(1, XDATA, add(CFA_XSP16, literal(-5)))
        CFI (cfiCond160) ?RET_HIGH load(1, XDATA, add(CFA_XSP16, literal(-4)))
        CFI (cfiCond160) ?BRET_EXT load(1, XDATA, add(CFA_XSP16, literal(-3)))
        CFI (cfiCond160) DPL0 load(1, XDATA, add(CFA_XSP16, literal(-2)))
        CFI (cfiCond160) DPH0 load(1, XDATA, add(CFA_XSP16, literal(-1)))
        CFI (cfiCond160) CFA_SP SP+0
        CFI (cfiCond160) CFA_XSP16 add(XSP16, 12)
        CFI Block cfiCond161 Using cfiCommon0
        CFI (cfiCond161) NoFunction
        CFI (cfiCond161) Conditional ??CrossCallReturnLabel_72, ??CrossCallReturnLabel_70, ??CrossCallReturnLabel_66
        CFI (cfiCond161) R6 load(1, XDATA, add(CFA_XSP16, literal(-12)))
        CFI (cfiCond161) VB load(1, XDATA, add(CFA_XSP16, literal(-11)))
        CFI (cfiCond161) V0 load(1, XDATA, add(CFA_XSP16, literal(-10)))
        CFI (cfiCond161) V1 load(1, XDATA, add(CFA_XSP16, literal(-9)))
        CFI (cfiCond161) V2 load(1, XDATA, add(CFA_XSP16, literal(-8)))
        CFI (cfiCond161) V3 load(1, XDATA, add(CFA_XSP16, literal(-7)))
        CFI (cfiCond161) R7 load(1, XDATA, add(CFA_XSP16, literal(-6)))
        CFI (cfiCond161) ?RET_LOW load(1, XDATA, add(CFA_XSP16, literal(-5)))
        CFI (cfiCond161) ?RET_HIGH load(1, XDATA, add(CFA_XSP16, literal(-4)))
        CFI (cfiCond161) ?BRET_EXT load(1, XDATA, add(CFA_XSP16, literal(-3)))
        CFI (cfiCond161) DPL0 load(1, XDATA, add(CFA_XSP16, literal(-2)))
        CFI (cfiCond161) DPH0 load(1, XDATA, add(CFA_XSP16, literal(-1)))
        CFI (cfiCond161) CFA_SP SP+0
        CFI (cfiCond161) CFA_XSP16 add(XSP16, 12)
        CFI Block cfiCond162 Using cfiCommon0
        CFI (cfiCond162) NoFunction
        CFI (cfiCond162) Conditional ??CrossCallReturnLabel_72, ??CrossCallReturnLabel_70, ??CrossCallReturnLabel_67
        CFI (cfiCond162) R6 load(1, XDATA, add(CFA_XSP16, literal(-12)))
        CFI (cfiCond162) VB load(1, XDATA, add(CFA_XSP16, literal(-11)))
        CFI (cfiCond162) V0 load(1, XDATA, add(CFA_XSP16, literal(-10)))
        CFI (cfiCond162) V1 load(1, XDATA, add(CFA_XSP16, literal(-9)))
        CFI (cfiCond162) V2 load(1, XDATA, add(CFA_XSP16, literal(-8)))
        CFI (cfiCond162) V3 load(1, XDATA, add(CFA_XSP16, literal(-7)))
        CFI (cfiCond162) R7 load(1, XDATA, add(CFA_XSP16, literal(-6)))
        CFI (cfiCond162) ?RET_LOW load(1, XDATA, add(CFA_XSP16, literal(-5)))
        CFI (cfiCond162) ?RET_HIGH load(1, XDATA, add(CFA_XSP16, literal(-4)))
        CFI (cfiCond162) ?BRET_EXT load(1, XDATA, add(CFA_XSP16, literal(-3)))
        CFI (cfiCond162) DPL0 load(1, XDATA, add(CFA_XSP16, literal(-2)))
        CFI (cfiCond162) DPH0 load(1, XDATA, add(CFA_XSP16, literal(-1)))
        CFI (cfiCond162) CFA_SP SP+0
        CFI (cfiCond162) CFA_XSP16 add(XSP16, 12)
        CFI Block cfiCond163 Using cfiCommon0
        CFI (cfiCond163) NoFunction
        CFI (cfiCond163) Conditional ??CrossCallReturnLabel_72, ??CrossCallReturnLabel_68, ??CrossCallReturnLabel_11
        CFI (cfiCond163) R6 load(1, XDATA, add(CFA_XSP16, literal(-12)))
        CFI (cfiCond163) VB load(1, XDATA, add(CFA_XSP16, literal(-11)))
        CFI (cfiCond163) V0 load(1, XDATA, add(CFA_XSP16, literal(-10)))
        CFI (cfiCond163) V1 load(1, XDATA, add(CFA_XSP16, literal(-9)))
        CFI (cfiCond163) V2 load(1, XDATA, add(CFA_XSP16, literal(-8)))
        CFI (cfiCond163) V3 load(1, XDATA, add(CFA_XSP16, literal(-7)))
        CFI (cfiCond163) R7 load(1, XDATA, add(CFA_XSP16, literal(-6)))
        CFI (cfiCond163) ?RET_LOW load(1, XDATA, add(CFA_XSP16, literal(-5)))
        CFI (cfiCond163) ?RET_HIGH load(1, XDATA, add(CFA_XSP16, literal(-4)))
        CFI (cfiCond163) ?BRET_EXT load(1, XDATA, add(CFA_XSP16, literal(-3)))
        CFI (cfiCond163) DPL0 load(1, XDATA, add(CFA_XSP16, literal(-2)))
        CFI (cfiCond163) DPH0 load(1, XDATA, add(CFA_XSP16, literal(-1)))
        CFI (cfiCond163) CFA_SP SP+0
        CFI (cfiCond163) CFA_XSP16 add(XSP16, 12)
        CFI Block cfiCond164 Using cfiCommon0
        CFI (cfiCond164) NoFunction
        CFI (cfiCond164) Conditional ??CrossCallReturnLabel_72, ??CrossCallReturnLabel_68, ??CrossCallReturnLabel_12
        CFI (cfiCond164) R6 load(1, XDATA, add(CFA_XSP16, literal(-12)))
        CFI (cfiCond164) VB load(1, XDATA, add(CFA_XSP16, literal(-11)))
        CFI (cfiCond164) V0 load(1, XDATA, add(CFA_XSP16, literal(-10)))
        CFI (cfiCond164) V1 load(1, XDATA, add(CFA_XSP16, literal(-9)))
        CFI (cfiCond164) V2 load(1, XDATA, add(CFA_XSP16, literal(-8)))
        CFI (cfiCond164) V3 load(1, XDATA, add(CFA_XSP16, literal(-7)))
        CFI (cfiCond164) R7 load(1, XDATA, add(CFA_XSP16, literal(-6)))
        CFI (cfiCond164) ?RET_LOW load(1, XDATA, add(CFA_XSP16, literal(-5)))
        CFI (cfiCond164) ?RET_HIGH load(1, XDATA, add(CFA_XSP16, literal(-4)))
        CFI (cfiCond164) ?BRET_EXT load(1, XDATA, add(CFA_XSP16, literal(-3)))
        CFI (cfiCond164) DPL0 load(1, XDATA, add(CFA_XSP16, literal(-2)))
        CFI (cfiCond164) DPH0 load(1, XDATA, add(CFA_XSP16, literal(-1)))
        CFI (cfiCond164) CFA_SP SP+0
        CFI (cfiCond164) CFA_XSP16 add(XSP16, 12)
        CFI Block cfiCond165 Using cfiCommon0
        CFI (cfiCond165) NoFunction
        CFI (cfiCond165) Conditional ??CrossCallReturnLabel_71, ??CrossCallReturnLabel_38, ??CrossCallReturnLabel_9
        CFI (cfiCond165) R6 load(1, XDATA, add(CFA_XSP16, literal(-12)))
        CFI (cfiCond165) VB load(1, XDATA, add(CFA_XSP16, literal(-11)))
        CFI (cfiCond165) V0 load(1, XDATA, add(CFA_XSP16, literal(-10)))
        CFI (cfiCond165) V1 load(1, XDATA, add(CFA_XSP16, literal(-9)))
        CFI (cfiCond165) V2 load(1, XDATA, add(CFA_XSP16, literal(-8)))
        CFI (cfiCond165) V3 load(1, XDATA, add(CFA_XSP16, literal(-7)))
        CFI (cfiCond165) R7 load(1, XDATA, add(CFA_XSP16, literal(-6)))
        CFI (cfiCond165) ?RET_LOW load(1, XDATA, add(CFA_XSP16, literal(-5)))
        CFI (cfiCond165) ?RET_HIGH load(1, XDATA, add(CFA_XSP16, literal(-4)))
        CFI (cfiCond165) ?BRET_EXT load(1, XDATA, add(CFA_XSP16, literal(-3)))
        CFI (cfiCond165) DPL0 load(1, XDATA, add(CFA_XSP16, literal(-2)))
        CFI (cfiCond165) DPH0 load(1, XDATA, add(CFA_XSP16, literal(-1)))
        CFI (cfiCond165) CFA_SP SP+0
        CFI (cfiCond165) CFA_XSP16 add(XSP16, 12)
        CFI Block cfiCond166 Using cfiCommon0
        CFI (cfiCond166) NoFunction
        CFI (cfiCond166) Conditional ??CrossCallReturnLabel_71, ??CrossCallReturnLabel_38, ??CrossCallReturnLabel_10
        CFI (cfiCond166) R6 load(1, XDATA, add(CFA_XSP16, literal(-12)))
        CFI (cfiCond166) VB load(1, XDATA, add(CFA_XSP16, literal(-11)))
        CFI (cfiCond166) V0 load(1, XDATA, add(CFA_XSP16, literal(-10)))
        CFI (cfiCond166) V1 load(1, XDATA, add(CFA_XSP16, literal(-9)))
        CFI (cfiCond166) V2 load(1, XDATA, add(CFA_XSP16, literal(-8)))
        CFI (cfiCond166) V3 load(1, XDATA, add(CFA_XSP16, literal(-7)))
        CFI (cfiCond166) R7 load(1, XDATA, add(CFA_XSP16, literal(-6)))
        CFI (cfiCond166) ?RET_LOW load(1, XDATA, add(CFA_XSP16, literal(-5)))
        CFI (cfiCond166) ?RET_HIGH load(1, XDATA, add(CFA_XSP16, literal(-4)))
        CFI (cfiCond166) ?BRET_EXT load(1, XDATA, add(CFA_XSP16, literal(-3)))
        CFI (cfiCond166) DPL0 load(1, XDATA, add(CFA_XSP16, literal(-2)))
        CFI (cfiCond166) DPH0 load(1, XDATA, add(CFA_XSP16, literal(-1)))
        CFI (cfiCond166) CFA_SP SP+0
        CFI (cfiCond166) CFA_XSP16 add(XSP16, 12)
        CFI Block cfiCond167 Using cfiCommon0
        CFI (cfiCond167) NoFunction
        CFI (cfiCond167) Conditional ??CrossCallReturnLabel_71, ??CrossCallReturnLabel_39, ??CrossCallReturnLabel_7
        CFI (cfiCond167) R6 load(1, XDATA, add(CFA_XSP16, literal(-12)))
        CFI (cfiCond167) VB load(1, XDATA, add(CFA_XSP16, literal(-11)))
        CFI (cfiCond167) V0 load(1, XDATA, add(CFA_XSP16, literal(-10)))
        CFI (cfiCond167) V1 load(1, XDATA, add(CFA_XSP16, literal(-9)))
        CFI (cfiCond167) V2 load(1, XDATA, add(CFA_XSP16, literal(-8)))
        CFI (cfiCond167) V3 load(1, XDATA, add(CFA_XSP16, literal(-7)))
        CFI (cfiCond167) R7 load(1, XDATA, add(CFA_XSP16, literal(-6)))
        CFI (cfiCond167) ?RET_LOW load(1, XDATA, add(CFA_XSP16, literal(-5)))
        CFI (cfiCond167) ?RET_HIGH load(1, XDATA, add(CFA_XSP16, literal(-4)))
        CFI (cfiCond167) ?BRET_EXT load(1, XDATA, add(CFA_XSP16, literal(-3)))
        CFI (cfiCond167) DPL0 load(1, XDATA, add(CFA_XSP16, literal(-2)))
        CFI (cfiCond167) DPH0 load(1, XDATA, add(CFA_XSP16, literal(-1)))
        CFI (cfiCond167) CFA_SP SP+0
        CFI (cfiCond167) CFA_XSP16 add(XSP16, 12)
        CFI Block cfiCond168 Using cfiCommon0
        CFI (cfiCond168) NoFunction
        CFI (cfiCond168) Conditional ??CrossCallReturnLabel_71, ??CrossCallReturnLabel_39, ??CrossCallReturnLabel_8
        CFI (cfiCond168) R6 load(1, XDATA, add(CFA_XSP16, literal(-12)))
        CFI (cfiCond168) VB load(1, XDATA, add(CFA_XSP16, literal(-11)))
        CFI (cfiCond168) V0 load(1, XDATA, add(CFA_XSP16, literal(-10)))
        CFI (cfiCond168) V1 load(1, XDATA, add(CFA_XSP16, literal(-9)))
        CFI (cfiCond168) V2 load(1, XDATA, add(CFA_XSP16, literal(-8)))
        CFI (cfiCond168) V3 load(1, XDATA, add(CFA_XSP16, literal(-7)))
        CFI (cfiCond168) R7 load(1, XDATA, add(CFA_XSP16, literal(-6)))
        CFI (cfiCond168) ?RET_LOW load(1, XDATA, add(CFA_XSP16, literal(-5)))
        CFI (cfiCond168) ?RET_HIGH load(1, XDATA, add(CFA_XSP16, literal(-4)))
        CFI (cfiCond168) ?BRET_EXT load(1, XDATA, add(CFA_XSP16, literal(-3)))
        CFI (cfiCond168) DPL0 load(1, XDATA, add(CFA_XSP16, literal(-2)))
        CFI (cfiCond168) DPH0 load(1, XDATA, add(CFA_XSP16, literal(-1)))
        CFI (cfiCond168) CFA_SP SP+0
        CFI (cfiCond168) CFA_XSP16 add(XSP16, 12)
        CFI Block cfiPicker169 Using cfiCommon1
        CFI (cfiPicker169) NoFunction
        CFI (cfiPicker169) Picker
        MOVX    A,@DPTR
        MOV     DPL,R2
        MOV     DPH,R3
        LCALL   ?Subroutine36 & 0xFFFF
??CrossCallReturnLabel_76:
        RET
        CFI EndBlock cfiCond158
        CFI EndBlock cfiCond159
        CFI EndBlock cfiCond160
        CFI EndBlock cfiCond161
        CFI EndBlock cfiCond162
        CFI EndBlock cfiCond163
        CFI EndBlock cfiCond164
        CFI EndBlock cfiCond165
        CFI EndBlock cfiCond166
        CFI EndBlock cfiCond167
        CFI EndBlock cfiCond168
        CFI EndBlock cfiPicker169

        RSEG BANKED_CODE:CODE:NOROOT(0)
?Subroutine36:
        CFI Block cfiCond170 Using cfiCommon0
        CFI NoFunction
        CFI Conditional ??CrossCallReturnLabel_73
        CFI R6 load(1, XDATA, add(CFA_XSP16, literal(-12)))
        CFI VB load(1, XDATA, add(CFA_XSP16, literal(-11)))
        CFI V0 load(1, XDATA, add(CFA_XSP16, literal(-10)))
        CFI V1 load(1, XDATA, add(CFA_XSP16, literal(-9)))
        CFI V2 load(1, XDATA, add(CFA_XSP16, literal(-8)))
        CFI V3 load(1, XDATA, add(CFA_XSP16, literal(-7)))
        CFI R7 load(1, XDATA, add(CFA_XSP16, literal(-6)))
        CFI ?RET_LOW load(1, XDATA, add(CFA_XSP16, literal(-5)))
        CFI ?RET_HIGH load(1, XDATA, add(CFA_XSP16, literal(-4)))
        CFI ?BRET_EXT load(1, XDATA, add(CFA_XSP16, literal(-3)))
        CFI DPL0 load(1, XDATA, add(CFA_XSP16, literal(-2)))
        CFI DPH0 load(1, XDATA, add(CFA_XSP16, literal(-1)))
        CFI CFA_SP SP+0
        CFI CFA_XSP16 add(XSP16, 12)
        CFI Block cfiCond171 Using cfiCommon0
        CFI (cfiCond171) NoFunction
        CFI (cfiCond171) Conditional ??CrossCallReturnLabel_74
        CFI (cfiCond171) R6 load(1, XDATA, add(CFA_XSP16, literal(-12)))
        CFI (cfiCond171) VB load(1, XDATA, add(CFA_XSP16, literal(-11)))
        CFI (cfiCond171) V0 load(1, XDATA, add(CFA_XSP16, literal(-10)))
        CFI (cfiCond171) V1 load(1, XDATA, add(CFA_XSP16, literal(-9)))
        CFI (cfiCond171) V2 load(1, XDATA, add(CFA_XSP16, literal(-8)))
        CFI (cfiCond171) V3 load(1, XDATA, add(CFA_XSP16, literal(-7)))
        CFI (cfiCond171) R7 load(1, XDATA, add(CFA_XSP16, literal(-6)))
        CFI (cfiCond171) ?RET_LOW load(1, XDATA, add(CFA_XSP16, literal(-5)))
        CFI (cfiCond171) ?RET_HIGH load(1, XDATA, add(CFA_XSP16, literal(-4)))
        CFI (cfiCond171) ?BRET_EXT load(1, XDATA, add(CFA_XSP16, literal(-3)))
        CFI (cfiCond171) DPL0 load(1, XDATA, add(CFA_XSP16, literal(-2)))
        CFI (cfiCond171) DPH0 load(1, XDATA, add(CFA_XSP16, literal(-1)))
        CFI (cfiCond171) CFA_SP SP+0
        CFI (cfiCond171) CFA_XSP16 add(XSP16, 12)
        CFI Block cfiCond172 Using cfiCommon0
        CFI (cfiCond172) NoFunction
        CFI (cfiCond172) Conditional ??CrossCallReturnLabel_75, ??CrossCallReturnLabel_62
        CFI (cfiCond172) R6 load(1, XDATA, add(CFA_XSP16, literal(-12)))
        CFI (cfiCond172) VB load(1, XDATA, add(CFA_XSP16, literal(-11)))
        CFI (cfiCond172) V0 load(1, XDATA, add(CFA_XSP16, literal(-10)))
        CFI (cfiCond172) V1 load(1, XDATA, add(CFA_XSP16, literal(-9)))
        CFI (cfiCond172) V2 load(1, XDATA, add(CFA_XSP16, literal(-8)))
        CFI (cfiCond172) V3 load(1, XDATA, add(CFA_XSP16, literal(-7)))
        CFI (cfiCond172) R7 load(1, XDATA, add(CFA_XSP16, literal(-6)))
        CFI (cfiCond172) ?RET_LOW load(1, XDATA, add(CFA_XSP16, literal(-5)))
        CFI (cfiCond172) ?RET_HIGH load(1, XDATA, add(CFA_XSP16, literal(-4)))
        CFI (cfiCond172) ?BRET_EXT load(1, XDATA, add(CFA_XSP16, literal(-3)))
        CFI (cfiCond172) DPL0 load(1, XDATA, add(CFA_XSP16, literal(-2)))
        CFI (cfiCond172) DPH0 load(1, XDATA, add(CFA_XSP16, literal(-1)))
        CFI (cfiCond172) CFA_SP SP+0
        CFI (cfiCond172) CFA_XSP16 add(XSP16, 12)
        CFI Block cfiCond173 Using cfiCommon0
        CFI (cfiCond173) NoFunction
        CFI (cfiCond173) Conditional ??CrossCallReturnLabel_75, ??CrossCallReturnLabel_63
        CFI (cfiCond173) R6 load(1, XDATA, add(CFA_XSP16, literal(-12)))
        CFI (cfiCond173) VB load(1, XDATA, add(CFA_XSP16, literal(-11)))
        CFI (cfiCond173) V0 load(1, XDATA, add(CFA_XSP16, literal(-10)))
        CFI (cfiCond173) V1 load(1, XDATA, add(CFA_XSP16, literal(-9)))
        CFI (cfiCond173) V2 load(1, XDATA, add(CFA_XSP16, literal(-8)))
        CFI (cfiCond173) V3 load(1, XDATA, add(CFA_XSP16, literal(-7)))
        CFI (cfiCond173) R7 load(1, XDATA, add(CFA_XSP16, literal(-6)))
        CFI (cfiCond173) ?RET_LOW load(1, XDATA, add(CFA_XSP16, literal(-5)))
        CFI (cfiCond173) ?RET_HIGH load(1, XDATA, add(CFA_XSP16, literal(-4)))
        CFI (cfiCond173) ?BRET_EXT load(1, XDATA, add(CFA_XSP16, literal(-3)))
        CFI (cfiCond173) DPL0 load(1, XDATA, add(CFA_XSP16, literal(-2)))
        CFI (cfiCond173) DPH0 load(1, XDATA, add(CFA_XSP16, literal(-1)))
        CFI (cfiCond173) CFA_SP SP+0
        CFI (cfiCond173) CFA_XSP16 add(XSP16, 12)
        CFI Block cfiCond174 Using cfiCommon0
        CFI (cfiCond174) NoFunction
        CFI (cfiCond174) Conditional ??CrossCallReturnLabel_75, ??CrossCallReturnLabel_64
        CFI (cfiCond174) R6 load(1, XDATA, add(CFA_XSP16, literal(-12)))
        CFI (cfiCond174) VB load(1, XDATA, add(CFA_XSP16, literal(-11)))
        CFI (cfiCond174) V0 load(1, XDATA, add(CFA_XSP16, literal(-10)))
        CFI (cfiCond174) V1 load(1, XDATA, add(CFA_XSP16, literal(-9)))
        CFI (cfiCond174) V2 load(1, XDATA, add(CFA_XSP16, literal(-8)))
        CFI (cfiCond174) V3 load(1, XDATA, add(CFA_XSP16, literal(-7)))
        CFI (cfiCond174) R7 load(1, XDATA, add(CFA_XSP16, literal(-6)))
        CFI (cfiCond174) ?RET_LOW load(1, XDATA, add(CFA_XSP16, literal(-5)))
        CFI (cfiCond174) ?RET_HIGH load(1, XDATA, add(CFA_XSP16, literal(-4)))
        CFI (cfiCond174) ?BRET_EXT load(1, XDATA, add(CFA_XSP16, literal(-3)))
        CFI (cfiCond174) DPL0 load(1, XDATA, add(CFA_XSP16, literal(-2)))
        CFI (cfiCond174) DPH0 load(1, XDATA, add(CFA_XSP16, literal(-1)))
        CFI (cfiCond174) CFA_SP SP+0
        CFI (cfiCond174) CFA_XSP16 add(XSP16, 12)
        CFI Block cfiCond175 Using cfiCommon0
        CFI (cfiCond175) NoFunction
        CFI (cfiCond175) Conditional ??CrossCallReturnLabel_76, ??CrossCallReturnLabel_72, ??CrossCallReturnLabel_69, ??CrossCallReturnLabel_13
        CFI (cfiCond175) R6 load(1, XDATA, add(CFA_XSP16, literal(-12)))
        CFI (cfiCond175) VB load(1, XDATA, add(CFA_XSP16, literal(-11)))
        CFI (cfiCond175) V0 load(1, XDATA, add(CFA_XSP16, literal(-10)))
        CFI (cfiCond175) V1 load(1, XDATA, add(CFA_XSP16, literal(-9)))
        CFI (cfiCond175) V2 load(1, XDATA, add(CFA_XSP16, literal(-8)))
        CFI (cfiCond175) V3 load(1, XDATA, add(CFA_XSP16, literal(-7)))
        CFI (cfiCond175) R7 load(1, XDATA, add(CFA_XSP16, literal(-6)))
        CFI (cfiCond175) ?RET_LOW load(1, XDATA, add(CFA_XSP16, literal(-5)))
        CFI (cfiCond175) ?RET_HIGH load(1, XDATA, add(CFA_XSP16, literal(-4)))
        CFI (cfiCond175) ?BRET_EXT load(1, XDATA, add(CFA_XSP16, literal(-3)))
        CFI (cfiCond175) DPL0 load(1, XDATA, add(CFA_XSP16, literal(-2)))
        CFI (cfiCond175) DPH0 load(1, XDATA, add(CFA_XSP16, literal(-1)))
        CFI (cfiCond175) CFA_SP SP+0
        CFI (cfiCond175) CFA_XSP16 add(XSP16, 12)
        CFI Block cfiCond176 Using cfiCommon0
        CFI (cfiCond176) NoFunction
        CFI (cfiCond176) Conditional ??CrossCallReturnLabel_76, ??CrossCallReturnLabel_72, ??CrossCallReturnLabel_69, ??CrossCallReturnLabel_14
        CFI (cfiCond176) R6 load(1, XDATA, add(CFA_XSP16, literal(-12)))
        CFI (cfiCond176) VB load(1, XDATA, add(CFA_XSP16, literal(-11)))
        CFI (cfiCond176) V0 load(1, XDATA, add(CFA_XSP16, literal(-10)))
        CFI (cfiCond176) V1 load(1, XDATA, add(CFA_XSP16, literal(-9)))
        CFI (cfiCond176) V2 load(1, XDATA, add(CFA_XSP16, literal(-8)))
        CFI (cfiCond176) V3 load(1, XDATA, add(CFA_XSP16, literal(-7)))
        CFI (cfiCond176) R7 load(1, XDATA, add(CFA_XSP16, literal(-6)))
        CFI (cfiCond176) ?RET_LOW load(1, XDATA, add(CFA_XSP16, literal(-5)))
        CFI (cfiCond176) ?RET_HIGH load(1, XDATA, add(CFA_XSP16, literal(-4)))
        CFI (cfiCond176) ?BRET_EXT load(1, XDATA, add(CFA_XSP16, literal(-3)))
        CFI (cfiCond176) DPL0 load(1, XDATA, add(CFA_XSP16, literal(-2)))
        CFI (cfiCond176) DPH0 load(1, XDATA, add(CFA_XSP16, literal(-1)))
        CFI (cfiCond176) CFA_SP SP+0
        CFI (cfiCond176) CFA_XSP16 add(XSP16, 12)
        CFI Block cfiCond177 Using cfiCommon0
        CFI (cfiCond177) NoFunction
        CFI (cfiCond177) Conditional ??CrossCallReturnLabel_76, ??CrossCallReturnLabel_72, ??CrossCallReturnLabel_70, ??CrossCallReturnLabel_65
        CFI (cfiCond177) R6 load(1, XDATA, add(CFA_XSP16, literal(-12)))
        CFI (cfiCond177) VB load(1, XDATA, add(CFA_XSP16, literal(-11)))
        CFI (cfiCond177) V0 load(1, XDATA, add(CFA_XSP16, literal(-10)))
        CFI (cfiCond177) V1 load(1, XDATA, add(CFA_XSP16, literal(-9)))
        CFI (cfiCond177) V2 load(1, XDATA, add(CFA_XSP16, literal(-8)))
        CFI (cfiCond177) V3 load(1, XDATA, add(CFA_XSP16, literal(-7)))
        CFI (cfiCond177) R7 load(1, XDATA, add(CFA_XSP16, literal(-6)))
        CFI (cfiCond177) ?RET_LOW load(1, XDATA, add(CFA_XSP16, literal(-5)))
        CFI (cfiCond177) ?RET_HIGH load(1, XDATA, add(CFA_XSP16, literal(-4)))
        CFI (cfiCond177) ?BRET_EXT load(1, XDATA, add(CFA_XSP16, literal(-3)))
        CFI (cfiCond177) DPL0 load(1, XDATA, add(CFA_XSP16, literal(-2)))
        CFI (cfiCond177) DPH0 load(1, XDATA, add(CFA_XSP16, literal(-1)))
        CFI (cfiCond177) CFA_SP SP+0
        CFI (cfiCond177) CFA_XSP16 add(XSP16, 12)
        CFI Block cfiCond178 Using cfiCommon0
        CFI (cfiCond178) NoFunction
        CFI (cfiCond178) Conditional ??CrossCallReturnLabel_76, ??CrossCallReturnLabel_72, ??CrossCallReturnLabel_70, ??CrossCallReturnLabel_66
        CFI (cfiCond178) R6 load(1, XDATA, add(CFA_XSP16, literal(-12)))
        CFI (cfiCond178) VB load(1, XDATA, add(CFA_XSP16, literal(-11)))
        CFI (cfiCond178) V0 load(1, XDATA, add(CFA_XSP16, literal(-10)))
        CFI (cfiCond178) V1 load(1, XDATA, add(CFA_XSP16, literal(-9)))
        CFI (cfiCond178) V2 load(1, XDATA, add(CFA_XSP16, literal(-8)))
        CFI (cfiCond178) V3 load(1, XDATA, add(CFA_XSP16, literal(-7)))
        CFI (cfiCond178) R7 load(1, XDATA, add(CFA_XSP16, literal(-6)))
        CFI (cfiCond178) ?RET_LOW load(1, XDATA, add(CFA_XSP16, literal(-5)))
        CFI (cfiCond178) ?RET_HIGH load(1, XDATA, add(CFA_XSP16, literal(-4)))
        CFI (cfiCond178) ?BRET_EXT load(1, XDATA, add(CFA_XSP16, literal(-3)))
        CFI (cfiCond178) DPL0 load(1, XDATA, add(CFA_XSP16, literal(-2)))
        CFI (cfiCond178) DPH0 load(1, XDATA, add(CFA_XSP16, literal(-1)))
        CFI (cfiCond178) CFA_SP SP+0
        CFI (cfiCond178) CFA_XSP16 add(XSP16, 12)
        CFI Block cfiCond179 Using cfiCommon0
        CFI (cfiCond179) NoFunction
        CFI (cfiCond179) Conditional ??CrossCallReturnLabel_76, ??CrossCallReturnLabel_72, ??CrossCallReturnLabel_70, ??CrossCallReturnLabel_67
        CFI (cfiCond179) R6 load(1, XDATA, add(CFA_XSP16, literal(-12)))
        CFI (cfiCond179) VB load(1, XDATA, add(CFA_XSP16, literal(-11)))
        CFI (cfiCond179) V0 load(1, XDATA, add(CFA_XSP16, literal(-10)))
        CFI (cfiCond179) V1 load(1, XDATA, add(CFA_XSP16, literal(-9)))
        CFI (cfiCond179) V2 load(1, XDATA, add(CFA_XSP16, literal(-8)))
        CFI (cfiCond179) V3 load(1, XDATA, add(CFA_XSP16, literal(-7)))
        CFI (cfiCond179) R7 load(1, XDATA, add(CFA_XSP16, literal(-6)))
        CFI (cfiCond179) ?RET_LOW load(1, XDATA, add(CFA_XSP16, literal(-5)))
        CFI (cfiCond179) ?RET_HIGH load(1, XDATA, add(CFA_XSP16, literal(-4)))
        CFI (cfiCond179) ?BRET_EXT load(1, XDATA, add(CFA_XSP16, literal(-3)))
        CFI (cfiCond179) DPL0 load(1, XDATA, add(CFA_XSP16, literal(-2)))
        CFI (cfiCond179) DPH0 load(1, XDATA, add(CFA_XSP16, literal(-1)))
        CFI (cfiCond179) CFA_SP SP+0
        CFI (cfiCond179) CFA_XSP16 add(XSP16, 12)
        CFI Block cfiCond180 Using cfiCommon0
        CFI (cfiCond180) NoFunction
        CFI (cfiCond180) Conditional ??CrossCallReturnLabel_76, ??CrossCallReturnLabel_72, ??CrossCallReturnLabel_68, ??CrossCallReturnLabel_11
        CFI (cfiCond180) R6 load(1, XDATA, add(CFA_XSP16, literal(-12)))
        CFI (cfiCond180) VB load(1, XDATA, add(CFA_XSP16, literal(-11)))
        CFI (cfiCond180) V0 load(1, XDATA, add(CFA_XSP16, literal(-10)))
        CFI (cfiCond180) V1 load(1, XDATA, add(CFA_XSP16, literal(-9)))
        CFI (cfiCond180) V2 load(1, XDATA, add(CFA_XSP16, literal(-8)))
        CFI (cfiCond180) V3 load(1, XDATA, add(CFA_XSP16, literal(-7)))
        CFI (cfiCond180) R7 load(1, XDATA, add(CFA_XSP16, literal(-6)))
        CFI (cfiCond180) ?RET_LOW load(1, XDATA, add(CFA_XSP16, literal(-5)))
        CFI (cfiCond180) ?RET_HIGH load(1, XDATA, add(CFA_XSP16, literal(-4)))
        CFI (cfiCond180) ?BRET_EXT load(1, XDATA, add(CFA_XSP16, literal(-3)))
        CFI (cfiCond180) DPL0 load(1, XDATA, add(CFA_XSP16, literal(-2)))
        CFI (cfiCond180) DPH0 load(1, XDATA, add(CFA_XSP16, literal(-1)))
        CFI (cfiCond180) CFA_SP SP+0
        CFI (cfiCond180) CFA_XSP16 add(XSP16, 12)
        CFI Block cfiCond181 Using cfiCommon0
        CFI (cfiCond181) NoFunction
        CFI (cfiCond181) Conditional ??CrossCallReturnLabel_76, ??CrossCallReturnLabel_72, ??CrossCallReturnLabel_68, ??CrossCallReturnLabel_12
        CFI (cfiCond181) R6 load(1, XDATA, add(CFA_XSP16, literal(-12)))
        CFI (cfiCond181) VB load(1, XDATA, add(CFA_XSP16, literal(-11)))
        CFI (cfiCond181) V0 load(1, XDATA, add(CFA_XSP16, literal(-10)))
        CFI (cfiCond181) V1 load(1, XDATA, add(CFA_XSP16, literal(-9)))
        CFI (cfiCond181) V2 load(1, XDATA, add(CFA_XSP16, literal(-8)))
        CFI (cfiCond181) V3 load(1, XDATA, add(CFA_XSP16, literal(-7)))
        CFI (cfiCond181) R7 load(1, XDATA, add(CFA_XSP16, literal(-6)))
        CFI (cfiCond181) ?RET_LOW load(1, XDATA, add(CFA_XSP16, literal(-5)))
        CFI (cfiCond181) ?RET_HIGH load(1, XDATA, add(CFA_XSP16, literal(-4)))
        CFI (cfiCond181) ?BRET_EXT load(1, XDATA, add(CFA_XSP16, literal(-3)))
        CFI (cfiCond181) DPL0 load(1, XDATA, add(CFA_XSP16, literal(-2)))
        CFI (cfiCond181) DPH0 load(1, XDATA, add(CFA_XSP16, literal(-1)))
        CFI (cfiCond181) CFA_SP SP+0
        CFI (cfiCond181) CFA_XSP16 add(XSP16, 12)
        CFI Block cfiCond182 Using cfiCommon0
        CFI (cfiCond182) NoFunction
        CFI (cfiCond182) Conditional ??CrossCallReturnLabel_76, ??CrossCallReturnLabel_71, ??CrossCallReturnLabel_38, ??CrossCallReturnLabel_9
        CFI (cfiCond182) R6 load(1, XDATA, add(CFA_XSP16, literal(-12)))
        CFI (cfiCond182) VB load(1, XDATA, add(CFA_XSP16, literal(-11)))
        CFI (cfiCond182) V0 load(1, XDATA, add(CFA_XSP16, literal(-10)))
        CFI (cfiCond182) V1 load(1, XDATA, add(CFA_XSP16, literal(-9)))
        CFI (cfiCond182) V2 load(1, XDATA, add(CFA_XSP16, literal(-8)))
        CFI (cfiCond182) V3 load(1, XDATA, add(CFA_XSP16, literal(-7)))
        CFI (cfiCond182) R7 load(1, XDATA, add(CFA_XSP16, literal(-6)))
        CFI (cfiCond182) ?RET_LOW load(1, XDATA, add(CFA_XSP16, literal(-5)))
        CFI (cfiCond182) ?RET_HIGH load(1, XDATA, add(CFA_XSP16, literal(-4)))
        CFI (cfiCond182) ?BRET_EXT load(1, XDATA, add(CFA_XSP16, literal(-3)))
        CFI (cfiCond182) DPL0 load(1, XDATA, add(CFA_XSP16, literal(-2)))
        CFI (cfiCond182) DPH0 load(1, XDATA, add(CFA_XSP16, literal(-1)))
        CFI (cfiCond182) CFA_SP SP+0
        CFI (cfiCond182) CFA_XSP16 add(XSP16, 12)
        CFI Block cfiCond183 Using cfiCommon0
        CFI (cfiCond183) NoFunction
        CFI (cfiCond183) Conditional ??CrossCallReturnLabel_76, ??CrossCallReturnLabel_71, ??CrossCallReturnLabel_38, ??CrossCallReturnLabel_10
        CFI (cfiCond183) R6 load(1, XDATA, add(CFA_XSP16, literal(-12)))
        CFI (cfiCond183) VB load(1, XDATA, add(CFA_XSP16, literal(-11)))
        CFI (cfiCond183) V0 load(1, XDATA, add(CFA_XSP16, literal(-10)))
        CFI (cfiCond183) V1 load(1, XDATA, add(CFA_XSP16, literal(-9)))
        CFI (cfiCond183) V2 load(1, XDATA, add(CFA_XSP16, literal(-8)))
        CFI (cfiCond183) V3 load(1, XDATA, add(CFA_XSP16, literal(-7)))
        CFI (cfiCond183) R7 load(1, XDATA, add(CFA_XSP16, literal(-6)))
        CFI (cfiCond183) ?RET_LOW load(1, XDATA, add(CFA_XSP16, literal(-5)))
        CFI (cfiCond183) ?RET_HIGH load(1, XDATA, add(CFA_XSP16, literal(-4)))
        CFI (cfiCond183) ?BRET_EXT load(1, XDATA, add(CFA_XSP16, literal(-3)))
        CFI (cfiCond183) DPL0 load(1, XDATA, add(CFA_XSP16, literal(-2)))
        CFI (cfiCond183) DPH0 load(1, XDATA, add(CFA_XSP16, literal(-1)))
        CFI (cfiCond183) CFA_SP SP+0
        CFI (cfiCond183) CFA_XSP16 add(XSP16, 12)
        CFI Block cfiCond184 Using cfiCommon0
        CFI (cfiCond184) NoFunction
        CFI (cfiCond184) Conditional ??CrossCallReturnLabel_76, ??CrossCallReturnLabel_71, ??CrossCallReturnLabel_39, ??CrossCallReturnLabel_7
        CFI (cfiCond184) R6 load(1, XDATA, add(CFA_XSP16, literal(-12)))
        CFI (cfiCond184) VB load(1, XDATA, add(CFA_XSP16, literal(-11)))
        CFI (cfiCond184) V0 load(1, XDATA, add(CFA_XSP16, literal(-10)))
        CFI (cfiCond184) V1 load(1, XDATA, add(CFA_XSP16, literal(-9)))
        CFI (cfiCond184) V2 load(1, XDATA, add(CFA_XSP16, literal(-8)))
        CFI (cfiCond184) V3 load(1, XDATA, add(CFA_XSP16, literal(-7)))
        CFI (cfiCond184) R7 load(1, XDATA, add(CFA_XSP16, literal(-6)))
        CFI (cfiCond184) ?RET_LOW load(1, XDATA, add(CFA_XSP16, literal(-5)))
        CFI (cfiCond184) ?RET_HIGH load(1, XDATA, add(CFA_XSP16, literal(-4)))
        CFI (cfiCond184) ?BRET_EXT load(1, XDATA, add(CFA_XSP16, literal(-3)))
        CFI (cfiCond184) DPL0 load(1, XDATA, add(CFA_XSP16, literal(-2)))
        CFI (cfiCond184) DPH0 load(1, XDATA, add(CFA_XSP16, literal(-1)))
        CFI (cfiCond184) CFA_SP SP+0
        CFI (cfiCond184) CFA_XSP16 add(XSP16, 12)
        CFI Block cfiCond185 Using cfiCommon0
        CFI (cfiCond185) NoFunction
        CFI (cfiCond185) Conditional ??CrossCallReturnLabel_76, ??CrossCallReturnLabel_71, ??CrossCallReturnLabel_39, ??CrossCallReturnLabel_8
        CFI (cfiCond185) R6 load(1, XDATA, add(CFA_XSP16, literal(-12)))
        CFI (cfiCond185) VB load(1, XDATA, add(CFA_XSP16, literal(-11)))
        CFI (cfiCond185) V0 load(1, XDATA, add(CFA_XSP16, literal(-10)))
        CFI (cfiCond185) V1 load(1, XDATA, add(CFA_XSP16, literal(-9)))
        CFI (cfiCond185) V2 load(1, XDATA, add(CFA_XSP16, literal(-8)))
        CFI (cfiCond185) V3 load(1, XDATA, add(CFA_XSP16, literal(-7)))
        CFI (cfiCond185) R7 load(1, XDATA, add(CFA_XSP16, literal(-6)))
        CFI (cfiCond185) ?RET_LOW load(1, XDATA, add(CFA_XSP16, literal(-5)))
        CFI (cfiCond185) ?RET_HIGH load(1, XDATA, add(CFA_XSP16, literal(-4)))
        CFI (cfiCond185) ?BRET_EXT load(1, XDATA, add(CFA_XSP16, literal(-3)))
        CFI (cfiCond185) DPL0 load(1, XDATA, add(CFA_XSP16, literal(-2)))
        CFI (cfiCond185) DPH0 load(1, XDATA, add(CFA_XSP16, literal(-1)))
        CFI (cfiCond185) CFA_SP SP+0
        CFI (cfiCond185) CFA_XSP16 add(XSP16, 12)
        CFI Block cfiPicker186 Using cfiCommon1
        CFI (cfiPicker186) NoFunction
        CFI (cfiPicker186) Picker
        MOVX    @DPTR,A
        INC     DPTR
        INC     R2
        MOV     R3,DPH
        RET
        CFI EndBlock cfiCond170
        CFI EndBlock cfiCond171
        CFI EndBlock cfiCond172
        CFI EndBlock cfiCond173
        CFI EndBlock cfiCond174
        CFI EndBlock cfiCond175
        CFI EndBlock cfiCond176
        CFI EndBlock cfiCond177
        CFI EndBlock cfiCond178
        CFI EndBlock cfiCond179
        CFI EndBlock cfiCond180
        CFI EndBlock cfiCond181
        CFI EndBlock cfiCond182
        CFI EndBlock cfiCond183
        CFI EndBlock cfiCond184
        CFI EndBlock cfiCond185
        CFI EndBlock cfiPicker186

        RSEG BANKED_CODE:CODE:NOROOT(0)
?Subroutine10:
        CFI Block cfiCond187 Using cfiCommon0
        CFI NoFunction
        CFI Conditional ??CrossCallReturnLabel_11
        CFI R6 load(1, XDATA, add(CFA_XSP16, literal(-12)))
        CFI VB load(1, XDATA, add(CFA_XSP16, literal(-11)))
        CFI V0 load(1, XDATA, add(CFA_XSP16, literal(-10)))
        CFI V1 load(1, XDATA, add(CFA_XSP16, literal(-9)))
        CFI V2 load(1, XDATA, add(CFA_XSP16, literal(-8)))
        CFI V3 load(1, XDATA, add(CFA_XSP16, literal(-7)))
        CFI R7 load(1, XDATA, add(CFA_XSP16, literal(-6)))
        CFI ?RET_LOW load(1, XDATA, add(CFA_XSP16, literal(-5)))
        CFI ?RET_HIGH load(1, XDATA, add(CFA_XSP16, literal(-4)))
        CFI ?BRET_EXT load(1, XDATA, add(CFA_XSP16, literal(-3)))
        CFI DPL0 load(1, XDATA, add(CFA_XSP16, literal(-2)))
        CFI DPH0 load(1, XDATA, add(CFA_XSP16, literal(-1)))
        CFI CFA_SP SP+0
        CFI CFA_XSP16 add(XSP16, 12)
        CFI Block cfiCond188 Using cfiCommon0
        CFI (cfiCond188) NoFunction
        CFI (cfiCond188) Conditional ??CrossCallReturnLabel_12
        CFI (cfiCond188) R6 load(1, XDATA, add(CFA_XSP16, literal(-12)))
        CFI (cfiCond188) VB load(1, XDATA, add(CFA_XSP16, literal(-11)))
        CFI (cfiCond188) V0 load(1, XDATA, add(CFA_XSP16, literal(-10)))
        CFI (cfiCond188) V1 load(1, XDATA, add(CFA_XSP16, literal(-9)))
        CFI (cfiCond188) V2 load(1, XDATA, add(CFA_XSP16, literal(-8)))
        CFI (cfiCond188) V3 load(1, XDATA, add(CFA_XSP16, literal(-7)))
        CFI (cfiCond188) R7 load(1, XDATA, add(CFA_XSP16, literal(-6)))
        CFI (cfiCond188) ?RET_LOW load(1, XDATA, add(CFA_XSP16, literal(-5)))
        CFI (cfiCond188) ?RET_HIGH load(1, XDATA, add(CFA_XSP16, literal(-4)))
        CFI (cfiCond188) ?BRET_EXT load(1, XDATA, add(CFA_XSP16, literal(-3)))
        CFI (cfiCond188) DPL0 load(1, XDATA, add(CFA_XSP16, literal(-2)))
        CFI (cfiCond188) DPH0 load(1, XDATA, add(CFA_XSP16, literal(-1)))
        CFI (cfiCond188) CFA_SP SP+0
        CFI (cfiCond188) CFA_XSP16 add(XSP16, 12)
        CFI Block cfiPicker189 Using cfiCommon1
        CFI (cfiPicker189) NoFunction
        CFI (cfiPicker189) Picker
        MOV     R0,A
        MOV     A,R5
        ADDC    A,#0x0
        MOV     R1,A
        MOV     DPL,R0
        MOV     DPH,R1
        LCALL   ?Subroutine28 & 0xFFFF
??CrossCallReturnLabel_68:
        MOV     DPL,R0
        MOV     DPH,R1
        INC     DPTR
        MOVX    A,@DPTR
        MOV     DPL,R2
        MOV     DPH,R3
        RET
        CFI EndBlock cfiCond187
        CFI EndBlock cfiCond188
        CFI EndBlock cfiPicker189

        RSEG BANKED_CODE:CODE:NOROOT(0)
?Subroutine9:
        CFI Block cfiCond190 Using cfiCommon0
        CFI NoFunction
        CFI Conditional ??CrossCallReturnLabel_9
        CFI R6 load(1, XDATA, add(CFA_XSP16, literal(-12)))
        CFI VB load(1, XDATA, add(CFA_XSP16, literal(-11)))
        CFI V0 load(1, XDATA, add(CFA_XSP16, literal(-10)))
        CFI V1 load(1, XDATA, add(CFA_XSP16, literal(-9)))
        CFI V2 load(1, XDATA, add(CFA_XSP16, literal(-8)))
        CFI V3 load(1, XDATA, add(CFA_XSP16, literal(-7)))
        CFI R7 load(1, XDATA, add(CFA_XSP16, literal(-6)))
        CFI ?RET_LOW load(1, XDATA, add(CFA_XSP16, literal(-5)))
        CFI ?RET_HIGH load(1, XDATA, add(CFA_XSP16, literal(-4)))
        CFI ?BRET_EXT load(1, XDATA, add(CFA_XSP16, literal(-3)))
        CFI DPL0 load(1, XDATA, add(CFA_XSP16, literal(-2)))
        CFI DPH0 load(1, XDATA, add(CFA_XSP16, literal(-1)))
        CFI CFA_SP SP+0
        CFI CFA_XSP16 add(XSP16, 12)
        CFI Block cfiCond191 Using cfiCommon0
        CFI (cfiCond191) NoFunction
        CFI (cfiCond191) Conditional ??CrossCallReturnLabel_10
        CFI (cfiCond191) R6 load(1, XDATA, add(CFA_XSP16, literal(-12)))
        CFI (cfiCond191) VB load(1, XDATA, add(CFA_XSP16, literal(-11)))
        CFI (cfiCond191) V0 load(1, XDATA, add(CFA_XSP16, literal(-10)))
        CFI (cfiCond191) V1 load(1, XDATA, add(CFA_XSP16, literal(-9)))
        CFI (cfiCond191) V2 load(1, XDATA, add(CFA_XSP16, literal(-8)))
        CFI (cfiCond191) V3 load(1, XDATA, add(CFA_XSP16, literal(-7)))
        CFI (cfiCond191) R7 load(1, XDATA, add(CFA_XSP16, literal(-6)))
        CFI (cfiCond191) ?RET_LOW load(1, XDATA, add(CFA_XSP16, literal(-5)))
        CFI (cfiCond191) ?RET_HIGH load(1, XDATA, add(CFA_XSP16, literal(-4)))
        CFI (cfiCond191) ?BRET_EXT load(1, XDATA, add(CFA_XSP16, literal(-3)))
        CFI (cfiCond191) DPL0 load(1, XDATA, add(CFA_XSP16, literal(-2)))
        CFI (cfiCond191) DPH0 load(1, XDATA, add(CFA_XSP16, literal(-1)))
        CFI (cfiCond191) CFA_SP SP+0
        CFI (cfiCond191) CFA_XSP16 add(XSP16, 12)
        CFI Block cfiPicker192 Using cfiCommon1
        CFI (cfiPicker192) NoFunction
        CFI (cfiPicker192) Picker
        LCALL   ?Subroutine27 & 0xFFFF
??CrossCallReturnLabel_38:
        RET
        CFI EndBlock cfiCond190
        CFI EndBlock cfiCond191
        CFI EndBlock cfiPicker192

        RSEG BANKED_CODE:CODE:NOROOT(0)
?Subroutine27:
        CFI Block cfiCond193 Using cfiCommon0
        CFI NoFunction
        CFI Conditional ??CrossCallReturnLabel_38, ??CrossCallReturnLabel_9
        CFI R6 load(1, XDATA, add(CFA_XSP16, literal(-12)))
        CFI VB load(1, XDATA, add(CFA_XSP16, literal(-11)))
        CFI V0 load(1, XDATA, add(CFA_XSP16, literal(-10)))
        CFI V1 load(1, XDATA, add(CFA_XSP16, literal(-9)))
        CFI V2 load(1, XDATA, add(CFA_XSP16, literal(-8)))
        CFI V3 load(1, XDATA, add(CFA_XSP16, literal(-7)))
        CFI R7 load(1, XDATA, add(CFA_XSP16, literal(-6)))
        CFI ?RET_LOW load(1, XDATA, add(CFA_XSP16, literal(-5)))
        CFI ?RET_HIGH load(1, XDATA, add(CFA_XSP16, literal(-4)))
        CFI ?BRET_EXT load(1, XDATA, add(CFA_XSP16, literal(-3)))
        CFI DPL0 load(1, XDATA, add(CFA_XSP16, literal(-2)))
        CFI DPH0 load(1, XDATA, add(CFA_XSP16, literal(-1)))
        CFI CFA_SP SP+0
        CFI CFA_XSP16 add(XSP16, 12)
        CFI Block cfiCond194 Using cfiCommon0
        CFI (cfiCond194) NoFunction
        CFI (cfiCond194) Conditional ??CrossCallReturnLabel_38, ??CrossCallReturnLabel_10
        CFI (cfiCond194) R6 load(1, XDATA, add(CFA_XSP16, literal(-12)))
        CFI (cfiCond194) VB load(1, XDATA, add(CFA_XSP16, literal(-11)))
        CFI (cfiCond194) V0 load(1, XDATA, add(CFA_XSP16, literal(-10)))
        CFI (cfiCond194) V1 load(1, XDATA, add(CFA_XSP16, literal(-9)))
        CFI (cfiCond194) V2 load(1, XDATA, add(CFA_XSP16, literal(-8)))
        CFI (cfiCond194) V3 load(1, XDATA, add(CFA_XSP16, literal(-7)))
        CFI (cfiCond194) R7 load(1, XDATA, add(CFA_XSP16, literal(-6)))
        CFI (cfiCond194) ?RET_LOW load(1, XDATA, add(CFA_XSP16, literal(-5)))
        CFI (cfiCond194) ?RET_HIGH load(1, XDATA, add(CFA_XSP16, literal(-4)))
        CFI (cfiCond194) ?BRET_EXT load(1, XDATA, add(CFA_XSP16, literal(-3)))
        CFI (cfiCond194) DPL0 load(1, XDATA, add(CFA_XSP16, literal(-2)))
        CFI (cfiCond194) DPH0 load(1, XDATA, add(CFA_XSP16, literal(-1)))
        CFI (cfiCond194) CFA_SP SP+0
        CFI (cfiCond194) CFA_XSP16 add(XSP16, 12)
        CFI Block cfiCond195 Using cfiCommon0
        CFI (cfiCond195) NoFunction
        CFI (cfiCond195) Conditional ??CrossCallReturnLabel_39, ??CrossCallReturnLabel_7
        CFI (cfiCond195) R6 load(1, XDATA, add(CFA_XSP16, literal(-12)))
        CFI (cfiCond195) VB load(1, XDATA, add(CFA_XSP16, literal(-11)))
        CFI (cfiCond195) V0 load(1, XDATA, add(CFA_XSP16, literal(-10)))
        CFI (cfiCond195) V1 load(1, XDATA, add(CFA_XSP16, literal(-9)))
        CFI (cfiCond195) V2 load(1, XDATA, add(CFA_XSP16, literal(-8)))
        CFI (cfiCond195) V3 load(1, XDATA, add(CFA_XSP16, literal(-7)))
        CFI (cfiCond195) R7 load(1, XDATA, add(CFA_XSP16, literal(-6)))
        CFI (cfiCond195) ?RET_LOW load(1, XDATA, add(CFA_XSP16, literal(-5)))
        CFI (cfiCond195) ?RET_HIGH load(1, XDATA, add(CFA_XSP16, literal(-4)))
        CFI (cfiCond195) ?BRET_EXT load(1, XDATA, add(CFA_XSP16, literal(-3)))
        CFI (cfiCond195) DPL0 load(1, XDATA, add(CFA_XSP16, literal(-2)))
        CFI (cfiCond195) DPH0 load(1, XDATA, add(CFA_XSP16, literal(-1)))
        CFI (cfiCond195) CFA_SP SP+0
        CFI (cfiCond195) CFA_XSP16 add(XSP16, 12)
        CFI Block cfiCond196 Using cfiCommon0
        CFI (cfiCond196) NoFunction
        CFI (cfiCond196) Conditional ??CrossCallReturnLabel_39, ??CrossCallReturnLabel_8
        CFI (cfiCond196) R6 load(1, XDATA, add(CFA_XSP16, literal(-12)))
        CFI (cfiCond196) VB load(1, XDATA, add(CFA_XSP16, literal(-11)))
        CFI (cfiCond196) V0 load(1, XDATA, add(CFA_XSP16, literal(-10)))
        CFI (cfiCond196) V1 load(1, XDATA, add(CFA_XSP16, literal(-9)))
        CFI (cfiCond196) V2 load(1, XDATA, add(CFA_XSP16, literal(-8)))
        CFI (cfiCond196) V3 load(1, XDATA, add(CFA_XSP16, literal(-7)))
        CFI (cfiCond196) R7 load(1, XDATA, add(CFA_XSP16, literal(-6)))
        CFI (cfiCond196) ?RET_LOW load(1, XDATA, add(CFA_XSP16, literal(-5)))
        CFI (cfiCond196) ?RET_HIGH load(1, XDATA, add(CFA_XSP16, literal(-4)))
        CFI (cfiCond196) ?BRET_EXT load(1, XDATA, add(CFA_XSP16, literal(-3)))
        CFI (cfiCond196) DPL0 load(1, XDATA, add(CFA_XSP16, literal(-2)))
        CFI (cfiCond196) DPH0 load(1, XDATA, add(CFA_XSP16, literal(-1)))
        CFI (cfiCond196) CFA_SP SP+0
        CFI (cfiCond196) CFA_XSP16 add(XSP16, 12)
        CFI Block cfiPicker197 Using cfiCommon1
        CFI (cfiPicker197) NoFunction
        CFI (cfiPicker197) Picker
        LCALL   ?Subroutine35 & 0xFFFF
??CrossCallReturnLabel_71:
        MOV     DPL,R4
        MOV     DPH,R5
        INC     DPTR
        INC     DPTR
        INC     DPTR
        INC     DPTR
        INC     DPTR
        INC     DPTR
        INC     DPTR
        RET
        CFI EndBlock cfiCond193
        CFI EndBlock cfiCond194
        CFI EndBlock cfiCond195
        CFI EndBlock cfiCond196
        CFI EndBlock cfiPicker197

        RSEG BANKED_CODE:CODE:NOROOT(0)
?Subroutine8:
        CFI Block cfiCond198 Using cfiCommon0
        CFI NoFunction
        CFI Conditional ??CrossCallReturnLabel_7
        CFI R6 load(1, XDATA, add(CFA_XSP16, literal(-12)))
        CFI VB load(1, XDATA, add(CFA_XSP16, literal(-11)))
        CFI V0 load(1, XDATA, add(CFA_XSP16, literal(-10)))
        CFI V1 load(1, XDATA, add(CFA_XSP16, literal(-9)))
        CFI V2 load(1, XDATA, add(CFA_XSP16, literal(-8)))
        CFI V3 load(1, XDATA, add(CFA_XSP16, literal(-7)))
        CFI R7 load(1, XDATA, add(CFA_XSP16, literal(-6)))
        CFI ?RET_LOW load(1, XDATA, add(CFA_XSP16, literal(-5)))
        CFI ?RET_HIGH load(1, XDATA, add(CFA_XSP16, literal(-4)))
        CFI ?BRET_EXT load(1, XDATA, add(CFA_XSP16, literal(-3)))
        CFI DPL0 load(1, XDATA, add(CFA_XSP16, literal(-2)))
        CFI DPH0 load(1, XDATA, add(CFA_XSP16, literal(-1)))
        CFI CFA_SP SP+0
        CFI CFA_XSP16 add(XSP16, 12)
        CFI Block cfiCond199 Using cfiCommon0
        CFI (cfiCond199) NoFunction
        CFI (cfiCond199) Conditional ??CrossCallReturnLabel_8
        CFI (cfiCond199) R6 load(1, XDATA, add(CFA_XSP16, literal(-12)))
        CFI (cfiCond199) VB load(1, XDATA, add(CFA_XSP16, literal(-11)))
        CFI (cfiCond199) V0 load(1, XDATA, add(CFA_XSP16, literal(-10)))
        CFI (cfiCond199) V1 load(1, XDATA, add(CFA_XSP16, literal(-9)))
        CFI (cfiCond199) V2 load(1, XDATA, add(CFA_XSP16, literal(-8)))
        CFI (cfiCond199) V3 load(1, XDATA, add(CFA_XSP16, literal(-7)))
        CFI (cfiCond199) R7 load(1, XDATA, add(CFA_XSP16, literal(-6)))
        CFI (cfiCond199) ?RET_LOW load(1, XDATA, add(CFA_XSP16, literal(-5)))
        CFI (cfiCond199) ?RET_HIGH load(1, XDATA, add(CFA_XSP16, literal(-4)))
        CFI (cfiCond199) ?BRET_EXT load(1, XDATA, add(CFA_XSP16, literal(-3)))
        CFI (cfiCond199) DPL0 load(1, XDATA, add(CFA_XSP16, literal(-2)))
        CFI (cfiCond199) DPH0 load(1, XDATA, add(CFA_XSP16, literal(-1)))
        CFI (cfiCond199) CFA_SP SP+0
        CFI (cfiCond199) CFA_XSP16 add(XSP16, 12)
        CFI Block cfiPicker200 Using cfiCommon1
        CFI (cfiPicker200) NoFunction
        CFI (cfiPicker200) Picker
        LCALL   ?Subroutine27 & 0xFFFF
??CrossCallReturnLabel_39:
        INC     DPTR
        INC     DPTR
        RET
        CFI EndBlock cfiCond198
        CFI EndBlock cfiCond199
        CFI EndBlock cfiPicker200

        RSEG XDATA_ROM_C:CONST:REORDER:NOROOT(0)
        DATA32
__Constant_ffffffff:
        DD 4294967295

        RSEG XDATA_ROM_C:CONST:REORDER:NOROOT(0)
        DATA32
__Constant_0:
        DD 0

        RSEG XDATA_ROM_C:CONST:REORDER:NOROOT(0)
        DATA32
__Constant_3e8:
        DD 1000

        RSEG BANK_RELAYS:CODE:REORDER:NOROOT(0)
??MT_UtilCommandProcessing?relay:
        LCALL   ?BDISPATCH
        DATA
        DC24    MT_UtilCommandProcessing

        RSEG BANK_RELAYS:CODE:REORDER:NOROOT(0)
??MT_UtilGetDeviceInfo?relay:
        LCALL   ?BDISPATCH
        DATA
        DC24    MT_UtilGetDeviceInfo

        RSEG BANK_RELAYS:CODE:REORDER:NOROOT(0)
??MT_UtilGetNvInfo?relay:
        LCALL   ?BDISPATCH
        DATA
        DC24    MT_UtilGetNvInfo

        RSEG BANK_RELAYS:CODE:REORDER:NOROOT(0)
??MT_UtilSetPanID?relay:
        LCALL   ?BDISPATCH
        DATA
        DC24    MT_UtilSetPanID

        RSEG BANK_RELAYS:CODE:REORDER:NOROOT(0)
??MT_UtilSetChannels?relay:
        LCALL   ?BDISPATCH
        DATA
        DC24    MT_UtilSetChannels

        RSEG BANK_RELAYS:CODE:REORDER:NOROOT(0)
??MT_UtilSetSecLevel?relay:
        LCALL   ?BDISPATCH
        DATA
        DC24    MT_UtilSetSecLevel

        RSEG BANK_RELAYS:CODE:REORDER:NOROOT(0)
??MT_UtilSetPreCfgKey?relay:
        LCALL   ?BDISPATCH
        DATA
        DC24    MT_UtilSetPreCfgKey

        RSEG BANK_RELAYS:CODE:REORDER:NOROOT(0)
??MT_UtilCallbackSub?relay:
        LCALL   ?BDISPATCH
        DATA
        DC24    MT_UtilCallbackSub

        RSEG BANK_RELAYS:CODE:REORDER:NOROOT(0)
??MT_UtilKeyEvent?relay:
        LCALL   ?BDISPATCH
        DATA
        DC24    MT_UtilKeyEvent

        RSEG BANK_RELAYS:CODE:REORDER:NOROOT(0)
??MT_UtilTimeAlive?relay:
        LCALL   ?BDISPATCH
        DATA
        DC24    MT_UtilTimeAlive

        RSEG BANK_RELAYS:CODE:REORDER:NOROOT(0)
??MT_UtilLedControl?relay:
        LCALL   ?BDISPATCH
        DATA
        DC24    MT_UtilLedControl

        RSEG BANK_RELAYS:CODE:REORDER:NOROOT(0)
??MT_UtilSrcMatchEnable?relay:
        LCALL   ?BDISPATCH
        DATA
        DC24    MT_UtilSrcMatchEnable

        RSEG BANK_RELAYS:CODE:REORDER:NOROOT(0)
??MT_UtilSrcMatchAddEntry?relay:
        LCALL   ?BDISPATCH
        DATA
        DC24    MT_UtilSrcMatchAddEntry

        RSEG BANK_RELAYS:CODE:REORDER:NOROOT(0)
??MT_UtilSrcMatchDeleteEntry?relay:
        LCALL   ?BDISPATCH
        DATA
        DC24    MT_UtilSrcMatchDeleteEntry

        RSEG BANK_RELAYS:CODE:REORDER:NOROOT(0)
??MT_UtilSrcMatchCheckSrcAddr?relay:
        LCALL   ?BDISPATCH
        DATA
        DC24    MT_UtilSrcMatchCheckSrcAddr

        RSEG BANK_RELAYS:CODE:REORDER:NOROOT(0)
??MT_UtilSrcMatchAckAllPending?relay:
        LCALL   ?BDISPATCH
        DATA
        DC24    MT_UtilSrcMatchAckAllPending

        RSEG BANK_RELAYS:CODE:REORDER:NOROOT(0)
??MT_UtilSrcMatchCheckAllPending?relay:
        LCALL   ?BDISPATCH
        DATA
        DC24    MT_UtilSrcMatchCheckAllPending

        RSEG BANK_RELAYS:CODE:REORDER:NOROOT(0)
??MT_UtilDataReq?relay:
        LCALL   ?BDISPATCH
        DATA
        DC24    MT_UtilDataReq

        RSEG BANK_RELAYS:CODE:REORDER:NOROOT(0)
??MT_UtilAddrMgrEntryLookupExt?relay:
        LCALL   ?BDISPATCH
        DATA
        DC24    MT_UtilAddrMgrEntryLookupExt

        RSEG BANK_RELAYS:CODE:REORDER:NOROOT(0)
??MT_UtilAssocFindDevice?relay:
        LCALL   ?BDISPATCH
        DATA
        DC24    MT_UtilAssocFindDevice

        RSEG BANK_RELAYS:CODE:REORDER:NOROOT(0)
??MT_UtilAssocGetWithAddress?relay:
        LCALL   ?BDISPATCH
        DATA
        DC24    MT_UtilAssocGetWithAddress

        RSEG BANK_RELAYS:CODE:REORDER:NOROOT(0)
??packDev_t?relay:
        LCALL   ?BDISPATCH
        DATA
        DC24    packDev_t

        END
// 1390 
// 1391 #if defined ZCL_KEY_ESTABLISH
// 1392 /***************************************************************************************************
// 1393  * @fn      MT_UtilzclGeneral_KeyEstablish_InitiateKeyEstablishment
// 1394  *
// 1395  * @brief   Proxy the zclGeneral_KeyEstablish_InitiateKeyEstablishment() function.
// 1396  *
// 1397  * @param   pBuf - pointer to the received buffer
// 1398  *
// 1399  * @return  void
// 1400  ***************************************************************************************************/
// 1401 static void MT_UtilzclGeneral_KeyEstablish_InitiateKeyEstablishment(uint8 *pBuf)
// 1402 {
// 1403   afAddrType_t partnerAddr;
// 1404   uint8 cmdId = pBuf[MT_RPC_POS_CMD1];
// 1405   pBuf += MT_RPC_FRAME_HDR_SZ;
// 1406 
// 1407   partnerAddr.panId = 0;  // Not an inter-pan message.
// 1408   partnerAddr.endPoint = pBuf[2];
// 1409   partnerAddr.addrMode = (afAddrMode_t)pBuf[3];
// 1410   if (afAddr64Bit == partnerAddr.addrMode)
// 1411   {
// 1412     (void)osal_memcpy(partnerAddr.addr.extAddr, pBuf+4, Z_EXTADDR_LEN);
// 1413   }
// 1414   else
// 1415   {
// 1416     partnerAddr.addr.shortAddr = BUILD_UINT16(pBuf[4], pBuf[5]);
// 1417   }
// 1418 
// 1419   zcl_key_establish_task_id = pBuf[0];
// 1420   *pBuf = zclGeneral_KeyEstablish_InitiateKeyEstablishment(MT_TaskID, &partnerAddr, pBuf[1]);
// 1421   MT_BuildAndSendZToolResponse(((uint8)MT_RPC_CMD_SRSP | (uint8)MT_RPC_SYS_UTIL), cmdId, 1, pBuf);
// 1422 }
// 1423 
// 1424 /***************************************************************************************************
// 1425  * @fn      MT_UtilzclGeneral_KeyEstablishment_ECDSASign
// 1426  *
// 1427  * @brief   Proxy the zclGeneral_KeyEstablishment_ECDSASign() function.
// 1428  *
// 1429  * @param   pBuf - pointer to the received buffer
// 1430  *
// 1431  * @return  void
// 1432  ***************************************************************************************************/
// 1433 static void MT_UtilzclGeneral_KeyEstablishment_ECDSASign(uint8 *pBuf)
// 1434 {
// 1435 #if defined TC_LINKKEY_JOIN
// 1436   uint8 *output = osal_mem_alloc(SE_PROFILE_SIGNATURE_LENGTH+1);
// 1437   uint8 cmdId = pBuf[MT_RPC_POS_CMD1];
// 1438   pBuf += MT_RPC_FRAME_HDR_SZ;
// 1439 
// 1440   if (NULL == output)
// 1441   {
// 1442     *pBuf = FAILURE;
// 1443     MT_BuildAndSendZToolResponse(((uint8)MT_RPC_CMD_SRSP | (uint8)MT_RPC_SYS_UTIL), cmdId, 1, pBuf);
// 1444   }
// 1445   else
// 1446   {
// 1447     *output = zclGeneral_KeyEstablishment_ECDSASign(pBuf+1, *pBuf, output+1);
// 1448     MT_BuildAndSendZToolResponse(((uint8)MT_RPC_CMD_SRSP | (uint8)MT_RPC_SYS_UTIL), cmdId,
// 1449                                          SE_PROFILE_SIGNATURE_LENGTH+1, output);
// 1450     osal_mem_free(output);
// 1451   }
// 1452 #endif
// 1453 }
// 1454 
// 1455 /***************************************************************************************************
// 1456  * @fn      MT_UtilKeyEstablishInd
// 1457  *
// 1458  * @brief   Proxy the ZCL_KEY_ESTABLISH_IND command.
// 1459  *
// 1460  * @param   pInd - Pointer to a keyEstablishmentInd_t structure.
// 1461  *
// 1462  * @return  None
// 1463  ***************************************************************************************************/
// 1464 void MT_UtilKeyEstablishInd(keyEstablishmentInd_t *pInd)
// 1465 {
// 1466   uint8 msg[6];
// 1467 
// 1468   msg[0] = zcl_key_establish_task_id;
// 1469   msg[1] = pInd->hdr.event;
// 1470   msg[2] = pInd->hdr.status;
// 1471   msg[3] = pInd->waitTime;
// 1472   msg[4] = LO_UINT16(pInd->keyEstablishmentSuite);
// 1473   msg[5] = HI_UINT16(pInd->keyEstablishmentSuite);
// 1474 
// 1475   MT_BuildAndSendZToolResponse(((uint8)MT_RPC_CMD_AREQ | (uint8)MT_RPC_SYS_UTIL),
// 1476                                        MT_UTIL_ZCL_KEY_ESTABLISH_IND, 6, msg);
// 1477 }
// 1478 #endif
// 1479 
// 1480 /***************************************************************************************************
// 1481  * @fn      MT_UtilSync
// 1482  *
// 1483  * @brief   Process the MT_UTIL_SYNC command
// 1484  *
// 1485  * @param   None
// 1486  *
// 1487  * @return  None
// 1488  ***************************************************************************************************/
// 1489 static void MT_UtilSync(void)
// 1490 {
// 1491  MT_BuildAndSendZToolResponse(((uint8)MT_RPC_CMD_AREQ|(uint8)MT_RPC_SYS_UTIL),MT_UTIL_SYNC_REQ,0,0);
// 1492 }
// 1493 #endif /* !defined NONWK */
// 1494 #endif /* MT_UTIL_FUNC */
// 1495 /**************************************************************************************************
// 1496  **************************************************************************************************/
// 
// 3 101 bytes in segment BANKED_CODE
//   132 bytes in segment BANK_RELAYS
//    12 bytes in segment XDATA_ROM_C
// 
// 3 233 bytes of CODE  memory
//     0 bytes of CONST memory (+ 12 bytes shared)
//
//Errors: none
//Warnings: none
