###############################################################################
#                                                                             #
# IAR C/C++ Compiler V8.10.3.40338/W32 for 8051         25/Jan/2015  17:05:59 #
# Copyright 2004-2011 IAR Systems AB.                                         #
#                                                                             #
#    Core               =  plain                                              #
#    Code model         =  banked                                             #
#    Data model         =  large                                              #
#    Calling convention =  xdata reentrant                                    #
#    Constant location  =  data_rom                                           #
#    Dptr setup         =  1,16                                               #
#    Source file        =  C:\Texas Instruments\ZStack-CC2530-2.5.1a\Componen #
#                          ts\stack\zdo\ZDApp.c                               #
#    Command line       =  -f "C:\Texas Instruments\ZStack-CC2530-2.5.1a\Proj #
#                          ects\zstack\Samples\GenericApp\CC2531\..\..\..\Too #
#                          ls\CC2530DB\f8wRouter.cfg" (-DCPU32MHZ             #
#                          -DROOT=__near_func -DMAC_CFG_APP_PENDING_QUEUE=TRU #
#                          E -DMAC_CFG_TX_DATA_MAX=5 -DMAC_CFG_TX_MAX=8       #
#                          -DMAC_CFG_RX_MAX=5 -DRTR_NWK) -f "C:\Texas         #
#                          Instruments\ZStack-CC2530-2.5.1a\Projects\zstack\S #
#                          amples\GenericApp\CC2531\..\..\..\Tools\CC2530DB\f #
#                          8wConfig.cfg" (-DZIGBEEPRO -DSECURE=0              #
#                          -DZG_SECURE_DYNAMIC=0 -DREFLECTOR                  #
#                          -DDEFAULT_CHANLIST=0x00000800                      #
#                          -DZDAPP_CONFIG_PAN_ID=0xFFFF                       #
#                          -DNWK_START_DELAY=100 -DEXTENDED_JOINING_RANDOM_MA #
#                          SK=0x007F -DBEACON_REQUEST_DELAY=100               #
#                          -DBEACON_REQ_DELAY_MASK=0x00FF                     #
#                          -DLINK_STATUS_JITTER_MASK=0x007F                   #
#                          -DROUTE_EXPIRY_TIME=30 -DAPSC_ACK_WAIT_DURATION_PO #
#                          LLED=3000 -DNWK_INDIRECT_MSG_TIMEOUT=7             #
#                          -DMAX_RREQ_ENTRIES=8 -DAPSC_MAX_FRAME_RETRIES=3    #
#                          -DNWK_MAX_DATA_RETRIES=2                           #
#                          -DMAX_POLL_FAILURE_RETRIES=2 -DMAX_BCAST=9         #
#                          -DAPS_MAX_GROUPS=16 -DMAX_RTG_ENTRIES=40           #
#                          -DNWK_MAX_BINDING_ENTRIES=4                        #
#                          -DMAX_BINDING_CLUSTER_IDS=4 "-DDEFAULT_KEY={0x01,  #
#                          0x03, 0x05, 0x07, 0x09, 0x0B, 0x0D, 0x0F, 0x00,    #
#                          0x02, 0x04, 0x06, 0x08, 0x0A, 0x0C, 0x0D}"         #
#                          -DMAC_MAX_FRAME_SIZE=116                           #
#                          -DZDNWKMGR_MIN_TRANSMISSIONS=20 "-DCONST=const     #
#                          __code" -DGENERIC=__generic                        #
#                          -DRFD_RCVC_ALWAYS_ON=FALSE -DPOLL_RATE=1000        #
#                          -DQUEUED_POLL_RATE=100 -DRESPONSE_POLL_RATE=100)   #
#                          -DREJOIN_POLL_RATE=440 "C:\Texas                   #
#                          Instruments\ZStack-CC2530-2.5.1a\Components\stack\ #
#                          zdo\ZDApp.c" -D ZTOOL_P1 -D MT_TASK -D MT_AF_FUNC  #
#                          -D MT_AF_CB_FUNC -D MT_APP_FUNC -D MT_DEBUG_FUNC   #
#                          -D MT_NWK_FUNC -D MT_NWK_CB_FUNC -D MT_SYS_FUNC    #
#                          -D MT_SYS_FUNC -D MT_ZDO_FUNC -D MT_UTIL_FUNC -D   #
#                          MT_ZDO_CB_FUNC -D MT_ZDO_MGMT -D                   #
#                          LCD_SUPPORTED=FALSE -D HAL_LCD=FALSE -D            #
#                          HAL_LED=FALSE -D GUU_HAL_LED=TRUE -D NV_INIT -D    #
#                          NV_RESTORE -D xPOWER_SAVING -lC "C:\Texas          #
#                          Instruments\ZStack-CC2530-2.5.1a\Projects\zstack\S #
#                          amples\GenericApp\CC2531\Router\List\" -lA         #
#                          "C:\Texas Instruments\ZStack-CC2530-2.5.1a\Project #
#                          s\zstack\Samples\GenericApp\CC2531\Router\List\"   #
#                          --diag_suppress Pe001,Pa010 -o "C:\Texas           #
#                          Instruments\ZStack-CC2530-2.5.1a\Projects\zstack\S #
#                          amples\GenericApp\CC2531\Router\Obj\" -e           #
#                          --no_code_motion --debug --core=plain --dptr=16,1  #
#                          --data_model=large --code_model=banked             #
#                          --calling_convention=xdata_reentrant               #
#                          --place_constants=data_rom --nr_virtual_regs 16    #
#                          -I "C:\Texas Instruments\ZStack-CC2530-2.5.1a\Proj #
#                          ects\zstack\Samples\GenericApp\CC2531\" -I         #
#                          "C:\Texas Instruments\ZStack-CC2530-2.5.1a\Project #
#                          s\zstack\Samples\GenericApp\CC2531\..\Source\" -I  #
#                          "C:\Texas Instruments\ZStack-CC2530-2.5.1a\Project #
#                          s\zstack\Samples\GenericApp\CC2531\..\..\..\ZMain\ #
#                          TI2530DB\" -I "C:\Texas Instruments\ZStack-CC2530- #
#                          2.5.1a\Projects\zstack\Samples\GenericApp\CC2531\. #
#                          .\..\..\..\..\Components\hal\include\" -I          #
#                          "C:\Texas Instruments\ZStack-CC2530-2.5.1a\Project #
#                          s\zstack\Samples\GenericApp\CC2531\..\..\..\..\..\ #
#                          Components\hal\target\CC2530USB\" -I "C:\Texas     #
#                          Instruments\ZStack-CC2530-2.5.1a\Projects\zstack\S #
#                          amples\GenericApp\CC2531\..\..\..\..\..\Components #
#                          \hal\target\CC2530USB\usb\library\" -I "C:\Texas   #
#                          Instruments\ZStack-CC2530-2.5.1a\Projects\zstack\S #
#                          amples\GenericApp\CC2531\..\..\..\..\..\Components #
#                          \hal\target\CC2530USB\usb\library\cc2531\" -I      #
#                          "C:\Texas Instruments\ZStack-CC2530-2.5.1a\Project #
#                          s\zstack\Samples\GenericApp\CC2531\..\..\..\..\..\ #
#                          Components\hal\target\CC2530USB\usb\class_cdc\"    #
#                          -I "C:\Texas Instruments\ZStack-CC2530-2.5.1a\Proj #
#                          ects\zstack\Samples\GenericApp\CC2531\..\..\..\..\ #
#                          ..\Components\mac\include\" -I "C:\Texas           #
#                          Instruments\ZStack-CC2530-2.5.1a\Projects\zstack\S #
#                          amples\GenericApp\CC2531\..\..\..\..\..\Components #
#                          \mac\high_level\" -I "C:\Texas                     #
#                          Instruments\ZStack-CC2530-2.5.1a\Projects\zstack\S #
#                          amples\GenericApp\CC2531\..\..\..\..\..\Components #
#                          \mac\low_level\srf04\" -I "C:\Texas                #
#                          Instruments\ZStack-CC2530-2.5.1a\Projects\zstack\S #
#                          amples\GenericApp\CC2531\..\..\..\..\..\Components #
#                          \mac\low_level\srf04\single_chip\" -I "C:\Texas    #
#                          Instruments\ZStack-CC2530-2.5.1a\Projects\zstack\S #
#                          amples\GenericApp\CC2531\..\..\..\..\..\Components #
#                          \mt\" -I "C:\Texas Instruments\ZStack-CC2530-2.5.1 #
#                          a\Projects\zstack\Samples\GenericApp\CC2531\..\..\ #
#                          ..\..\..\Components\osal\include\" -I "C:\Texas    #
#                          Instruments\ZStack-CC2530-2.5.1a\Projects\zstack\S #
#                          amples\GenericApp\CC2531\..\..\..\..\..\Components #
#                          \services\saddr\" -I "C:\Texas                     #
#                          Instruments\ZStack-CC2530-2.5.1a\Projects\zstack\S #
#                          amples\GenericApp\CC2531\..\..\..\..\..\Components #
#                          \services\sdata\" -I "C:\Texas                     #
#                          Instruments\ZStack-CC2530-2.5.1a\Projects\zstack\S #
#                          amples\GenericApp\CC2531\..\..\..\..\..\Components #
#                          \stack\af\" -I "C:\Texas                           #
#                          Instruments\ZStack-CC2530-2.5.1a\Projects\zstack\S #
#                          amples\GenericApp\CC2531\..\..\..\..\..\Components #
#                          \stack\nwk\" -I "C:\Texas                          #
#                          Instruments\ZStack-CC2530-2.5.1a\Projects\zstack\S #
#                          amples\GenericApp\CC2531\..\..\..\..\..\Components #
#                          \stack\sapi\" -I "C:\Texas                         #
#                          Instruments\ZStack-CC2530-2.5.1a\Projects\zstack\S #
#                          amples\GenericApp\CC2531\..\..\..\..\..\Components #
#                          \stack\sec\" -I "C:\Texas                          #
#                          Instruments\ZStack-CC2530-2.5.1a\Projects\zstack\S #
#                          amples\GenericApp\CC2531\..\..\..\..\..\Components #
#                          \stack\sys\" -I "C:\Texas                          #
#                          Instruments\ZStack-CC2530-2.5.1a\Projects\zstack\S #
#                          amples\GenericApp\CC2531\..\..\..\..\..\Components #
#                          \stack\zdo\" -I "C:\Texas                          #
#                          Instruments\ZStack-CC2530-2.5.1a\Projects\zstack\S #
#                          amples\GenericApp\CC2531\..\..\..\..\..\Components #
#                          \zmac\" -I "C:\Texas Instruments\ZStack-CC2530-2.5 #
#                          .1a\Projects\zstack\Samples\GenericApp\CC2531\..\. #
#                          .\..\..\..\Components\zmac\f8w\" -I "C:\Texas      #
#                          Instruments\ZStack-CC2530-2.5.1a\Projects\zstack\S #
#                          amples\GenericApp\CC2531\..\..\weikong\Source\"    #
#                          -Ohz --require_prototypes                          #
#    List file          =  C:\Texas Instruments\ZStack-CC2530-2.5.1a\Projects #
#                          \zstack\Samples\GenericApp\CC2531\Router\List\ZDAp #
#                          p.lst                                              #
#    Object file        =  C:\Texas Instruments\ZStack-CC2530-2.5.1a\Projects #
#                          \zstack\Samples\GenericApp\CC2531\Router\Obj\ZDApp #
#                          .r51                                               #
#                                                                             #
#                                                                             #
###############################################################################

C:\Texas Instruments\ZStack-CC2530-2.5.1a\Components\stack\zdo\ZDApp.c
      1          /**************************************************************************************************
      2            Filename:       ZDApp.c
      3            Revised:        $Date: 2012-02-16 16:04:32 -0800 (Thu, 16 Feb 2012) $
      4            Revision:       $Revision: 29348 $
      5          
      6            Description:    This file contains the interface to the Zigbee Device Application. This is the
      7                            Application part that the user can change. This also contains the Task functions.
      8          
      9          
     10            Copyright 2004-2012 Texas Instruments Incorporated. All rights reserved.
     11          
     12            IMPORTANT: Your use of this Software is limited to those specific rights
     13            granted under the terms of a software license agreement between the user
     14            who downloaded the software, his/her employer (which must be your employer)
     15            and Texas Instruments Incorporated (the "License").  You may not use this
     16            Software unless you agree to abide by the terms of the License. The License
     17            limits your use, and you acknowledge, that the Software may not be modified,
     18            copied or distributed unless embedded on a Texas Instruments microcontroller
     19            or used solely and exclusively in conjunction with a Texas Instruments radio
     20            frequency transceiver, which is integrated into your product.  Other than for
     21            the foregoing purpose, you may not use, reproduce, copy, prepare derivative
     22            works of, modify, distribute, perform, display or sell this Software and/or
     23            its documentation for any purpose.
     24          
     25            YOU FURTHER ACKNOWLEDGE AND AGREE THAT THE SOFTWARE AND DOCUMENTATION ARE
     26            PROVIDED AS IS?WITHOUT WARRANTY OF ANY KIND, EITHER EXPRESS OR IMPLIED,
     27            INCLUDING WITHOUT LIMITATION, ANY WARRANTY OF MERCHANTABILITY, TITLE,
     28            NON-INFRINGEMENT AND FITNESS FOR A PARTICULAR PURPOSE. IN NO EVENT SHALL
     29            TEXAS INSTRUMENTS OR ITS LICENSORS BE LIABLE OR OBLIGATED UNDER CONTRACT,
     30            NEGLIGENCE, STRICT LIABILITY, CONTRIBUTION, BREACH OF WARRANTY, OR OTHER
     31            LEGAL EQUITABLE THEORY ANY DIRECT OR INDIRECT DAMAGES OR EXPENSES
     32            INCLUDING BUT NOT LIMITED TO ANY INCIDENTAL, SPECIAL, INDIRECT, PUNITIVE
     33            OR CONSEQUENTIAL DAMAGES, LOST PROFITS OR LOST DATA, COST OF PROCUREMENT
     34            OF SUBSTITUTE GOODS, TECHNOLOGY, SERVICES, OR ANY CLAIMS BY THIRD PARTIES
     35            (INCLUDING BUT NOT LIMITED TO ANY DEFENSE THEREOF), OR OTHER SIMILAR COSTS.
     36          
     37            Should you have any questions regarding your right to use this Software,
     38            contact Texas Instruments Incorporated at www.TI.com.
     39          **************************************************************************************************/
     40          
     41          /*********************************************************************
     42           * INCLUDES
     43           */
     44          
     45          #include "ZComDef.h"
     46          #include "ZMac.h"
     47          #include "OSAL.h"
     48          #include "OSAL_Tasks.h"
     49          #include "OSAL_PwrMgr.h"
     50          #include "OSAL_Nv.h"
     51          #include "AF.h"
     52          #include "APSMEDE.h"
     53          #include "NLMEDE.h"
     54          #include "AddrMgr.h"
     55          #include "ZDProfile.h"
     56          #include "ZDObject.h"
     57          #include "ZDConfig.h"
     58          #include "ZDSecMgr.h"
     59          #include "ZDApp.h"
     60          #include "DebugTrace.h"
     61          #include "nwk_util.h"
     62          #include "OnBoard.h"
     63          #include "ZGlobals.h"
     64          #include "ZDNwkMgr.h"
     65          #include "rtg.h"
     66          
     67          #include "ssp.h"
     68          
     69          /* HAL */
     70          #include "hal_led.h"
     71          #include "hal_lcd.h"
     72          #include "hal_key.h"
     73          
     74          #if defined( MT_MAC_FUNC ) || defined( MT_MAC_CB_FUNC )
     75            #error "ERROR! MT_MAC functionalities should be disabled on ZDO devices"
     76          #endif
     77          
     78          /*********************************************************************
     79           * CONSTANTS
     80           */
     81          
     82          #if !defined( NWK_START_DELAY )
     83            #define NWK_START_DELAY             100   // in milliseconds
     84          #endif
     85          
     86          #if !defined( LEAVE_RESET_DELAY )
     87            #define LEAVE_RESET_DELAY           5000  // in milliseconds
     88          #endif
     89          
     90          // Init ZDO, but hold and wait for application to start the joining or
     91          // forming network
     92          #define ZDO_INIT_HOLD_NWK_START       0xFFFF
     93          
     94          #if !defined( EXTENDED_JOINING_RANDOM_MASK )
     95            #define EXTENDED_JOINING_RANDOM_MASK 0x007F
     96          #endif
     97          
     98          #if !defined( BEACON_REQUEST_DELAY )
     99            #define BEACON_REQUEST_DELAY        100   // in milliseconds
    100          #endif
    101          
    102          #if !defined( BEACON_REQ_DELAY_MASK )
    103            #define BEACON_REQ_DELAY_MASK       0x007F
    104          #endif
    105          
    106          #define MAX_RESUME_RETRY            3
    107          
    108          #define MAX_DEVICE_UNAUTH_TIMEOUT   5000  // 5 seconds
    109          
    110          // Beacon Order Settings (see NLMEDE.h)
    111          #define DEFAULT_BEACON_ORDER        BEACON_ORDER_NO_BEACONS
    112          #define DEFAULT_SUPERFRAME_ORDER    DEFAULT_BEACON_ORDER
    113          
    114          #if !defined( MAX_NWK_FRAMECOUNTER_CHANGES )
    115            // The number of times the frame counter can change before
    116            // saving to NV
    117            #define MAX_NWK_FRAMECOUNTER_CHANGES    1000
    118          #endif
    119          
    120          // Leave control bits
    121          #define ZDAPP_LEAVE_CTRL_INIT 0
    122          #define ZDAPP_LEAVE_CTRL_SET  1
    123          #define ZDAPP_LEAVE_CTRL_RA   2
    124          
    125          // Address Manager Stub Implementation
    126          #define ZDApp_NwkWriteNVRequest AddrMgrWriteNVRequest
    127          
    128          
    129          #if !defined ZDO_NV_SAVE_RFDs
    130          #define ZDO_NV_SAVE_RFDs  TRUE
    131          #endif
    132          
    133          // Delay time before updating NWK NV data to force fewer writes during high activity.
    134          #if ZDO_NV_SAVE_RFDs
    135          #define ZDAPP_UPDATE_NWK_NV_TIME 700
    136          #else
    137          #define ZDAPP_UPDATE_NWK_NV_TIME 65000
    138          #endif
    139          
    140          /*********************************************************************
    141           * GLOBAL VARIABLES
    142           */
    143          
    144          #if defined( LCD_SUPPORTED )

   \                                 In  segment XDATA_Z, align 1, keep-with-next
    145            uint8 MatchRsps = 0;
   \                     MatchRsps:
   \   000000                DS 1
   \   000001                REQUIRE __INIT_XDATA_Z
    146          #endif
    147          

   \                                 In  segment XDATA_I, align 1, keep-with-next
    148          uint8 zdoDiscCounter = 1;
   \                     zdoDiscCounter:
   \   000000                DS 1
   \   000001                REQUIRE `?<Initializer for zdoDiscCounter>`
   \   000001                REQUIRE __INIT_XDATA_I
    149          

   \                                 In  segment XDATA_Z, align 1, keep-with-next
    150          zAddrType_t ZDAppNwkAddr;
   \                     ZDAppNwkAddr:
   \   000000                DS 9
   \   000009                REQUIRE __INIT_XDATA_Z
    151          

   \                                 In  segment XDATA_Z, align 1, keep-with-next
    152          uint8 zdappMgmtNwkDiscRspTransSeq;
   \                     zdappMgmtNwkDiscRspTransSeq:
   \   000000                DS 1
   \   000001                REQUIRE __INIT_XDATA_Z

   \                                 In  segment XDATA_Z, align 1, keep-with-next
    153          uint8 zdappMgmtNwkDiscReqInProgress = FALSE;
   \                     zdappMgmtNwkDiscReqInProgress:
   \   000000                DS 1
   \   000001                REQUIRE __INIT_XDATA_Z

   \                                 In  segment XDATA_Z, align 1, keep-with-next
    154          zAddrType_t zdappMgmtNwkDiscRspAddr;
   \                     zdappMgmtNwkDiscRspAddr:
   \   000000                DS 9
   \   000009                REQUIRE __INIT_XDATA_Z

   \                                 In  segment XDATA_Z, align 1, keep-with-next
    155          uint8 zdappMgmtNwkDiscStartIndex;
   \                     zdappMgmtNwkDiscStartIndex:
   \   000000                DS 1
   \   000001                REQUIRE __INIT_XDATA_Z

   \                                 In  segment XDATA_Z, align 1, keep-with-next
    156          uint8 zdappMgmtSavedNwkState;
   \                     zdappMgmtSavedNwkState:
   \   000000                DS 1
   \   000001                REQUIRE __INIT_XDATA_Z
    157          

   \                                 In  segment XDATA_Z, align 1, keep-with-next
    158          uint16 nwkFrameCounterChanges = 0;
   \                     nwkFrameCounterChanges:
   \   000000                DS 2
   \   000002                REQUIRE __INIT_XDATA_Z

   \                                 In  segment XDATA_I, align 1, keep-with-next
    159          uint8 continueJoining = TRUE;
   \                     continueJoining:
   \   000000                DS 1
   \   000001                REQUIRE `?<Initializer for continueJoining>`
   \   000001                REQUIRE __INIT_XDATA_I
    160          

   \                                 In  segment XDATA_Z, align 1, keep-with-next
    161          uint8  _tmpRejoinState;
   \                     _tmpRejoinState:
   \   000000                DS 1
   \   000001                REQUIRE __INIT_XDATA_Z
    162          
    163          // The extended PanID used in ZDO layer for rejoin.

   \                                 In  segment XDATA_Z, align 1, keep-with-next
    164          uint8 ZDO_UseExtendedPANID[Z_EXTADDR_LEN];
   \                     ZDO_UseExtendedPANID:
   \   000000                DS 8
   \   000008                REQUIRE __INIT_XDATA_Z
    165          

   \                                 In  segment XDATA_Z, align 1, keep-with-next
    166          pfnZdoCb zdoCBFunc[MAX_ZDO_CB_FUNC];
   \                     zdoCBFunc:
   \   000000                DS 14
   \   00000E                REQUIRE __INIT_XDATA_Z
    167          
    168          /*********************************************************************
    169           * EXTERNAL VARIABLES
    170           */
    171          extern byte Guu_TaskID;
    172          /*********************************************************************
    173           * EXTERNAL FUNCTIONS
    174           */
    175          
    176          /*********************************************************************
    177           * LOCAL FUNCTIONS
    178           */
    179          
    180          void ZDApp_NetworkStartEvt( void );
    181          void ZDApp_DeviceAuthEvt( void );
    182          void ZDApp_SaveNetworkStateEvt( void );
    183          
    184          uint8 ZDApp_ReadNetworkRestoreState( void );
    185          uint8 ZDApp_RestoreNetworkState( void );
    186          void ZDAppDetermineDeviceType( void );
    187          void ZDApp_InitUserDesc( void );
    188          void ZDAppCheckForHoldKey( void );
    189          void ZDApp_ProcessOSALMsg( osal_event_hdr_t *msgPtr );
    190          void ZDApp_ProcessNetworkJoin( void );
    191          void ZDApp_SetCoordAddress( uint8 endPoint, uint8 dstEP );
    192          uint8 ZDApp_RestoreNwkKey( void );
    193          networkDesc_t* ZDApp_NwkDescListProcessing(void);
    194          
    195          void ZDApp_SecInit( uint8 state );
    196          UINT16 ZDApp_ProcessSecEvent( uint8 task_id, UINT16 events );
    197          void ZDApp_ProcessSecMsg( osal_event_hdr_t *msgPtr );
    198          
    199          void ZDApp_SendMsg( uint8 taskID, uint8 cmd, uint8 len, uint8 *buf );
    200          
    201          void ZDApp_ResetTimerStart( uint16 delay );
    202          void ZDApp_ResetTimerCancel( void );
    203          void ZDApp_LeaveCtrlInit( void );
    204          void ZDApp_LeaveCtrlSet( uint8 ra );
    205          uint8 ZDApp_LeaveCtrlBypass( void );
    206          void ZDApp_LeaveCtrlStartup( devStates_t* state, uint16* startDelay );
    207          void ZDApp_LeaveUpdate( uint16 nwkAddr, uint8* extAddr,
    208                                  uint8 removeChildren );
    209          void ZDApp_NodeProfileSync( uint8 stackProfile );
    210          void ZDApp_ProcessMsgCBs( zdoIncomingMsg_t *inMsg );
    211          void ZDApp_RegisterCBs( void );
    212          void ZDApp_InitZdoCBFunc(void);
    213          
    214          /*********************************************************************
    215           * LOCAL VARIABLES
    216           */
    217          

   \                                 In  segment XDATA_Z, align 1, keep-with-next
    218          uint8 ZDAppTaskID;
   \                     ZDAppTaskID:
   \   000000                DS 1
   \   000001                REQUIRE __INIT_XDATA_Z

   \                                 In  segment XDATA_Z, align 1, keep-with-next
    219          uint8 nwkStatus;
   \                     nwkStatus:
   \   000000                DS 1
   \   000001                REQUIRE __INIT_XDATA_Z

   \                                 In  segment XDATA_Z, align 1, keep-with-next
    220          endPointDesc_t *ZDApp_AutoFindMode_epDesc = (endPointDesc_t *)NULL;
   \                     ZDApp_AutoFindMode_epDesc:
   \   000000                DS 2
   \   000002                REQUIRE __INIT_XDATA_Z

   \                                 In  segment XDATA_Z, align 1, keep-with-next
    221          uint8 ZDApp_LeaveCtrl;
   \                     ZDApp_LeaveCtrl:
   \   000000                DS 1
   \   000001                REQUIRE __INIT_XDATA_Z
    222          
    223          #if defined( HOLD_AUTO_START )
    224            devStates_t devState = DEV_HOLD;
    225          #else

   \                                 In  segment XDATA_I, align 1, keep-with-next
    226            devStates_t devState = DEV_INIT;
   \                     devState:
   \   000000                DS 1
   \   000001                REQUIRE `?<Initializer for devState>`
   \   000001                REQUIRE __INIT_XDATA_I
    227          #endif
    228          
    229          #if ( ZG_BUILD_RTRONLY_TYPE ) || ( ZG_BUILD_ENDDEVICE_TYPE )

   \                                 In  segment XDATA_Z, align 1, keep-with-next
    230            devStartModes_t devStartMode = MODE_JOIN;     // Assume joining
   \                     devStartMode:
   \   000000                DS 1
   \   000001                REQUIRE __INIT_XDATA_Z
    231            //devStartModes_t devStartMode = MODE_RESUME; // if already "directly joined"
    232                                  // to parent. Set to make the device do an Orphan scan.
    233          #else
    234            // Set the default to coodinator
    235            devStartModes_t devStartMode = MODE_HARD;
    236          #endif
    237          

   \                                 In  segment XDATA_Z, align 1, keep-with-next
    238          uint8 retryCnt;
   \                     retryCnt:
   \   000000                DS 1
   \   000001                REQUIRE __INIT_XDATA_Z
    239          

   \                                 In  segment XDATA_I, align 1, keep-with-next
    240          endPointDesc_t ZDApp_epDesc =
   \                     ZDApp_epDesc:
   \   000000                DS 6
   \   000006                REQUIRE `?<Initializer for ZDApp_epDesc>`
   \   000006                REQUIRE __INIT_XDATA_I
    241          {
    242            ZDO_EP,
    243            &ZDAppTaskID,
    244            (SimpleDescriptionFormat_t *)NULL,  // No Simple description for ZDO
    245            (afNetworkLatencyReq_t)0            // No Network Latency req
    246          };
    247          

   \                                 In  segment XDATA_I, align 1, keep-with-next
    248          uint16 ZDApp_SavedPollRate = POLL_RATE;
   \                     ZDApp_SavedPollRate:
   \   000000                DS 2
   \   000002                REQUIRE `?<Initializer for ZDApp_SavedPollRate>`
   \   000002                REQUIRE __INIT_XDATA_I
    249          
    250          /*********************************************************************
    251           * @fn      ZDApp_Init
    252           *
    253           * @brief   ZDApp Initialization function.
    254           *
    255           * @param   task_id - ZDApp Task ID
    256           *
    257           * @return  None
    258           */

   \                                 In  segment BANKED_CODE, align 1, keep-with-next
    259          void ZDApp_Init( uint8 task_id )// IN OSAL_GenericApp.c 
   \                     ZDApp_Init:
    260          {
   \   000000   74F7         MOV     A,#-0x9
   \   000002   12....       LCALL   ?BANKED_ENTER_XDATA
   \   000005                ; Saved register size: 9
   \   000005                ; Auto size: 0
   \   000005   E9           MOV     A,R1
    261            // Save the task ID
    262            ZDAppTaskID = task_id;
   \   000006   90....       MOV     DPTR,#ZDAppTaskID
   \   000009   F0           MOVX    @DPTR,A
    263          
    264            // Initialize the ZDO global device short address storage
    265            ZDAppNwkAddr.addrMode = Addr16Bit;
   \   00000A   90....       MOV     DPTR,#ZDAppNwkAddr + 8
   \   00000D   7402         MOV     A,#0x2
   \   00000F   F0           MOVX    @DPTR,A
    266            ZDAppNwkAddr.addr.shortAddr = INVALID_NODE_ADDR;
   \   000010   90....       MOV     DPTR,#ZDAppNwkAddr
   \   000013   74FE         MOV     A,#-0x2
   \   000015   F0           MOVX    @DPTR,A
   \   000016   A3           INC     DPTR
   \   000017   04           INC     A
   \   000018   F0           MOVX    @DPTR,A
    267            (void)NLME_GetExtAddr();  // Load the saveExtAddr pointer.
   \   000019                ; Setup parameters for call to function NLME_GetExtAddr
   \   000019   12....       LCALL   ??NLME_GetExtAddr?relay
    268          
    269            // Check for manual "Hold Auto Start"
    270            //ZDAppCheckForHoldKey(); //czv7 因为我的 hal_key.c改动很大，其中把一些宏改变了，导致这个函数返回成功了，把状态变成了DEV_HOLD了，所以就有了协调器不能自主建网了
    271          
    272            // Initialize ZDO items and setup the device - type of device to create.
    273            ZDO_Init();
   \   00001C                ; Setup parameters for call to function ZDO_Init
   \   00001C   12....       LCALL   ??ZDO_Init?relay
    274          
    275            // Register the endpoint description with the AF
    276            // This task doesn't have a Simple description, but we still need
    277            // to register the endpoint.
    278            afRegister( (endPointDesc_t *)&ZDApp_epDesc );
   \   00001F                ; Setup parameters for call to function afRegister
   \   00001F   7A..         MOV     R2,#ZDApp_epDesc & 0xff
   \   000021   7B..         MOV     R3,#(ZDApp_epDesc >> 8) & 0xff
   \   000023   12....       LCALL   ??afRegister?relay
    279          
    280          #if defined( ZDO_USERDESC_RESPONSE )
    281            ZDApp_InitUserDesc();
   \   000026                ; Setup parameters for call to function ZDApp_InitUserDesc
   \   000026   12....       LCALL   ??ZDApp_InitUserDesc?relay
    282          #endif // ZDO_USERDESC_RESPONSE
    283          
    284            // Start the device?
    285            if ( devState != DEV_HOLD )
   \   000029   90....       MOV     DPTR,#devState
   \   00002C   E0           MOVX    A,@DPTR
   \   00002D   6009         JZ      ??ZDApp_Init_0
    286            {
    287              ZDOInitDevice( 0 );
   \   00002F                ; Setup parameters for call to function ZDOInitDevice
   \   00002F   7A00         MOV     R2,#0x0
   \   000031   7B00         MOV     R3,#0x0
   \   000033   12....       LCALL   ??ZDOInitDevice?relay
   \   000036   8014         SJMP    ??ZDApp_Init_1
    288            }
    289            else
    290            {
    291              ZDOInitDevice( ZDO_INIT_HOLD_NWK_START );
   \                     ??ZDApp_Init_0:
   \   000038                ; Setup parameters for call to function ZDOInitDevice
   \   000038   7AFF         MOV     R2,#-0x1
   \   00003A   7BFF         MOV     R3,#-0x1
   \   00003C   12....       LCALL   ??ZDOInitDevice?relay
    292              // Blink LED to indicate HOLD_START
    293              HalLedBlink ( HAL_LED_1, 0, 50, 500 );//czv7 HAL_LED_4 TO  1
   \   00003F                ; Setup parameters for call to function HalLedBlink
   \   00003F   7CF4         MOV     R4,#-0xc
   \   000041   7D01         MOV     R5,#0x1
   \   000043   7B32         MOV     R3,#0x32
   \   000045   7A00         MOV     R2,#0x0
   \   000047   7901         MOV     R1,#0x1
   \   000049   12....       LCALL   ??HalLedBlink?relay
    294            }
    295          
    296            // Initialize the ZDO callback function pointers zdoCBFunc[]
    297            ZDApp_InitZdoCBFunc();
   \                     ??ZDApp_Init_1:
   \   00004C                ; Setup parameters for call to function ZDApp_InitZdoCBFunc
   \   00004C   12....       LCALL   ??ZDApp_InitZdoCBFunc?relay
    298          
    299            ZDApp_RegisterCBs();
   \   00004F                ; Setup parameters for call to function ZDApp_RegisterCBs
   \   00004F   12....       LCALL   ??ZDApp_RegisterCBs?relay
    300          } /* ZDApp_Init() */
   \   000052   02....       LJMP    ??Subroutine51_0 & 0xFFFF

   \                                 In  segment BANKED_CODE, align 1, keep-with-next
   \                     ??Subroutine51_0:
   \   000000   7F01         MOV     R7,#0x1
   \   000002   02....       LJMP    ?BANKED_LEAVE_XDATA
    301          
    302          /*********************************************************************
    303           * @fn          ZDApp_SecInit
    304           *
    305           * @brief       ZDApp initialize security.
    306           *
    307           * @param       state - device initialization state
    308           *
    309           * @return      none
    310           */

   \                                 In  segment BANKED_CODE, align 1, keep-with-next
    311          void ZDApp_SecInit( uint8 state )
   \                     ZDApp_SecInit:
    312          {
   \   000000   74F7         MOV     A,#-0x9
   \   000002   12....       LCALL   ?BANKED_ENTER_XDATA
   \   000005                ; Saved register size: 9
   \   000005                ; Auto size: 0
    313            uint8 zgPreConfigKey[SEC_KEY_LEN];
    314          
    315            if ( ZG_SECURE_ENABLED && ZG_BUILD_COORDINATOR_TYPE && ZG_DEVICE_COORDINATOR_TYPE )
    316            {
    317              // Set the Trust Center bit
    318              ZDO_Config_Node_Descriptor.ServerMask |= PRIM_TRUST_CENTER;
    319            }
    320          
    321            if ( ZG_CHECK_SECURITY_MODE == ZG_SECURITY_PRO_HIGH )
    322            {
    323              ZDO_Config_Node_Descriptor.CapabilityFlags |= CAPINFO_SECURITY_CAPABLE;
    324            }
    325          
    326            // Initialize ZigBee Device Security Manager
    327            ZDSecMgrInit(state);
   \   000005                ; Setup parameters for call to function ZDSecMgrInit
   \   000005   12....       LCALL   ??ZDSecMgrInit?relay
    328          
    329            if ( ZG_SECURE_ENABLED )
    330            {
    331              if ( state != ZDO_INITDEV_RESTORED_NETWORK_STATE )
    332              {
    333                nwkFrameCounter = 0;
    334          
    335                if( _NIB.nwkKeyLoaded == FALSE )
    336                {
    337                  if ( ( ZG_BUILD_COORDINATOR_TYPE && ZG_DEVICE_COORDINATOR_TYPE          ) ||
    338                       ( ( zgSecurityMode == ZG_SECURITY_RESIDENTIAL ) && zgPreConfigKeys )    )
    339                  {
    340                      ZDSecMgrReadKeyFromNv(ZCD_NV_PRECFGKEY, zgPreConfigKey);
    341                      SSP_UpdateNwkKey( zgPreConfigKey, 0);
    342                      SSP_SwitchNwkKey( 0 );
    343          
    344                      // clear local copy of key
    345                      osal_memset(zgPreConfigKey, 0x00, SEC_KEY_LEN);
    346                  }
    347                }
    348              }
    349            }
    350          }
   \   000008   02....       LJMP    ??Subroutine51_0 & 0xFFFF
    351          
    352          /*********************************************************************
    353           * @fn      ZDApp_event_loop()
    354           *
    355           * @brief   Main event loop for Zigbee device objects task. This function
    356           *          should be called at periodic intervals.
    357           *
    358           * @param   task_id - Task ID
    359           * @param   events  - Bitmap of events
    360           *
    361           * @return  none
    362           */

   \                                 In  segment BANKED_CODE, align 1, keep-with-next
    363          UINT16 ZDApp_event_loop( uint8 task_id, UINT16 events )
   \                     ZDApp_event_loop:
    364          {
   \   000000   74F6         MOV     A,#-0xa
   \   000002   12....       LCALL   ?BANKED_ENTER_XDATA
   \   000005                ; Saved register size: 10
   \   000005                ; Auto size: 0
   \   000005   EA           MOV     A,R2
   \   000006   FE           MOV     R6,A
   \   000007   EB           MOV     A,R3
   \   000008   FF           MOV     R7,A
    365            uint8 *msg_ptr;
    366          
    367            if ( events & SYS_EVENT_MSG )
   \   000009   5480         ANL     A,#0x80
   \   00000B   7033         JNZ     ??ZDApp_event_loop_0
    368            {
    369              while ( (msg_ptr = osal_msg_receive( ZDAppTaskID )) )
    370              {
    371                ZDApp_ProcessOSALMsg( (osal_event_hdr_t *)msg_ptr );
    372          
    373                // Release the memory
    374                osal_msg_deallocate( msg_ptr );
    375              }
    376          
    377              // Return unprocessed events
    378              return (events ^ SYS_EVENT_MSG);
    379            }
    380          
    381            if ( events & ZDO_NETWORK_INIT )
   \   00000D   EE           MOV     A,R6
   \   00000E   A2E0         MOV     C,0xE0 /* A   */.0
   \   000010   5047         JNC     ??ZDApp_event_loop_1
    382            {
    383              // Initialize apps and start the network
    384              devState = DEV_INIT;
   \   000012   90....       MOV     DPTR,#devState
   \   000015   7401         MOV     A,#0x1
   \   000017   12....       LCALL   ??Subroutine46_0 & 0xFFFF
    385              osal_set_event( ZDAppTaskID, ZDO_STATE_CHANGE_EVT );
    386          
    387              ZDO_StartDevice( (uint8)ZDO_Config_Node_Descriptor.LogicalType, devStartMode,
    388                               DEFAULT_BEACON_ORDER, DEFAULT_SUPERFRAME_ORDER );
   \                     ??CrossCallReturnLabel_72:
   \   00001A                ; Setup parameters for call to function ZDO_StartDevice
   \   00001A   7C0F         MOV     R4,#0xf
   \   00001C   7B0F         MOV     R3,#0xf
   \   00001E   90....       MOV     DPTR,#devStartMode
   \   000021   E0           MOVX    A,@DPTR
   \   000022   FA           MOV     R2,A
   \   000023   90....       MOV     DPTR,#ZDO_Config_Node_Descriptor
   \   000026   E0           MOVX    A,@DPTR
   \   000027   5407         ANL     A,#0x7
   \   000029   F9           MOV     R1,A
   \   00002A   12....       LCALL   ??ZDO_StartDevice?relay
    389          
    390              // Return unprocessed events
    391              return (events ^ ZDO_NETWORK_INIT);
   \   00002D   EE           MOV     A,R6
   \   00002E   6401         XRL     A,#0x1
   \                     ??ZDApp_event_loop_2:
   \   000030   FA           MOV     R2,A
   \   000031   EF           MOV     A,R7
   \                     ??ZDApp_event_loop_3:
   \   000032   FB           MOV     R3,A
   \   000033   02....       LJMP    ??ZDApp_event_loop_4 & 0xFFFF
    392            }
   \                     ??ZDApp_event_loop_5:
   \   000036                ; Setup parameters for call to function ZDApp_ProcessOSALMsg
   \   000036   12....       LCALL   ??ZDApp_ProcessOSALMsg?relay
   \   000039                ; Setup parameters for call to function osal_msg_deallocate
   \   000039   AA..         MOV     R2,?V0 + 0
   \   00003B   AB..         MOV     R3,?V0 + 1
   \   00003D   12....       LCALL   ??osal_msg_deallocate?relay
   \                     ??ZDApp_event_loop_0:
   \   000040                ; Setup parameters for call to function osal_msg_receive
   \   000040   90....       MOV     DPTR,#ZDAppTaskID
   \   000043   E0           MOVX    A,@DPTR
   \   000044   F9           MOV     R1,A
   \   000045   12....       LCALL   ??osal_msg_receive?relay
   \   000048   8A..         MOV     ?V0 + 0,R2
   \   00004A   8B..         MOV     ?V0 + 1,R3
   \   00004C   A9..         MOV     R1,?V0 + 1
   \   00004E   EA           MOV     A,R2
   \   00004F   49           ORL     A,R1
   \   000050   70E4         JNZ     ??ZDApp_event_loop_5
   \   000052   EE           MOV     A,R6
   \   000053   FA           MOV     R2,A
   \   000054   EF           MOV     A,R7
   \   000055   6480         XRL     A,#0x80
   \   000057   80D9         SJMP    ??ZDApp_event_loop_3
    393          
    394            if ( ZSTACK_ROUTER_BUILD )
    395            {
    396              if ( events & ZDO_NETWORK_START )
   \                     ??ZDApp_event_loop_1:
   \   000059   5402         ANL     A,#0x2
   \   00005B   6008         JZ      ??ZDApp_event_loop_6
    397              {
    398                ZDApp_NetworkStartEvt();
   \   00005D                ; Setup parameters for call to function ZDApp_NetworkStartEvt
   \   00005D   12....       LCALL   ??ZDApp_NetworkStartEvt?relay
    399          
    400                // Return unprocessed events
    401                return (events ^ ZDO_NETWORK_START);
   \   000060   EE           MOV     A,R6
   \   000061   6402         XRL     A,#0x2
   \                     ??ZDApp_event_loop_7:
   \   000063   80CB         SJMP    ??ZDApp_event_loop_2
    402              }
    403          
    404              if ( events & ZDO_ROUTER_START )
   \                     ??ZDApp_event_loop_6:
   \   000065   EE           MOV     A,R6
   \   000066   5420         ANL     A,#0x20
   \   000068   601E         JZ      ??ZDApp_event_loop_8
    405              {
    406                if ( nwkStatus == ZSuccess )
   \   00006A   90....       MOV     DPTR,#nwkStatus
   \   00006D   E0           MOVX    A,@DPTR
   \   00006E   7010         JNZ     ??ZDApp_event_loop_9
    407                {
    408                  if ( devState == DEV_END_DEVICE )
   \   000070   90....       MOV     DPTR,#devState
   \   000073   E0           MOVX    A,@DPTR
   \   000074   6406         XRL     A,#0x6
   \   000076   7003         JNZ     ??ZDApp_event_loop_10
    409                    devState = DEV_ROUTER;
   \   000078   7407         MOV     A,#0x7
   \   00007A   F0           MOVX    @DPTR,A
    410          
    411                  osal_pwrmgr_device( PWRMGR_ALWAYS_ON );
   \                     ??ZDApp_event_loop_10:
   \   00007B                ; Setup parameters for call to function osal_pwrmgr_device
   \   00007B   7900         MOV     R1,#0x0
   \   00007D   12....       LCALL   ??osal_pwrmgr_device?relay
    412                }
    413                else
    414                {
    415                  // remain as end device!!
    416                }
    417                osal_set_event( ZDAppTaskID, ZDO_STATE_CHANGE_EVT );
   \                     ??ZDApp_event_loop_9:
   \   000080                ; Setup parameters for call to function osal_set_event
   \   000080   12....       LCALL   ?Subroutine17 & 0xFFFF
    418          
    419                // Return unprocessed events
    420                return (events ^ ZDO_ROUTER_START);
   \                     ??CrossCallReturnLabel_121:
   \   000083   EE           MOV     A,R6
   \   000084   6420         XRL     A,#0x20
   \   000086   80A8         SJMP    ??ZDApp_event_loop_2
    421              }
    422            }
    423          
    424            if ( events & ZDO_STATE_CHANGE_EVT )
   \                     ??ZDApp_event_loop_8:
   \   000088   EE           MOV     A,R6
   \   000089   5410         ANL     A,#0x10
   \   00008B   6023         JZ      ??ZDApp_event_loop_11
    425            {
    426              ZDO_UpdateNwkStatus( devState );
   \   00008D                ; Setup parameters for call to function ZDO_UpdateNwkStatus
   \   00008D   90....       MOV     DPTR,#devState
   \   000090   E0           MOVX    A,@DPTR
   \   000091   F9           MOV     R1,A
   \   000092   12....       LCALL   ??ZDO_UpdateNwkStatus?relay
    427          
    428              // At start up, do one MTO route discovery if the device is a concentrator
    429              if ( zgConcentratorEnable == TRUE )
   \   000095   90....       MOV     DPTR,#zgConcentratorEnable
   \   000098   E0           MOVX    A,@DPTR
   \   000099   6401         XRL     A,#0x1
   \   00009B   700E         JNZ     ??CrossCallReturnLabel_69
    430              {
    431                // Start next event
    432                osal_start_timerEx( NWK_TaskID, NWK_MTO_RTG_REQ_EVT, 100 );
   \   00009D                ; Setup parameters for call to function osal_start_timerEx
   \   00009D   7C64         MOV     R4,#0x64
   \   00009F   7D00         MOV     R5,#0x0
   \   0000A1   7A00         MOV     R2,#0x0
   \   0000A3   7B08         MOV     R3,#0x8
   \   0000A5   90....       MOV     DPTR,#NWK_TaskID
   \   0000A8   12....       LCALL   ??Subroutine43_0 & 0xFFFF
    433              }
    434          
    435              // Return unprocessed events
    436              return (events ^ ZDO_STATE_CHANGE_EVT);
   \                     ??CrossCallReturnLabel_69:
   \   0000AB   EE           MOV     A,R6
   \   0000AC   6410         XRL     A,#0x10
   \   0000AE   8080         SJMP    ??ZDApp_event_loop_2
    437            }
    438          
    439            if ( events & ZDO_COMMAND_CNF )
   \                     ??ZDApp_event_loop_11:
   \   0000B0   EE           MOV     A,R6
   \   0000B1   5408         ANL     A,#0x8
   \   0000B3   6006         JZ      ??ZDApp_event_loop_12
    440            {
    441              // User defined logic
    442          
    443              // Return unprocessed events
    444              return (events ^ ZDO_COMMAND_CNF);
   \   0000B5   EE           MOV     A,R6
   \   0000B6   6408         XRL     A,#0x8
   \   0000B8   FA           MOV     R2,A
   \   0000B9   802D         SJMP    ??ZDApp_event_loop_4
    445            }
    446          
    447            if ( events & ZDO_NWK_UPDATE_NV )
   \                     ??ZDApp_event_loop_12:
   \   0000BB   EF           MOV     A,R7
   \   0000BC   5402         ANL     A,#0x2
   \   0000BE   6015         JZ      ??ZDApp_event_loop_13
    448            {
    449              osal_set_event(Guu_TaskID, ZDO_NWK_UPDATE_NV);
   \   0000C0                ; Setup parameters for call to function osal_set_event
   \   0000C0   7A00         MOV     R2,#0x0
   \   0000C2   7B02         MOV     R3,#0x2
   \   0000C4   90....       MOV     DPTR,#Guu_TaskID
   \   0000C7   12....       LCALL   ??Subroutine63_0 & 0xFFFF
    450              ZDApp_SaveNetworkStateEvt();
   \                     ??CrossCallReturnLabel_129:
   \   0000CA                ; Setup parameters for call to function ZDApp_SaveNetworkStateEvt
   \   0000CA   12....       LCALL   ??ZDApp_SaveNetworkStateEvt?relay
    451          
    452              // Return unprocessed events
    453              return (events ^ ZDO_NWK_UPDATE_NV);
   \   0000CD   EE           MOV     A,R6
   \   0000CE   FA           MOV     R2,A
   \   0000CF   EF           MOV     A,R7
   \   0000D0   6402         XRL     A,#0x2
   \   0000D2   02....       LJMP    ??ZDApp_event_loop_3 & 0xFFFF
    454            }
    455          
    456            if ( events & ZDO_DEVICE_RESET )
   \                     ??ZDApp_event_loop_13:
   \   0000D5   EE           MOV     A,R6
   \   0000D6   5404         ANL     A,#0x4
   \   0000D8   600A         JZ      ??ZDApp_event_loop_14
    457            {
    458          #ifdef ZBA_FALLBACK_NWKKEY
    459              if ( devState == DEV_END_DEVICE_UNAUTH )
    460              {
    461                ZDSecMgrFallbackNwkKey();
    462              }
    463              else
    464          #endif
    465              {
    466                // Set the NV startup option to force a "new" join.
    467                zgWriteStartupOptions( ZG_STARTUP_SET, ZCD_STARTOPT_DEFAULT_NETWORK_STATE );
   \   0000DA                ; Setup parameters for call to function zgWriteStartupOptions
   \   0000DA   7A02         MOV     R2,#0x2
   \   0000DC   79FF         MOV     R1,#-0x1
   \   0000DE   12....       LCALL   ??zgWriteStartupOptions?relay
    468          
    469                // The device has been in the UNAUTH state, so reset
    470                // Note: there will be no return from this call
    471                SystemResetSoft();
   \   0000E1                ; Setup parameters for call to function Onboard_soft_reset
   \   0000E1   12....       LCALL   Onboard_soft_reset & 0xFFFF
    472              }
    473            }
    474          
    475            if ( ZG_SECURE_ENABLED )
    476            {
    477              return ( ZDApp_ProcessSecEvent( task_id, events ) );
    478            }
    479            else
    480            {
    481              // Discard or make more handlers
    482              return 0;
   \                     ??ZDApp_event_loop_14:
   \   0000E4   7A00         MOV     R2,#0x0
   \   0000E6   7B00         MOV     R3,#0x0
    483            }
   \                     ??ZDApp_event_loop_4:
   \   0000E8   02....       LJMP    ??Subroutine61_0 & 0xFFFF
    484          }

   \                                 In  segment BANKED_CODE, align 1, keep-with-next
   \                     ??Subroutine43_0:
   \   000000   E0           MOVX    A,@DPTR
   \   000001   F9           MOV     R1,A
   \   000002   12....       LCALL   ??osal_start_timerEx?relay
   \   000005   22           RET

   \                                 In  segment BANKED_CODE, align 1, keep-with-next
   \                     ??Subroutine46_0:
   \   000000   F0           MOVX    @DPTR,A
   \   000001                ; Setup parameters for call to function osal_set_event
   \   000001                ; Setup parameters for call to function osal_set_event
   \   000001                ; Setup parameters for call to function osal_set_event
   \   000001   7A10         MOV     R2,#0x10
   \   000003   7B00         MOV     R3,#0x0
   \   000005   90....       MOV     DPTR,#ZDAppTaskID
   \   000008   E0           MOVX    A,@DPTR
   \   000009   F9           MOV     R1,A
   \   00000A   12....       LCALL   ??osal_set_event?relay
   \   00000D   22           RET

   \                                 In  segment BANKED_CODE, align 1, keep-with-next
   \                     ??Subroutine61_0:
   \   000000   7F02         MOV     R7,#0x2
   \   000002   02....       LJMP    ?BANKED_LEAVE_XDATA

   \                                 In  segment BANKED_CODE, align 1, keep-with-next
   \                     ?Subroutine17:
   \   000000   7A10         MOV     R2,#0x10
   \   000002                REQUIRE ??Subroutine62_0
   \   000002                ; // Fall through to label ??Subroutine62_0

   \                                 In  segment BANKED_CODE, align 1, keep-with-next
   \                     ??Subroutine62_0:
   \   000000   7B00         MOV     R3,#0x0
   \   000002   90....       MOV     DPTR,#ZDAppTaskID
   \   000005                REQUIRE ??Subroutine63_0
   \   000005                ; // Fall through to label ??Subroutine63_0

   \                                 In  segment BANKED_CODE, align 1, keep-with-next
   \                     ??Subroutine63_0:
   \   000000   E0           MOVX    A,@DPTR
   \   000001   F9           MOV     R1,A
   \   000002   12....       LCALL   ??osal_set_event?relay
   \   000005   22           RET
    485          
    486          /*********************************************************************
    487           * @fn      ZDApp_ProcessSecEvent()
    488           *
    489           * @brief   Process incoming security events.
    490           *
    491           * @param   task_id - Task ID
    492           * @param   events  - Bitmap of events
    493           *
    494           * @return  none
    495           */

   \                                 In  segment BANKED_CODE, align 1, keep-with-next
    496          UINT16 ZDApp_ProcessSecEvent( uint8 task_id, UINT16 events )
   \                     ZDApp_ProcessSecEvent:
    497          {
   \   000000   74F7         MOV     A,#-0x9
   \   000002   12....       LCALL   ?BANKED_ENTER_XDATA
   \   000005                ; Saved register size: 9
   \   000005                ; Auto size: 0
   \   000005   EA           MOV     A,R2
   \   000006   FE           MOV     R6,A
   \   000007   EB           MOV     A,R3
   \   000008   FF           MOV     R7,A
    498            (void)task_id;  // Intentionally unreferenced parameter
    499          
    500            if ( ZSTACK_ROUTER_BUILD )
    501            {
    502              if ( events & ZDO_NEW_DEVICE )
   \   000009   EE           MOV     A,R6
   \   00000A   5440         ANL     A,#0x40
   \   00000C   6019         JZ      ??ZDApp_ProcessSecEvent_0
    503              {
    504                // process the new device event
    505                if ( ZDSecMgrNewDeviceEvent() == TRUE )
   \   00000E                ; Setup parameters for call to function ZDSecMgrNewDeviceEvent
   \   00000E   12....       LCALL   ??ZDSecMgrNewDeviceEvent?relay
   \   000011   E9           MOV     A,R1
   \   000012   6401         XRL     A,#0x1
   \   000014   7009         JNZ     ??CrossCallReturnLabel_66
    506                {
    507                  osal_start_timerEx( ZDAppTaskID, ZDO_NEW_DEVICE, 1000 );
   \   000016                ; Setup parameters for call to function osal_start_timerEx
   \   000016   7CE8         MOV     R4,#-0x18
   \   000018   7D03         MOV     R5,#0x3
   \   00001A   7A40         MOV     R2,#0x40
   \   00001C   12....       LCALL   ?Subroutine22 & 0xFFFF
    508                }
    509          
    510                // Return unprocessed events
    511                return (events ^ ZDO_NEW_DEVICE);
   \                     ??CrossCallReturnLabel_66:
   \   00001F   EE           MOV     A,R6
   \   000020   6440         XRL     A,#0x40
   \                     ??ZDApp_ProcessSecEvent_1:
   \   000022   FA           MOV     R2,A
   \   000023   EF           MOV     A,R7
   \                     ??ZDApp_ProcessSecEvent_2:
   \   000024   FB           MOV     R3,A
   \   000025   805C         SJMP    ??ZDApp_ProcessSecEvent_3
    512              }
    513            }
    514          
    515            if ( (ZG_CHECK_SECURITY_MODE == ZG_SECURITY_PRO_HIGH)
    516                || (ZG_CHECK_SECURITY_MODE == ZG_SECURITY_SE_STANDARD) )
    517            {
    518              if ( ZG_BUILD_COORDINATOR_TYPE && ZG_DEVICE_COORDINATOR_TYPE )
    519              {
    520                if ( events & ZDO_SECMGR_EVENT )
    521                {
    522                  ZDSecMgrEvent();
    523          
    524                  // Return unprocessed events
    525                  return (events ^ ZDO_SECMGR_EVENT);
    526                }
    527              }
    528            }
    529          
    530            if ( events & ZDO_DEVICE_AUTH )
   \                     ??ZDApp_ProcessSecEvent_0:
   \   000027   EE           MOV     A,R6
   \   000028   5480         ANL     A,#0x80
   \   00002A   6008         JZ      ??ZDApp_ProcessSecEvent_4
    531            {
    532              ZDApp_DeviceAuthEvt();
   \   00002C                ; Setup parameters for call to function ZDApp_DeviceAuthEvt
   \   00002C   12....       LCALL   ??ZDApp_DeviceAuthEvt?relay
    533          
    534              // Return unprocessed events
    535              return (events ^ ZDO_DEVICE_AUTH);
   \   00002F   EE           MOV     A,R6
   \   000030   6480         XRL     A,#0x80
   \   000032   80EE         SJMP    ??ZDApp_ProcessSecEvent_1
    536            }
    537          
    538            if ( events & ZDO_FRAMECOUNTER_CHANGE )
   \                     ??ZDApp_ProcessSecEvent_4:
   \   000034   EF           MOV     A,R7
   \   000035   5404         ANL     A,#0x4
   \   000037   6028         JZ      ??ZDApp_ProcessSecEvent_5
    539            {
    540              if ( nwkFrameCounterChanges++ > MAX_NWK_FRAMECOUNTER_CHANGES )
   \   000039   90....       MOV     DPTR,#nwkFrameCounterChanges
   \   00003C   12....       LCALL   ??Subroutine48_0 & 0xFFFF
   \                     ??CrossCallReturnLabel_76:
   \   00003F   E8           MOV     A,R0
   \   000040   2401         ADD     A,#0x1
   \   000042   FA           MOV     R2,A
   \   000043   E9           MOV     A,R1
   \   000044   3400         ADDC    A,#0x0
   \   000046   FB           MOV     R3,A
   \   000047   90....       MOV     DPTR,#nwkFrameCounterChanges
   \   00004A   12....       LCALL   ??Subroutine64_0 & 0xFFFF
   \                     ??CrossCallReturnLabel_130:
   \   00004D   C3           CLR     C
   \   00004E   E8           MOV     A,R0
   \   00004F   94E9         SUBB    A,#-0x17
   \   000051   E9           MOV     A,R1
   \   000052   9403         SUBB    A,#0x3
   \   000054   4003         JC      ??ZDApp_ProcessSecEvent_6
    541              {
    542                ZDApp_SaveNwkKey();
   \   000056                ; Setup parameters for call to function ZDApp_SaveNwkKey
   \   000056   12....       LCALL   ??ZDApp_SaveNwkKey?relay
    543              }
    544          
    545              // Return unprocessed events
    546              return (events ^ ZDO_FRAMECOUNTER_CHANGE);
   \                     ??ZDApp_ProcessSecEvent_6:
   \   000059   EE           MOV     A,R6
   \   00005A   FA           MOV     R2,A
   \   00005B   EF           MOV     A,R7
   \   00005C   6404         XRL     A,#0x4
   \                     ??ZDApp_ProcessSecEvent_7:
   \   00005E   FB           MOV     R3,A
   \   00005F   8022         SJMP    ??ZDApp_ProcessSecEvent_3
    547            }
    548          
    549            if ( events & ZDO_APS_FRAMECOUNTER_CHANGE )
   \                     ??ZDApp_ProcessSecEvent_5:
   \   000061   EF           MOV     A,R7
   \   000062   5410         ANL     A,#0x10
   \   000064   600A         JZ      ??ZDApp_ProcessSecEvent_8
    550            {
    551          #if defined (NV_RESTORE)
    552              ZDSecMgrSaveApsLinkKey();
   \   000066                ; Setup parameters for call to function ZDSecMgrSaveApsLinkKey
   \   000066   12....       LCALL   ??ZDSecMgrSaveApsLinkKey?relay
    553          #endif // (NV_RESTORE)
    554          
    555              // Return unprocessed events
    556              return (events ^ ZDO_APS_FRAMECOUNTER_CHANGE);
   \   000069   EE           MOV     A,R6
   \   00006A   FA           MOV     R2,A
   \   00006B   EF           MOV     A,R7
   \   00006C   6410         XRL     A,#0x10
   \   00006E   80B4         SJMP    ??ZDApp_ProcessSecEvent_2
    557            }
    558          
    559            if ( events & ZDO_TCLK_FRAMECOUNTER_CHANGE )
   \                     ??ZDApp_ProcessSecEvent_8:
   \   000070   EF           MOV     A,R7
   \   000071   5408         ANL     A,#0x8
   \   000073   600A         JZ      ??ZDApp_ProcessSecEvent_9
    560            {
    561              ZDSecMgrSaveTCLinkKey();
   \   000075                ; Setup parameters for call to function ZDSecMgrSaveTCLinkKey
   \   000075   12....       LCALL   ??ZDSecMgrSaveTCLinkKey?relay
    562          
    563              // Return unprocessed events
    564              return (events ^ ZDO_TCLK_FRAMECOUNTER_CHANGE);
   \   000078   EE           MOV     A,R6
   \   000079   FA           MOV     R2,A
   \   00007A   EF           MOV     A,R7
   \   00007B   6408         XRL     A,#0x8
   \   00007D   80DF         SJMP    ??ZDApp_ProcessSecEvent_7
    565            }
    566          
    567            // Discard or make more handlers
    568            return 0;
   \                     ??ZDApp_ProcessSecEvent_9:
   \   00007F   7A00         MOV     R2,#0x0
   \   000081   7B00         MOV     R3,#0x0
   \                     ??ZDApp_ProcessSecEvent_3:
   \   000083   02....       LJMP    ??Subroutine51_0 & 0xFFFF
    569          }

   \                                 In  segment BANKED_CODE, align 1, keep-with-next
   \                     ?Subroutine22:
   \   000000   7B00         MOV     R3,#0x0
   \   000002                REQUIRE ??Subroutine42_0
   \   000002                ; // Fall through to label ??Subroutine42_0

   \                                 In  segment BANKED_CODE, align 1, keep-with-next
   \                     ??Subroutine42_0:
   \   000000   90....       MOV     DPTR,#ZDAppTaskID
   \   000003                REQUIRE ??Subroutine43_0
   \   000003                ; // Fall through to label ??Subroutine43_0

   \                                 In  segment BANKED_CODE, align 1, keep-with-next
   \                     ??Subroutine48_0:
   \   000000   E0           MOVX    A,@DPTR
   \   000001   F8           MOV     R0,A
   \   000002   A3           INC     DPTR
   \   000003   E0           MOVX    A,@DPTR
   \   000004   F9           MOV     R1,A
   \   000005   22           RET

   \                                 In  segment BANKED_CODE, align 1, keep-with-next
   \                     ??Subroutine64_0:
   \   000000   EA           MOV     A,R2
   \   000001   F0           MOVX    @DPTR,A
   \   000002   A3           INC     DPTR
   \   000003   EB           MOV     A,R3
   \   000004   F0           MOVX    @DPTR,A
   \   000005   22           RET
    570          
    571          /*********************************************************************
    572           * Application Functions
    573           */
    574          
    575          /*********************************************************************
    576           * @fn      ZDOInitDevice
    577           *
    578           * @brief   Start the device in the network.  This function will read
    579           *   ZCD_NV_STARTUP_OPTION (NV item) to determine whether or not to
    580           *   restore the network state of the device.
    581           *
    582           * @param   startDelay - timeDelay to start device (in milliseconds).
    583           *                       There is a jitter added to this delay:
    584           *                       ((NWK_START_DELAY + startDelay)
    585           *                       + (osal_rand() & EXTENDED_JOINING_RANDOM_MASK))
    586           *                       When startDelay is set to ZDO_INIT_HOLD_NWK_START
    587           *                       this function will hold the network init. Application
    588           *                       can start the device.
    589           *
    590           * NOTE:    If the application would like to force a "new" join, the
    591           *          application should set the ZCD_STARTOPT_DEFAULT_NETWORK_STATE
    592           *          bit in the ZCD_NV_STARTUP_OPTION NV item before calling
    593           *          this function. "new" join means to not restore the network
    594           *          state of the device. Use zgWriteStartupOptions() to set these
    595           *          options.
    596           *
    597           * @return
    598           *    ZDO_INITDEV_RESTORED_NETWORK_STATE  - The device's network state was
    599           *          restored.
    600           *    ZDO_INITDEV_NEW_NETWORK_STATE - The network state was initialized.
    601           *          This could mean that ZCD_NV_STARTUP_OPTION said to not restore, or
    602           *          it could mean that there was no network state to restore.
    603           *    ZDO_INITDEV_LEAVE_NOT_STARTED - Before the reset, a network leave was issued
    604           *          with the rejoin option set to TRUE.  So, the device was not
    605           *          started in the network (one time only).  The next time this
    606           *          function is called it will start.
    607           */

   \                                 In  segment BANKED_CODE, align 1, keep-with-next
    608          uint8 ZDOInitDevice( uint16 startDelay )
   \                     ZDOInitDevice:
    609          {
   \   000000   74F4         MOV     A,#-0xc
   \   000002   12....       LCALL   ?BANKED_ENTER_XDATA
   \   000005                ; Saved register size: 12
   \   000005                ; Auto size: 2
   \   000005   74FE         MOV     A,#-0x2
   \   000007   12....       LCALL   ?ALLOC_XSTACK8
   \   00000A   12....       LCALL   ?Subroutine13 & 0xFFFF
    610            uint8 networkStateNV = ZDO_INITDEV_NEW_NETWORK_STATE;
    611            uint16 extendedDelay = 0;
   \                     ??CrossCallReturnLabel_135:
   \   00000D   7E00         MOV     R6,#0x0
   \   00000F   7F00         MOV     R7,#0x0
    612          
    613            if ( devState == DEV_HOLD )
   \   000011   90....       MOV     DPTR,#devState
   \   000014   E0           MOVX    A,@DPTR
   \   000015   7005         JNZ     ??ZDOInitDevice_0
    614            {
    615              // Initialize the RAM items table, in case an NV item has been updated.
    616              zgInitItems( FALSE );
   \   000017                ; Setup parameters for call to function zgInitItems
   \   000017   7900         MOV     R1,#0x0
   \   000019   12....       LCALL   ??zgInitItems?relay
    617            }
    618          
    619            ZDConfig_InitDescriptors();
   \                     ??ZDOInitDevice_0:
   \   00001C                ; Setup parameters for call to function ZDConfig_InitDescriptors
   \   00001C   12....       LCALL   ??ZDConfig_InitDescriptors?relay
    620            //devtag.071807.todo - fix this temporary solution
    621            _NIB.CapabilityFlags = ZDO_Config_Node_Descriptor.CapabilityFlags;
   \   00001F   90....       MOV     DPTR,#ZDO_Config_Node_Descriptor + 2
   \   000022   E0           MOVX    A,@DPTR
   \   000023   90....       MOV     DPTR,#_NIB + 14
   \   000026   F0           MOVX    @DPTR,A
    622          
    623          #if defined ( NV_RESTORE )
    624            // Get Keypad directly to see if a reset nv is needed.
    625            // Hold down the SW_BYPASS_NV key (defined in OnBoard.h)
    626            // while booting to skip past NV Restore.
    627            //if ( HalKeyRead() == SW_BYPASS_NV ) //czv7 
    628            //  networkStateNV = ZDO_INITDEV_NEW_NETWORK_STATE;
    629            //else
    630            //{
    631              // Determine if NV should be restored
    632              networkStateNV = ZDApp_ReadNetworkRestoreState();
   \   000027                ; Setup parameters for call to function ZDApp_ReadNetworkRestoreState
   \   000027   12....       LCALL   ??ZDApp_ReadNetworkRestoreState?relay
   \   00002A   E9           MOV     A,R1
   \   00002B   F5..         MOV     ?V0 + 0,A
    633            //}
    634          
    635            if ( networkStateNV == ZDO_INITDEV_RESTORED_NETWORK_STATE )
   \   00002D   7008         JNZ     ??ZDOInitDevice_1
    636            {
    637              networkStateNV = ZDApp_RestoreNetworkState();
   \   00002F                ; Setup parameters for call to function ZDApp_RestoreNetworkState
   \   00002F   12....       LCALL   ??ZDApp_RestoreNetworkState?relay
   \   000032   E9           MOV     A,R1
   \   000033   F5..         MOV     ?V0 + 0,A
   \   000035   8009         SJMP    ??ZDOInitDevice_2
    638            }
    639            else
    640            {
    641              // Wipe out the network state in NV
    642              NLME_InitNV();
   \                     ??ZDOInitDevice_1:
   \   000037                ; Setup parameters for call to function NLME_InitNV
   \   000037   12....       LCALL   ??NLME_InitNV?relay
    643              NLME_SetDefaultNV();
   \   00003A                ; Setup parameters for call to function NLME_SetDefaultNV
   \   00003A   12....       LCALL   ??NLME_SetDefaultNV?relay
    644              // clear NWK key values
    645              ZDSecMgrClearNVKeyValues();
   \   00003D                ; Setup parameters for call to function ZDSecMgrClearNVKeyValues
   \   00003D   12....       LCALL   ??ZDSecMgrClearNVKeyValues?relay
    646            }
    647          #endif
    648          
    649            if ( networkStateNV == ZDO_INITDEV_NEW_NETWORK_STATE )
   \                     ??ZDOInitDevice_2:
   \   000040   7401         MOV     A,#0x1
   \   000042   65..         XRL     A,?V0 + 0
   \   000044   7020         JNZ     ??ZDOInitDevice_3
    650            {
    651              ZDAppDetermineDeviceType();
   \   000046                ; Setup parameters for call to function ZDAppDetermineDeviceType
   \   000046   12....       LCALL   ??ZDAppDetermineDeviceType?relay
    652          
    653              // Only delay if joining network - not restoring network state
    654              extendedDelay = (uint16)((NWK_START_DELAY + startDelay)
    655                        + (osal_rand() & EXTENDED_JOINING_RANDOM_MASK));
   \   000049                ; Setup parameters for call to function osal_rand
   \   000049   12....       LCALL   ??osal_rand?relay
   \   00004C   85..82       MOV     DPL,?XSP + 0
   \   00004F   85..83       MOV     DPH,?XSP + 1
   \   000052   EA           MOV     A,R2
   \   000053   547F         ANL     A,#0x7f
   \   000055   F8           MOV     R0,A
   \   000056   E0           MOVX    A,@DPTR
   \   000057   28           ADD     A,R0
   \   000058   F8           MOV     R0,A
   \   000059   A3           INC     DPTR
   \   00005A   E0           MOVX    A,@DPTR
   \   00005B   3400         ADDC    A,#0x0
   \   00005D   F9           MOV     R1,A
   \   00005E   E8           MOV     A,R0
   \   00005F   2464         ADD     A,#0x64
   \   000061   FE           MOV     R6,A
   \   000062   E9           MOV     A,R1
   \   000063   3400         ADDC    A,#0x0
   \   000065   FF           MOV     R7,A
    656            }
    657          
    658            // Initialize the security for type of device
    659            ZDApp_SecInit( networkStateNV );
   \                     ??ZDOInitDevice_3:
   \   000066                ; Setup parameters for call to function ZDSecMgrInit
   \   000066   A9..         MOV     R1,?V0 + 0
   \   000068   12....       LCALL   ??ZDSecMgrInit?relay
    660          
    661            if( ZDO_INIT_HOLD_NWK_START != startDelay )
   \   00006B   85..82       MOV     DPL,?XSP + 0
   \   00006E   85..83       MOV     DPH,?XSP + 1
   \   000071   E0           MOVX    A,@DPTR
   \   000072   F4           CPL     A
   \   000073   7003         JNZ     ??ZDOInitDevice_4
   \   000075   A3           INC     DPTR
   \   000076   E0           MOVX    A,@DPTR
   \   000077   F4           CPL     A
   \                     ??ZDOInitDevice_4:
   \   000078   6035         JZ      ??ZDOInitDevice_5
    662            {
    663              devState = DEV_INIT;    // Remove the Hold state
   \   00007A   90....       MOV     DPTR,#devState
   \   00007D   7401         MOV     A,#0x1
   \   00007F   F0           MOVX    @DPTR,A
    664          
    665              // Initialize leave control logic
    666              ZDApp_LeaveCtrlInit();
   \   000080                ; Setup parameters for call to function ZDApp_LeaveCtrlInit
   \   000080   12....       LCALL   ??ZDApp_LeaveCtrlInit?relay
    667          
    668              // Check leave control reset settings
    669              ZDApp_LeaveCtrlStartup( &devState, &startDelay );
   \   000083                ; Setup parameters for call to function ZDApp_LeaveCtrlStartup
   \   000083   85..82       MOV     DPL,?XSP + 0
   \   000086   85..83       MOV     DPH,?XSP + 1
   \   000089   AC82         MOV     R4,DPL
   \   00008B   AD83         MOV     R5,DPH
   \   00008D   7A..         MOV     R2,#devState & 0xff
   \   00008F   7B..         MOV     R3,#(devState >> 8) & 0xff
   \   000091   12....       LCALL   ??ZDApp_LeaveCtrlStartup?relay
    670          
    671              // Leave may make the hold state come back
    672              if ( devState == DEV_HOLD )
   \   000094   90....       MOV     DPTR,#devState
   \   000097   E0           MOVX    A,@DPTR
   \   000098   700E         JNZ     ??ZDOInitDevice_6
    673              {
    674                // Set the NV startup option to force a "new" join.
    675                zgWriteStartupOptions( ZG_STARTUP_SET, ZCD_STARTOPT_DEFAULT_NETWORK_STATE );
   \   00009A                ; Setup parameters for call to function zgWriteStartupOptions
   \   00009A   7A02         MOV     R2,#0x2
   \   00009C   79FF         MOV     R1,#-0x1
   \   00009E   12....       LCALL   ??zgWriteStartupOptions?relay
    676          
    677                // Notify the applications
    678                osal_set_event( ZDAppTaskID, ZDO_STATE_CHANGE_EVT );
   \   0000A1                ; Setup parameters for call to function osal_set_event
   \   0000A1   12....       LCALL   ?Subroutine17 & 0xFFFF
    679          
    680                return ( ZDO_INITDEV_LEAVE_NOT_STARTED );   // Don't join - (one time).
   \                     ??CrossCallReturnLabel_122:
   \   0000A4   7902         MOV     R1,#0x2
   \   0000A6   8011         SJMP    ??ZDOInitDevice_7
    681              }
    682          
    683              // Trigger the network start
    684              ZDApp_NetworkInit( extendedDelay );
   \                     ??ZDOInitDevice_6:
   \   0000A8                ; Setup parameters for call to function ZDApp_NetworkInit
   \   0000A8   EE           MOV     A,R6
   \   0000A9   FA           MOV     R2,A
   \   0000AA   EF           MOV     A,R7
   \   0000AB   FB           MOV     R3,A
   \   0000AC   12....       LCALL   ??ZDApp_NetworkInit?relay
    685            }
    686          
    687            // set broadcast address mask to support broadcast filtering
    688            NLME_SetBroadcastFilter( ZDO_Config_Node_Descriptor.CapabilityFlags );
   \                     ??ZDOInitDevice_5:
   \   0000AF                ; Setup parameters for call to function NLME_SetBroadcastFilter
   \   0000AF   90....       MOV     DPTR,#ZDO_Config_Node_Descriptor + 2
   \   0000B2   E0           MOVX    A,@DPTR
   \   0000B3   F9           MOV     R1,A
   \   0000B4   12....       LCALL   ??NLME_SetBroadcastFilter?relay
    689          
    690            return ( networkStateNV );
   \   0000B7   A9..         MOV     R1,?V0 + 0
   \                     ??ZDOInitDevice_7:
   \   0000B9   7402         MOV     A,#0x2
   \   0000BB   80..         SJMP    ??Subroutine44_0
    691          }

   \                                 In  segment BANKED_CODE, align 1, keep-with-next
   \                     ??Subroutine44_0:
   \   000000   12....       LCALL   ?DEALLOC_XSTACK8
   \   000003                REQUIRE ??Subroutine45_0
   \   000003                ; // Fall through to label ??Subroutine45_0

   \                                 In  segment BANKED_CODE, align 1, keep-with-next
   \                     ??Subroutine45_0:
   \   000000   7F04         MOV     R7,#0x4
   \   000002   02....       LJMP    ?BANKED_LEAVE_XDATA

   \                                 In  segment BANKED_CODE, align 1, keep-with-next
   \                     ?Subroutine13:
   \   000000   85..82       MOV     DPL,?XSP + 0
   \   000003   85..83       MOV     DPH,?XSP + 1
   \   000006                REQUIRE ??Subroutine64_0
   \   000006                ; // Fall through to label ??Subroutine64_0
    692          
    693          /*********************************************************************
    694           * @fn      ZDApp_ReadNetworkRestoreState
    695           *
    696           * @brief   Read the ZCD_NV_STARTUP_OPTION NV Item to state whether
    697           *          or not to restore the network state.
    698           *          If the read value has the ZCD_STARTOPT_DEFAULT_NETWORK_STATE
    699           *          bit set return the ZDO_INITDEV_NEW_NETWORK_STATE.
    700           *
    701           * @param   none
    702           *
    703           * @return  ZDO_INITDEV_NEW_NETWORK_STATE
    704           *          or ZDO_INITDEV_RESTORED_NETWORK_STATE based on whether or
    705           *          not ZCD_STARTOPT_DEFAULT_NETWORK_STATE bit is set in
    706           *          ZCD_NV_STARTUP_OPTION
    707           */

   \                                 In  segment BANKED_CODE, align 1, keep-with-next
    708          uint8 ZDApp_ReadNetworkRestoreState( void )
   \                     ZDApp_ReadNetworkRestoreState:
    709          {
   \   000000   74F7         MOV     A,#-0x9
   \   000002   12....       LCALL   ?BANKED_ENTER_XDATA
   \   000005                ; Saved register size: 9
   \   000005                ; Auto size: 0
    710            uint8 networkStateNV = ZDO_INITDEV_RESTORED_NETWORK_STATE;
   \   000005   7E00         MOV     R6,#0x0
    711          
    712            // Look for the New Network State option.
    713            if ( zgReadStartupOptions() & ZCD_STARTOPT_DEFAULT_NETWORK_STATE )
   \   000007                ; Setup parameters for call to function zgReadStartupOptions
   \   000007   12....       LCALL   ??zgReadStartupOptions?relay
   \   00000A   E9           MOV     A,R1
   \   00000B   A2E1         MOV     C,0xE0 /* A   */.1
   \   00000D   5001         JNC     ??ZDApp_ReadNetworkRestoreState_0
    714            {
    715              networkStateNV = ZDO_INITDEV_NEW_NETWORK_STATE;
   \   00000F   0E           INC     R6
    716            }
    717          
    718            return ( networkStateNV );
   \                     ??ZDApp_ReadNetworkRestoreState_0:
   \   000010   EE           MOV     A,R6
   \   000011   F9           MOV     R1,A
   \   000012   02....       LJMP    ??Subroutine51_0 & 0xFFFF
    719          }
    720          
    721          /*********************************************************************
    722           * @fn      ZDAppDetermineDeviceType()
    723           *
    724           * @brief   Determines the type of device to start.
    725           *
    726           *          Looks at zgDeviceLogicalType and determines what type of
    727           *          device to start.  The types are:
    728           *            ZG_DEVICETYPE_COORDINATOR
    729           *            ZG_DEVICETYPE_ROUTER
    730           *            ZG_DEVICETYPE_ENDDEVICE
    731           *
    732           * @param   none
    733           *
    734           * @return  none
    735           */

   \                                 In  segment BANKED_CODE, align 1, keep-with-next
    736          void ZDAppDetermineDeviceType( void )
   \                     ZDAppDetermineDeviceType:
    737          {
   \   000000   C082         PUSH    DPL
   \   000002   C083         PUSH    DPH
   \   000004                ; Saved register size: 2
   \   000004                ; Auto size: 0
    738            if ( zgDeviceLogicalType == ZG_DEVICETYPE_COORDINATOR )
   \   000004   90....       MOV     DPTR,#zgDeviceLogicalType
   \   000007   E0           MOVX    A,@DPTR
   \   000008   700E         JNZ     ??ZDAppDetermineDeviceType_0
    739            {
    740              devStartMode = MODE_HARD;     // Start as a coordinator
   \   00000A   90....       MOV     DPTR,#devStartMode
   \   00000D   7402         MOV     A,#0x2
   \   00000F   F0           MOVX    @DPTR,A
    741              ZDO_Config_Node_Descriptor.LogicalType = NODETYPE_COORDINATOR;
   \   000010   90....       MOV     DPTR,#ZDO_Config_Node_Descriptor
   \   000013   E0           MOVX    A,@DPTR
   \   000014   54F8         ANL     A,#0xf8
   \   000016   802E         SJMP    ??ZDAppDetermineDeviceType_1
    742            }
    743            else
    744            {
    745              if ( zgDeviceLogicalType == ZG_DEVICETYPE_ROUTER  )
   \                     ??ZDAppDetermineDeviceType_0:
   \   000018   6401         XRL     A,#0x1
   \   00001A   700A         JNZ     ??ZDAppDetermineDeviceType_2
    746                ZDO_Config_Node_Descriptor.LogicalType = NODETYPE_ROUTER;
   \   00001C   90....       MOV     DPTR,#ZDO_Config_Node_Descriptor
   \   00001F   E0           MOVX    A,@DPTR
   \   000020   54F8         ANL     A,#0xf8
   \   000022   4401         ORL     A,#0x1
   \   000024   800D         SJMP    ??ZDAppDetermineDeviceType_3
    747              else if ( zgDeviceLogicalType == ZG_DEVICETYPE_ENDDEVICE )
   \                     ??ZDAppDetermineDeviceType_2:
   \   000026   E0           MOVX    A,@DPTR
   \   000027   6402         XRL     A,#0x2
   \   000029   7009         JNZ     ??ZDAppDetermineDeviceType_4
    748                ZDO_Config_Node_Descriptor.LogicalType = NODETYPE_DEVICE;
   \   00002B   90....       MOV     DPTR,#ZDO_Config_Node_Descriptor
   \   00002E   E0           MOVX    A,@DPTR
   \   00002F   54F8         ANL     A,#0xf8
   \   000031   4402         ORL     A,#0x2
   \                     ??ZDAppDetermineDeviceType_3:
   \   000033   F0           MOVX    @DPTR,A
    749          
    750              // If AIB_apsUseExtendedPANID is set to a non-zero value by commissioning
    751              // The device shall do rejoin the network. Otherwise, do normal join
    752              if ( nwk_ExtPANIDValid( AIB_apsUseExtendedPANID ) == false )
   \                     ??ZDAppDetermineDeviceType_4:
   \   000034                ; Setup parameters for call to function nwk_ExtPANIDValid
   \   000034   7A..         MOV     R2,#AIB_apsUseExtendedPANID & 0xff
   \   000036   7B..         MOV     R3,#(AIB_apsUseExtendedPANID >> 8) & 0xff
   \   000038   12....       LCALL   ??nwk_ExtPANIDValid?relay
   \   00003B   E9           MOV     A,R1
   \   00003C   90....       MOV     DPTR,#devStartMode
   \   00003F   7003         JNZ     ??ZDAppDetermineDeviceType_5
    753              {
    754                devStartMode = MODE_JOIN;     // Assume joining
   \   000041   E4           CLR     A
   \   000042   8002         SJMP    ??ZDAppDetermineDeviceType_1
    755              }
    756              else
    757              {
    758                devStartMode = MODE_REJOIN;
   \                     ??ZDAppDetermineDeviceType_5:
   \   000044   7403         MOV     A,#0x3
   \                     ??ZDAppDetermineDeviceType_1:
   \   000046   F0           MOVX    @DPTR,A
    759              }
    760            }
    761          }
   \   000047   02....       LJMP    ??Subroutine50_0 & 0xFFFF

   \                                 In  segment BANKED_CODE, align 1, keep-with-next
   \                     ??Subroutine50_0:
   \   000000   D083         POP     DPH
   \   000002   D082         POP     DPL
   \   000004   02....       LJMP    ?BRET
    762          
    763          /*********************************************************************
    764           * @fn      ZDApp_NetworkStartEvt()
    765           *
    766           * @brief   Process the Network Start Event
    767           *
    768           * @param   none
    769           *
    770           * @return  none
    771           */

   \                                 In  segment BANKED_CODE, align 1, keep-with-next
    772          void ZDApp_NetworkStartEvt( void )
   \                     ZDApp_NetworkStartEvt:
    773          {
   \   000000   C082         PUSH    DPL
   \   000002   C083         PUSH    DPH
   \   000004                ; Saved register size: 2
   \   000004                ; Auto size: 0
    774            if ( nwkStatus == ZSuccess )
   \   000004   90....       MOV     DPTR,#nwkStatus
   \   000007   E0           MOVX    A,@DPTR
   \   000008   7012         JNZ     ??ZDApp_NetworkStartEvt_0
    775            {
    776              // Successfully started a ZigBee network
    777              if ( devState == DEV_COORD_STARTING )
   \   00000A   90....       MOV     DPTR,#devState
   \   00000D   E0           MOVX    A,@DPTR
   \   00000E   6408         XRL     A,#0x8
   \   000010   7003         JNZ     ??ZDApp_NetworkStartEvt_1
    778              {
    779                devState = DEV_ZB_COORD;
   \   000012   7409         MOV     A,#0x9
   \   000014   F0           MOVX    @DPTR,A
    780              }
    781          
    782              osal_pwrmgr_device( PWRMGR_ALWAYS_ON );
   \                     ??ZDApp_NetworkStartEvt_1:
   \   000015                ; Setup parameters for call to function osal_pwrmgr_device
   \   000015   7900         MOV     R1,#0x0
   \   000017   12....       LCALL   ??osal_pwrmgr_device?relay
    783              osal_set_event( ZDAppTaskID, ZDO_STATE_CHANGE_EVT );
   \   00001A                ; Setup parameters for call to function osal_set_event
   \   00001A   802B         SJMP    ??ZDApp_NetworkStartEvt_2
    784            }
    785            else
    786            {
    787              // Try again with a higher energy threshold !!
    788              if ( ( NLME_GetEnergyThreshold() + ENERGY_SCAN_INCREMENT ) < 0xff )
   \                     ??ZDApp_NetworkStartEvt_0:
   \   00001C                ; Setup parameters for call to function NLME_GetEnergyThreshold
   \   00001C   12....       LCALL   ??NLME_GetEnergyThreshold?relay
   \   00001F   E9           MOV     A,R1
   \   000020   2410         ADD     A,#0x10
   \   000022   F8           MOV     R0,A
   \   000023   E4           CLR     A
   \   000024   3400         ADDC    A,#0x0
   \   000026   F9           MOV     R1,A
   \   000027   E8           MOV     A,R0
   \   000028   94FF         SUBB    A,#-0x1
   \   00002A   E9           MOV     A,R1
   \   00002B   9400         SUBB    A,#0x0
   \   00002D   C3           CLR     C
   \   00002E   65D0         XRL     A,PSW
   \   000030   33           RLC     A
   \   000031   500E         JNC     ??ZDApp_NetworkStartEvt_3
    789              {
    790                NLME_SetEnergyThreshold( (uint8)(NLME_GetEnergyThreshold() + ENERGY_SCAN_INCREMENT) );
   \   000033                ; Setup parameters for call to function NLME_SetEnergyThreshold
   \   000033                ; Setup parameters for call to function NLME_GetEnergyThreshold
   \   000033   12....       LCALL   ??NLME_GetEnergyThreshold?relay
   \   000036   E9           MOV     A,R1
   \   000037   2410         ADD     A,#0x10
   \   000039   F9           MOV     R1,A
   \   00003A   12....       LCALL   ??NLME_SetEnergyThreshold?relay
    791                osal_set_event( ZDAppTaskID, ZDO_NETWORK_INIT );
   \   00003D                ; Setup parameters for call to function osal_set_event
   \   00003D   7A01         MOV     R2,#0x1
   \   00003F   8008         SJMP    ??ZDApp_NetworkStartEvt_4
    792              }
    793              else
    794              {
    795                // Failed to start network. Enter a dormant state (until user intervenes)
    796                devState = DEV_INIT;
   \                     ??ZDApp_NetworkStartEvt_3:
   \   000041   90....       MOV     DPTR,#devState
   \   000044   7401         MOV     A,#0x1
   \   000046   F0           MOVX    @DPTR,A
    797                osal_set_event( ZDAppTaskID, ZDO_STATE_CHANGE_EVT );
   \   000047                ; Setup parameters for call to function osal_set_event
   \                     ??ZDApp_NetworkStartEvt_2:
   \   000047   7A10         MOV     R2,#0x10
    798              }
    799            }
   \                     ??ZDApp_NetworkStartEvt_4:
   \   000049   12....       LCALL   ??Subroutine62_0 & 0xFFFF
    800          }
   \                     ??CrossCallReturnLabel_126:
   \   00004C   02....       LJMP    ??Subroutine50_0 & 0xFFFF
    801          
    802          /*********************************************************************
    803           * @fn      ZDApp_DeviceAuthEvt()
    804           *
    805           * @brief   Process the Device Authentic Event
    806           *
    807           * @param   none
    808           *
    809           * @return  none
    810           */

   \                                 In  segment BANKED_CODE, align 1, keep-with-next
    811          void ZDApp_DeviceAuthEvt( void )
   \                     ZDApp_DeviceAuthEvt:
    812          {
   \   000000   C082         PUSH    DPL
   \   000002   C083         PUSH    DPH
   \   000004                ; Saved register size: 2
   \   000004                ; Auto size: 0
    813            // received authentication from trust center
    814            if ( devState == DEV_END_DEVICE_UNAUTH )
   \   000004   90....       MOV     DPTR,#devState
   \   000007   E0           MOVX    A,@DPTR
   \   000008   6405         XRL     A,#0x5
   \   00000A   7030         JNZ     ??ZDApp_DeviceAuthEvt_0
    815            {
    816              // Stop the reset timer so it doesn't reset
    817              ZDApp_ResetTimerCancel();
   \   00000C                ; Setup parameters for call to function ZDApp_ResetTimerCancel
   \   00000C   12....       LCALL   ??ZDApp_ResetTimerCancel?relay
    818          
    819              devState = DEV_END_DEVICE;
   \   00000F   12....       LCALL   ?Subroutine8 & 0xFFFF
    820              osal_set_event( ZDAppTaskID, ZDO_STATE_CHANGE_EVT );
    821          
    822              // Set the Power Manager Device
    823          #if defined ( POWER_SAVING )
    824              osal_pwrmgr_device( PWRMGR_BATTERY );
    825          #endif
    826          
    827              if ( ZSTACK_ROUTER_BUILD )
    828              {
    829                if ( ZDO_Config_Node_Descriptor.LogicalType != NODETYPE_DEVICE )
   \                     ??CrossCallReturnLabel_70:
   \   000012   12....       LCALL   ?Subroutine20 & 0xFFFF
   \                     ??CrossCallReturnLabel_23:
   \   000015   6009         JZ      ??ZDApp_DeviceAuthEvt_1
    830                {
    831                  // NOTE: first two parameters are not used, see NLMEDE.h for details
    832                  NLME_StartRouterRequest( 0, 0, false );
   \   000017                ; Setup parameters for call to function NLME_StartRouterRequest
   \   000017   7B00         MOV     R3,#0x0
   \   000019   7A00         MOV     R2,#0x0
   \   00001B   7900         MOV     R1,#0x0
   \   00001D   12....       LCALL   ??NLME_StartRouterRequest?relay
    833                }
    834              }
    835          
    836              // Notify to save info into NV
    837              ZDApp_NVUpdate();
   \                     ??ZDApp_DeviceAuthEvt_1:
   \   000020                ; Setup parameters for call to function ZDApp_NVUpdate
   \   000020   12....       LCALL   ??ZDApp_NVUpdate?relay
    838          
    839              // Save off the security
    840              ZDApp_SaveNwkKey();
   \   000023                ; Setup parameters for call to function ZDApp_SaveNwkKey
   \   000023   12....       LCALL   ??ZDApp_SaveNwkKey?relay
    841          
    842              ZDApp_AnnounceNewAddress();
   \   000026                ; Setup parameters for call to function ZDApp_AnnounceNewAddress
   \   000026   12....       LCALL   ??ZDApp_AnnounceNewAddress?relay
    843          
    844              if ( (ZDO_Config_Node_Descriptor.CapabilityFlags & CAPINFO_RCVR_ON_IDLE) == 0 )
   \   000029   90....       MOV     DPTR,#ZDO_Config_Node_Descriptor + 2
   \   00002C   E0           MOVX    A,@DPTR
   \   00002D   A2E3         MOV     C,0xE0 /* A   */.3
   \   00002F   400E         JC      ??ZDApp_DeviceAuthEvt_2
    845              {
    846                NLME_SetPollRate( ZDApp_SavedPollRate );
   \   000031                ; Setup parameters for call to function NLME_SetPollRate
   \   000031   90....       MOV     DPTR,#ZDApp_SavedPollRate
   \   000034   12....       LCALL   ?Subroutine40 & 0xFFFF
    847              }
    848            }
   \                     ??CrossCallReturnLabel_60:
   \   000037   12....       LCALL   ??NLME_SetPollRate?relay
   \   00003A   8003         SJMP    ??ZDApp_DeviceAuthEvt_2
    849            else
    850            {
    851              ZDApp_NVUpdate();
   \                     ??ZDApp_DeviceAuthEvt_0:
   \   00003C                ; Setup parameters for call to function ZDApp_NVUpdate
   \   00003C   12....       LCALL   ??ZDApp_NVUpdate?relay
    852            }
    853          }
   \                     ??ZDApp_DeviceAuthEvt_2:
   \   00003F   02....       LJMP    ??Subroutine50_0 & 0xFFFF

   \                                 In  segment BANKED_CODE, align 1, keep-with-next
   \                     ?Subroutine8:
   \   000000   90....       MOV     DPTR,#devState
   \   000003   7406         MOV     A,#0x6
   \   000005                REQUIRE ??Subroutine46_0
   \   000005                ; // Fall through to label ??Subroutine46_0

   \                                 In  segment BANKED_CODE, align 1, keep-with-next
   \                     ?Subroutine20:
   \   000000   90....       MOV     DPTR,#ZDO_Config_Node_Descriptor
   \   000003   E0           MOVX    A,@DPTR
   \   000004   5407         ANL     A,#0x7
   \   000006   6402         XRL     A,#0x2
   \   000008   22           RET

   \                                 In  segment BANKED_CODE, align 1, keep-with-next
   \                     ?Subroutine40:
   \   000000   E0           MOVX    A,@DPTR
   \   000001   FA           MOV     R2,A
   \   000002   A3           INC     DPTR
   \   000003   E0           MOVX    A,@DPTR
   \   000004   FB           MOV     R3,A
   \   000005   22           RET
    854          
    855          /*********************************************************************
    856           * @fn      ZDApp_SaveNetworkStateEvt()
    857           *
    858           * @brief   Process the Save the Network State Event
    859           *
    860           * @param   none
    861           *
    862           * @return  none
    863           * 包括把_NIB　和设备列表，绑定表，管理表地址写入NV，但是好像没用，连最基本的panid都没有写入到
    864          * ZCD_NV_PANID中 ##czv7
    865           */

   \                                 In  segment BANKED_CODE, align 1, keep-with-next
    866          void ZDApp_SaveNetworkStateEvt( void )
   \                     ZDApp_SaveNetworkStateEvt:
    867          {
   \   000000   C082         PUSH    DPL
   \   000002   C083         PUSH    DPH
   \   000004                ; Saved register size: 2
   \   000004                ; Auto size: 0
    868          #if defined ( NV_RESTORE )
    869           #if defined ( NV_TURN_OFF_RADIO )
    870            // Turn off the radio's receiver during an NV update //czv7关闭无线发射
    871            uint8 RxOnIdle;
    872            uint8 x = false;
    873            ZMacGetReq( ZMacRxOnIdle, &RxOnIdle );
    874            ZMacSetReq( ZMacRxOnIdle, &x );
    875           #endif
    876          
    877            // Update the Network State in NV
    878            NLME_UpdateNV( NWK_NV_NIB_ENABLE        |
    879                           NWK_NV_DEVICELIST_ENABLE |
    880                           NWK_NV_BINDING_ENABLE    |
    881                           NWK_NV_ADDRMGR_ENABLE );
   \   000004                ; Setup parameters for call to function NLME_UpdateNV
   \   000004   790F         MOV     R1,#0xf
   \   000006   12....       LCALL   ??NLME_UpdateNV?relay
    882          
    883            // Reset the NV startup option to resume from NV by
    884            // clearing the "New" join option.
    885            zgWriteStartupOptions( FALSE, ZCD_STARTOPT_DEFAULT_NETWORK_STATE );
   \   000009                ; Setup parameters for call to function zgWriteStartupOptions
   \   000009   7A02         MOV     R2,#0x2
   \   00000B   7900         MOV     R1,#0x0
   \   00000D   12....       LCALL   ??zgWriteStartupOptions?relay
    886          
    887           #if defined ( NV_TURN_OFF_RADIO )
    888            ZMacSetReq( ZMacRxOnIdle, &RxOnIdle );
    889           #endif
    890          #endif  // NV_RESTORE
    891          }
   \   000010   02....       LJMP    ??Subroutine50_0 & 0xFFFF
    892          
    893          /*********************************************************************
    894           * @fn      ZDApp_RestoreNetworkState()
    895           *
    896           * @brief   This function will restore the network state of the
    897           *          device if the network state is stored in NV.
    898           *
    899           * @param   none
    900           *
    901           * @return
    902           *    ZDO_INITDEV_RESTORED_NETWORK_STATE  - The device's network state was
    903           *          restored.
    904           *    ZDO_INITDEV_NEW_NETWORK_STATE - The network state was not used.
    905           *          This could mean that zgStartupOption said to not restore, or
    906           *          it could mean that there was no network state to restore.
    907           *
    908           */

   \                                 In  segment BANKED_CODE, align 1, keep-with-next
    909          uint8 ZDApp_RestoreNetworkState( void )
   \                     ZDApp_RestoreNetworkState:
    910          {
   \   000000   74F7         MOV     A,#-0x9
   \   000002   12....       LCALL   ?BANKED_ENTER_XDATA
   \   000005                ; Saved register size: 9
   \   000005                ; Auto size: 0
    911            uint8 nvStat;
    912          
    913            // Initialize NWK NV items
    914            nvStat = NLME_InitNV();
   \   000005                ; Setup parameters for call to function NLME_InitNV
   \   000005   12....       LCALL   ??NLME_InitNV?relay
   \   000008   E9           MOV     A,R1
   \   000009   FE           MOV     R6,A
    915          
    916            if ( nvStat != NV_OPER_FAILED )
   \   00000A   740A         MOV     A,#0xa
   \   00000C   6E           XRL     A,R6
   \   00000D   602D         JZ      ??ZDApp_RestoreNetworkState_0
    917            {
    918              if ( NLME_RestoreFromNV() )
   \   00000F                ; Setup parameters for call to function NLME_RestoreFromNV
   \   00000F   12....       LCALL   ??NLME_RestoreFromNV?relay
   \   000012   E9           MOV     A,R1
   \   000013   6027         JZ      ??ZDApp_RestoreNetworkState_0
    919              {
    920                // Are we a coordinator
    921                ZDAppNwkAddr.addr.shortAddr = NLME_GetShortAddr();
   \   000015                ; Setup parameters for call to function NLME_GetShortAddr
   \   000015   12....       LCALL   ??NLME_GetShortAddr?relay
   \   000018   90....       MOV     DPTR,#ZDAppNwkAddr
   \   00001B   12....       LCALL   ??Subroutine64_0 & 0xFFFF
    922                if ( ZDAppNwkAddr.addr.shortAddr == 0 )
   \                     ??CrossCallReturnLabel_131:
   \   00001E   90....       MOV     DPTR,#ZDAppNwkAddr
   \   000021   12....       LCALL   ?Subroutine14 & 0xFFFF
   \                     ??CrossCallReturnLabel_8:
   \   000024   7007         JNZ     ??ZDApp_RestoreNetworkState_1
    923                  ZDO_Config_Node_Descriptor.LogicalType = NODETYPE_COORDINATOR;
   \   000026   90....       MOV     DPTR,#ZDO_Config_Node_Descriptor
   \   000029   E0           MOVX    A,@DPTR
   \   00002A   54F8         ANL     A,#0xf8
   \   00002C   F0           MOVX    @DPTR,A
    924                devStartMode = MODE_RESUME;
   \                     ??ZDApp_RestoreNetworkState_1:
   \   00002D   90....       MOV     DPTR,#devStartMode
   \   000030   7401         MOV     A,#0x1
   \   000032   12....       LCALL   ?Subroutine9 & 0xFFFF
    925                osal_cpyExtAddr( ZDO_UseExtendedPANID, _NIB.extendedPANID );
    926              }
    927              else
    928                nvStat = NV_ITEM_UNINIT;
    929          
    930              if ( ZG_SECURE_ENABLED )
    931              {
    932                nwkFrameCounterChanges = 0;
    933          
    934                if ( ZG_BUILD_COORDINATOR_TYPE && ZG_DEVICE_COORDINATOR_TYPE )
    935                {
    936                  ZDApp_RestoreNwkKey();
    937                }
    938              }
    939          
    940              // The default for RxOnWhenIdle is true for Routers and false for end devices
    941              // [setup in the NLME_RestoreFromNV()].  Change it here if you want something
    942              // other than default.
    943            }
    944          
    945            if ( nvStat == ZSUCCESS )
   \                     ??CrossCallReturnLabel_0:
   \   000035   EE           MOV     A,R6
   \   000036   7004         JNZ     ??ZDApp_RestoreNetworkState_0
    946              return ( ZDO_INITDEV_RESTORED_NETWORK_STATE );
   \   000038   7900         MOV     R1,#0x0
   \   00003A   8002         SJMP    ??ZDApp_RestoreNetworkState_2
    947            else
    948              return ( ZDO_INITDEV_NEW_NETWORK_STATE );
   \                     ??ZDApp_RestoreNetworkState_0:
   \   00003C   7901         MOV     R1,#0x1
   \                     ??ZDApp_RestoreNetworkState_2:
   \   00003E   02....       LJMP    ??Subroutine51_0 & 0xFFFF
    949          }

   \                                 In  segment BANKED_CODE, align 1, keep-with-next
   \                     ?Subroutine9:
   \   000000   F0           MOVX    @DPTR,A
   \   000001                ; Setup parameters for call to function sAddrExtCpy
   \   000001                ; Setup parameters for call to function sAddrExtCpy
   \   000001   7C..         MOV     R4,#(_NIB + 53) & 0xff
   \   000003   7D..         MOV     R5,#((_NIB + 53) >> 8) & 0xff
   \   000005   7A..         MOV     R2,#ZDO_UseExtendedPANID & 0xff
   \   000007   7B..         MOV     R3,#(ZDO_UseExtendedPANID >> 8) & 0xff
   \   000009   12....       LCALL   ??sAddrExtCpy?relay
   \   00000C   22           RET

   \                                 In  segment BANKED_CODE, align 1, keep-with-next
   \                     ?Subroutine14:
   \   000000   E0           MOVX    A,@DPTR
   \   000001   F8           MOV     R0,A
   \   000002   A3           INC     DPTR
   \   000003   E0           MOVX    A,@DPTR
   \   000004   F9           MOV     R1,A
   \   000005   E8           MOV     A,R0
   \   000006   49           ORL     A,R1
   \   000007   22           RET
    950          
    951          /*********************************************************************
    952           * @fn      ZDApp_InitUserDesc()
    953           *
    954           * @brief   Initialize the User Descriptor, the descriptor is read from NV
    955           *          when needed.  If you want to initialize the User descriptor to
    956           *          something other than all zero, do it here.
    957           *
    958           * @param   none
    959           *
    960           * @return  none
    961           */

   \                                 In  segment BANKED_CODE, align 1, keep-with-next
    962          void ZDApp_InitUserDesc( void )
   \                     ZDApp_InitUserDesc:
    963          {
   \   000000   74F6         MOV     A,#-0xa
   \   000002   12....       LCALL   ?BANKED_ENTER_XDATA
   \   000005                ; Saved register size: 10
   \   000005                ; Auto size: 17
   \   000005   74EF         MOV     A,#-0x11
   \   000007   12....       LCALL   ?ALLOC_XSTACK8
    964            UserDescriptorFormat_t ZDO_DefaultUserDescriptor;
    965          
    966            // Initialize the User Descriptor, the descriptor is read from NV
    967            // when needed.  If you want to initialize the User descriptor to something
    968            // other than all zero, do it here.
    969            osal_memset( &ZDO_DefaultUserDescriptor, 0, sizeof( UserDescriptorFormat_t ) );
   \   00000A                ; Setup parameters for call to function osal_memset
   \   00000A   7C11         MOV     R4,#0x11
   \   00000C   12....       LCALL   ?Subroutine33 & 0xFFFF
    970            if ( ZSUCCESS == osal_nv_item_init( ZCD_NV_USERDESC,
    971                   sizeof(UserDescriptorFormat_t), (void*)&ZDO_DefaultUserDescriptor ) )
   \                     ??CrossCallReturnLabel_44:
   \   00000F   12....       LCALL   ?PUSH_XSTACK_I_TWO
   \   000012   7C11         MOV     R4,#0x11
   \   000014   7D00         MOV     R5,#0x0
   \   000016   7A81         MOV     R2,#-0x7f
   \   000018   7B00         MOV     R3,#0x0
   \   00001A   12....       LCALL   ??osal_nv_item_init?relay
   \   00001D   7402         MOV     A,#0x2
   \   00001F   12....       LCALL   ?DEALLOC_XSTACK8
   \   000022   E9           MOV     A,R1
   \   000023   702F         JNZ     ??ZDApp_InitUserDesc_0
    972            {
    973              if ( ZSUCCESS == osal_nv_read( ZCD_NV_USERDESC, 0,
    974                   sizeof(UserDescriptorFormat_t), (void*)&ZDO_DefaultUserDescriptor ) )
   \   000025                ; Setup parameters for call to function osal_nv_read
   \   000025   78..         MOV     R0,#?V0 + 0
   \   000027   12....       LCALL   ?PUSH_XSTACK_I_TWO
   \   00002A   75..11       MOV     ?V0 + 0,#0x11
   \   00002D   75..00       MOV     ?V0 + 1,#0x0
   \   000030   78..         MOV     R0,#?V0 + 0
   \   000032   12....       LCALL   ?PUSH_XSTACK_I_TWO
   \   000035   7C00         MOV     R4,#0x0
   \   000037   7D00         MOV     R5,#0x0
   \   000039   7A81         MOV     R2,#-0x7f
   \   00003B   12....       LCALL   ?Subroutine35 & 0xFFFF
   \                     ??CrossCallReturnLabel_46:
   \   00003E   12....       LCALL   ?DEALLOC_XSTACK8
   \   000041   E9           MOV     A,R1
   \   000042   7010         JNZ     ??ZDApp_InitUserDesc_0
    975              {
    976                if ( ZDO_DefaultUserDescriptor.len != 0 )
   \   000044   85..82       MOV     DPL,?XSP + 0
   \   000047   85..83       MOV     DPH,?XSP + 1
   \   00004A   E0           MOVX    A,@DPTR
   \   00004B   6007         JZ      ??ZDApp_InitUserDesc_0
    977                {
    978                  ZDO_Config_Node_Descriptor.UserDescAvail = TRUE;
   \   00004D   90....       MOV     DPTR,#ZDO_Config_Node_Descriptor
   \   000050   E0           MOVX    A,@DPTR
   \   000051   D2E4         SETB    0xE0 /* A   */.4
   \   000053   F0           MOVX    @DPTR,A
    979                }
    980              }
    981            }
    982          }
   \                     ??ZDApp_InitUserDesc_0:
   \   000054   7411         MOV     A,#0x11
   \   000056   02....       LJMP    ??Subroutine60_0 & 0xFFFF

   \                                 In  segment BANKED_CODE, align 1, keep-with-next
   \                     ?Subroutine33:
   \   000000   7D00         MOV     R5,#0x0
   \   000002   7900         MOV     R1,#0x0
   \   000004   85..82       MOV     DPL,?XSP + 0
   \   000007   85..83       MOV     DPH,?XSP + 1
   \   00000A   AA82         MOV     R2,DPL
   \   00000C   AB83         MOV     R3,DPH
   \   00000E   12....       LCALL   ??osal_memset?relay
   \   000011                ; Setup parameters for call to function osal_nv_item_init
   \   000011                ; Setup parameters for call to function osal_nv_write
   \   000011   85..82       MOV     DPL,?XSP + 0
   \   000014   85..83       MOV     DPH,?XSP + 1
   \   000017   8582..       MOV     ?V0 + 0,DPL
   \   00001A   8583..       MOV     ?V0 + 1,DPH
   \   00001D   78..         MOV     R0,#?V0 + 0
   \   00001F   22           RET

   \                                 In  segment BANKED_CODE, align 1, keep-with-next
   \                     ?Subroutine35:
   \   000000   7B00         MOV     R3,#0x0
   \   000002   12....       LCALL   ??osal_nv_read?relay
   \   000005   7404         MOV     A,#0x4
   \   000007   22           RET

   \                                 In  segment BANKED_CODE, align 1, keep-with-next
   \                     ??Subroutine60_0:
   \   000000   12....       LCALL   ?DEALLOC_XSTACK8
   \   000003                REQUIRE ??Subroutine61_0
   \   000003                ; // Fall through to label ??Subroutine61_0
    983          
    984          /*********************************************************************
    985           * @fn      ZDAppCheckForHoldKey()
    986           *
    987           * @brief   Check for key to set the device into Hold Auto Start
    988           *
    989           * @param   none
    990           *
    991           * @return  none
    992           */

   \                                 In  segment BANKED_CODE, align 1, keep-with-next
    993          void ZDAppCheckForHoldKey( void )
   \                     ZDAppCheckForHoldKey:
    994          {
   \   000000   C082         PUSH    DPL
   \   000002   C083         PUSH    DPH
   \   000004                ; Saved register size: 2
   \   000004                ; Auto size: 0
    995          #if (defined HAL_KEY) && (HAL_KEY == TRUE)
    996            // Get Keypad directly to see if a HOLD_START is needed.
    997            // Hold down the SW_BYPASS_START key (see OnBoard.h)
    998            // while booting to avoid starting up the device.
    999            if ( HalKeyRead () == SW_BYPASS_START)
   \   000004                ; Setup parameters for call to function HalKeyRead
   \   000004   12....       LCALL   ??HalKeyRead?relay
   \   000007   E9           MOV     A,R1
   \   000008   6401         XRL     A,#0x1
   \   00000A   7005         JNZ     ??ZDAppCheckForHoldKey_0
   1000            {
   1001              // Change the device state to HOLD on start up
   1002              devState = DEV_HOLD;
   \   00000C   90....       MOV     DPTR,#devState
   \   00000F   E4           CLR     A
   \   000010   F0           MOVX    @DPTR,A
   1003            }
   1004          #endif // HAL_KEY
   1005          }
   \                     ??ZDAppCheckForHoldKey_0:
   \   000011   02....       LJMP    ??Subroutine50_0 & 0xFFFF
   1006          
   1007          /*********************************************************************
   1008           * @fn      ZDApp_ProcessOSALMsg()
   1009           *
   1010           * @brief   Process the incoming task message.
   1011           *
   1012           * @param   msgPtr - message to process
   1013           *
   1014           * @return  none
   1015           */

   \                                 In  segment BANKED_CODE, align 1, keep-with-next
   1016          void ZDApp_ProcessOSALMsg( osal_event_hdr_t *msgPtr )
   \                     ZDApp_ProcessOSALMsg:
   1017          {
   \   000000   74F6         MOV     A,#-0xa
   \   000002   12....       LCALL   ?BANKED_ENTER_XDATA
   \   000005                ; Saved register size: 10
   \   000005                ; Auto size: 1
   \   000005   74FF         MOV     A,#-0x1
   \   000007   12....       LCALL   ?ALLOC_XSTACK8
   1018            // Data Confirmation message fields
   1019            uint8 sentEP;       // This should always be 0
   1020            uint8 sentStatus;
   1021            afDataConfirm_t *afDataConfirm;
   1022            uint8 tmp;
   1023          
   1024            switch ( msgPtr->event )
   \   00000A   8A82         MOV     DPL,R2
   \   00000C   8B83         MOV     DPH,R3
   \   00000E   E0           MOVX    A,@DPTR
   \   00000F   14           DEC     A
   \   000010   603B         JZ      ??ZDApp_ProcessOSALMsg_0
   \   000012   14           DEC     A
   \   000013   7003         JNZ     $+5
   \   000015   02....       LJMP    ??ZDApp_ProcessOSALMsg_1 & 0xFFFF
   \   000018   14           DEC     A
   \   000019   7003         JNZ     $+5
   \   00001B   02....       LJMP    ??ZDApp_ProcessOSALMsg_2 & 0xFFFF
   \   00001E   24E9         ADD     A,#-0x17
   \   000020   600B         JZ      ??ZDApp_ProcessOSALMsg_3
   \   000022   2447         ADD     A,#0x47
   \   000024   600D         JZ      ??ZDApp_ProcessOSALMsg_4
   \   000026   24D6         ADD     A,#-0x2a
   \   000028   600F         JZ      ??ZDApp_ProcessOSALMsg_5
   \   00002A   02....       LJMP    ??ZDApp_ProcessOSALMsg_6 & 0xFFFF
   1025            {
   1026              // Incoming ZDO Message
   1027              case AF_INCOMING_MSG_CMD:
   1028                ZDP_IncomingData( (afIncomingMSGPacket_t *)msgPtr );
   \                     ??ZDApp_ProcessOSALMsg_3:
   \   00002D                ; Setup parameters for call to function ZDP_IncomingData
   \   00002D   12....       LCALL   ??ZDP_IncomingData?relay
   1029                break;
   \   000030   02....       LJMP    ??ZDApp_ProcessOSALMsg_6 & 0xFFFF
   1030          
   1031              case ZDO_CB_MSG:
   1032                ZDApp_ProcessMsgCBs( (zdoIncomingMsg_t *)msgPtr );
   \                     ??ZDApp_ProcessOSALMsg_4:
   \   000033                ; Setup parameters for call to function ZDApp_ProcessMsgCBs
   \   000033   12....       LCALL   ??ZDApp_ProcessMsgCBs?relay
   1033                break;
   \   000036   02....       LJMP    ??ZDApp_ProcessOSALMsg_6 & 0xFFFF
   1034          
   1035              case AF_DATA_CONFIRM_CMD:
   1036                // This message is received as a confirmation of a data packet sent.
   1037                // The status is of ZStatus_t type [defined in NLMEDE.h]
   1038                // The message fields are defined in AF.h
   1039                afDataConfirm = (afDataConfirm_t *)msgPtr;
   1040                sentEP = afDataConfirm->endpoint;
   1041                sentStatus = afDataConfirm->hdr.status;
   1042          
   1043                // Action taken when confirmation is received.
   1044          #if defined ( ZIGBEE_FREQ_AGILITY )
   1045                if ( pZDNwkMgr_ProcessDataConfirm )
   \                     ??ZDApp_ProcessOSALMsg_5:
   \   000039   90....       MOV     DPTR,#pZDNwkMgr_ProcessDataConfirm
   \   00003C   12....       LCALL   ?Subroutine14 & 0xFFFF
   \                     ??CrossCallReturnLabel_9:
   \   00003F   7003         JNZ     $+5
   \   000041   02....       LJMP    ??ZDApp_ProcessOSALMsg_6 & 0xFFFF
   1046                  pZDNwkMgr_ProcessDataConfirm( afDataConfirm );
   \   000044                ; Setup parameters for indirect call
   \   000044   12....       LCALL   ??Subroutine59_0 & 0xFFFF
   \                     ??CrossCallReturnLabel_109:
   \   000047   12....       LCALL   ?CALL_IND
   \   00004A   02....       LJMP    ??ZDApp_ProcessOSALMsg_6 & 0xFFFF
   1047          #endif
   1048                (void)sentEP;
   1049                (void)sentStatus;
   1050                break;
   1051          
   1052              case ZDO_NWK_DISC_CNF:
   1053                if (devState != DEV_NWK_DISC)
   \                     ??ZDApp_ProcessOSALMsg_0:
   \   00004D   90....       MOV     DPTR,#devState
   \   000050   E0           MOVX    A,@DPTR
   \   000051   6402         XRL     A,#0x2
   \   000053   6003         JZ      $+5
   \   000055   02....       LJMP    ??ZDApp_ProcessOSALMsg_6 & 0xFFFF
   1054                  break;
   1055          
   1056                if ( ZG_BUILD_JOINING_TYPE && ZG_DEVICE_JOINING_TYPE )
   \   000058   90....       MOV     DPTR,#zgDeviceLogicalType
   \   00005B   E0           MOVX    A,@DPTR
   \   00005C   6401         XRL     A,#0x1
   \   00005E   6008         JZ      ??ZDApp_ProcessOSALMsg_7
   \   000060   E0           MOVX    A,@DPTR
   \   000061   6402         XRL     A,#0x2
   \   000063   6003         JZ      $+5
   \   000065   02....       LJMP    ??ZDApp_ProcessOSALMsg_6 & 0xFFFF
   1057                {
   1058                  // Process the network discovery scan results and choose a parent
   1059                  // device to join/rejoin itself
   1060                  networkDesc_t *pChosenNwk;
   1061                  if ( ( (pChosenNwk = ZDApp_NwkDescListProcessing()) != NULL ) && (zdoDiscCounter > NUM_DISC_ATTEMPTS) )
   \                     ??ZDApp_ProcessOSALMsg_7:
   \   000068                ; Setup parameters for call to function ZDApp_NwkDescListProcessing
   \   000068   12....       LCALL   ??ZDApp_NwkDescListProcessing?relay
   \   00006B   8A..         MOV     ?V0 + 0,R2
   \   00006D   8B..         MOV     ?V0 + 1,R3
   \   00006F   A8..         MOV     R0,?V0 + 0
   \   000071   A9..         MOV     R1,?V0 + 1
   \   000073   E8           MOV     A,R0
   \   000074   FE           MOV     R6,A
   \   000075   E9           MOV     A,R1
   \   000076   FF           MOV     R7,A
   \   000077   E8           MOV     A,R0
   \   000078   49           ORL     A,R1
   \   000079   7003         JNZ     $+5
   \   00007B   02....       LJMP    ??ZDApp_ProcessOSALMsg_8 & 0xFFFF
   \   00007E   90....       MOV     DPTR,#zdoDiscCounter
   \   000081   E0           MOVX    A,@DPTR
   \   000082   C3           CLR     C
   \   000083   9403         SUBB    A,#0x3
   \   000085   5003         JNC     $+5
   \   000087   02....       LJMP    ??ZDApp_ProcessOSALMsg_8 & 0xFFFF
   1062                  {
   1063                    if ( devStartMode == MODE_JOIN )
   \   00008A   90....       MOV     DPTR,#devStartMode
   \   00008D   E0           MOVX    A,@DPTR
   \   00008E   7059         JNZ     ??ZDApp_ProcessOSALMsg_9
   1064                    {
   1065                      devState = DEV_NWK_JOINING;
   \   000090   90....       MOV     DPTR,#devState
   \   000093   7403         MOV     A,#0x3
   \   000095   12....       LCALL   ?Subroutine10 & 0xFFFF
   1066          
   1067                      ZDApp_NodeProfileSync( pChosenNwk->stackProfile);
   \                     ??CrossCallReturnLabel_2:
   \   000098   E0           MOVX    A,@DPTR
   \   000099   F9           MOV     R1,A
   \   00009A   12....       LCALL   ??ZDApp_NodeProfileSync?relay
   1068          
   1069                      if ( NLME_JoinRequest( pChosenNwk->extendedPANID, pChosenNwk->panId,
   1070                                            pChosenNwk->logicalChannel,
   1071                                            ZDO_Config_Node_Descriptor.CapabilityFlags,
   1072                                            pChosenNwk->chosenRouter, pChosenNwk->chosenRouterDepth ) != ZSuccess )
   \   00009D                ; Setup parameters for call to function NLME_JoinRequest
   \   00009D   8E82         MOV     DPL,R6
   \   00009F   8F83         MOV     DPH,R7
   \   0000A1   A3           INC     DPTR
   \   0000A2   A3           INC     DPTR
   \   0000A3   A3           INC     DPTR
   \   0000A4   A3           INC     DPTR
   \   0000A5   A3           INC     DPTR
   \   0000A6   A3           INC     DPTR
   \   0000A7   A3           INC     DPTR
   \   0000A8   A3           INC     DPTR
   \   0000A9   A3           INC     DPTR
   \   0000AA   A3           INC     DPTR
   \   0000AB   E0           MOVX    A,@DPTR
   \   0000AC   F5..         MOV     ?V0 + 0,A
   \   0000AE   78..         MOV     R0,#?V0 + 0
   \   0000B0   12....       LCALL   ?PUSH_XSTACK_I_ONE
   \   0000B3   8E82         MOV     DPL,R6
   \   0000B5   8F83         MOV     DPH,R7
   \   0000B7   A3           INC     DPTR
   \   0000B8   A3           INC     DPTR
   \   0000B9   A3           INC     DPTR
   \   0000BA   A3           INC     DPTR
   \   0000BB   A3           INC     DPTR
   \   0000BC   A3           INC     DPTR
   \   0000BD   A3           INC     DPTR
   \   0000BE   12....       LCALL   ?PUSH_XSTACK8_X_TWO
   \   0000C1   90....       MOV     DPTR,#ZDO_Config_Node_Descriptor + 2
   \   0000C4   E0           MOVX    A,@DPTR
   \   0000C5   F5..         MOV     ?V0 + 0,A
   \   0000C7   78..         MOV     R0,#?V0 + 0
   \   0000C9   12....       LCALL   ?PUSH_XSTACK_I_ONE
   \   0000CC   8E82         MOV     DPL,R6
   \   0000CE   8F83         MOV     DPH,R7
   \   0000D0   A3           INC     DPTR
   \   0000D1   A3           INC     DPTR
   \   0000D2   E0           MOVX    A,@DPTR
   \   0000D3   F9           MOV     R1,A
   \   0000D4   8E82         MOV     DPL,R6
   \   0000D6   8F83         MOV     DPH,R7
   \   0000D8   E0           MOVX    A,@DPTR
   \   0000D9   FC           MOV     R4,A
   \   0000DA   A3           INC     DPTR
   \   0000DB   E0           MOVX    A,@DPTR
   \   0000DC   12....       LCALL   ?Subroutine34 & 0xFFFF
   1073                      {
   1074                        ZDApp_NetworkInit( (uint16)(NWK_START_DELAY
   1075                                                    + ((uint16)(osal_rand()& EXTENDED_JOINING_RANDOM_MASK))) );
   1076                      }
   1077                    } // if ( devStartMode == MODE_JOIN )
   \                     ??CrossCallReturnLabel_74:
   \   0000DF   12....       LCALL   ??NLME_JoinRequest?relay
   \   0000E2   7404         MOV     A,#0x4
   \   0000E4   12....       LCALL   ?DEALLOC_XSTACK8
   \   0000E7   806B         SJMP    ??ZDApp_ProcessOSALMsg_10
   1078                    else if ( devStartMode == MODE_REJOIN )
   \                     ??ZDApp_ProcessOSALMsg_9:
   \   0000E9   6403         XRL     A,#0x3
   \   0000EB   706D         JNZ     ??CrossCallReturnLabel_36
   1079                    {
   1080                      devState = DEV_NWK_REJOIN;
   \   0000ED   90....       MOV     DPTR,#devState
   \   0000F0   7404         MOV     A,#0x4
   \   0000F2   F0           MOVX    @DPTR,A
   1081          
   1082                      // Before trying to do rejoin, check if the device has a valid short address
   1083                      // If not, generate a random short address for itself
   1084                      if ( _NIB.nwkDevAddress == INVALID_NODE_ADDR )
   \   0000F3   90....       MOV     DPTR,#_NIB + 20
   \   0000F6   E0           MOVX    A,@DPTR
   \   0000F7   64FE         XRL     A,#0xfe
   \   0000F9   7003         JNZ     ??ZDApp_ProcessOSALMsg_11
   \   0000FB   A3           INC     DPTR
   \   0000FC   E0           MOVX    A,@DPTR
   \   0000FD   F4           CPL     A
   \                     ??ZDApp_ProcessOSALMsg_11:
   \   0000FE   7012         JNZ     ??ZDApp_ProcessOSALMsg_12
   1085                      {
   1086                        _NIB.nwkDevAddress = osal_rand();
   \   000100                ; Setup parameters for call to function osal_rand
   \   000100   12....       LCALL   ??osal_rand?relay
   \   000103   90....       MOV     DPTR,#_NIB + 20
   \   000106   12....       LCALL   ??Subroutine64_0 & 0xFFFF
   1087                        ZMacSetReq( ZMacShortAddress, (byte*)&_NIB.nwkDevAddress );
   \                     ??CrossCallReturnLabel_132:
   \   000109                ; Setup parameters for call to function ZMacSetReq
   \   000109   7A..         MOV     R2,#(_NIB + 20) & 0xff
   \   00010B   7B..         MOV     R3,#((_NIB + 20) >> 8) & 0xff
   \   00010D   7953         MOV     R1,#0x53
   \   00010F   12....       LCALL   ??ZMacSetReq?relay
   1088                        //czv7 感觉是设置 短地址的地方。。。MODE_REJOIN
   1089                      }
   1090          
   1091                      if ( ZG_SECURE_ENABLED )
   1092                      {
   1093                        ZDApp_RestoreNwkKey();
   1094                      }
   1095          
   1096                      // Check if the device has a valid PanID, if not, set it to the discovered Pan
   1097                      if ( _NIB.nwkPanId == INVALID_PAN_ID )
   \                     ??ZDApp_ProcessOSALMsg_12:
   \   000112   90....       MOV     DPTR,#_NIB + 33
   \   000115   E0           MOVX    A,@DPTR
   \   000116   64FE         XRL     A,#0xfe
   \   000118   7003         JNZ     ??ZDApp_ProcessOSALMsg_13
   \   00011A   A3           INC     DPTR
   \   00011B   E0           MOVX    A,@DPTR
   \   00011C   F4           CPL     A
   \                     ??ZDApp_ProcessOSALMsg_13:
   \   00011D   7014         JNZ     ??ZDApp_ProcessOSALMsg_14
   1098                      {
   1099                        _NIB.nwkPanId = pChosenNwk->panId;
   \   00011F   12....       LCALL   ?Subroutine18 & 0xFFFF
   \                     ??CrossCallReturnLabel_80:
   \   000122   90....       MOV     DPTR,#_NIB + 33
   \   000125   E8           MOV     A,R0
   \   000126   F0           MOVX    @DPTR,A
   \   000127   A3           INC     DPTR
   \   000128   E9           MOV     A,R1
   \   000129   F0           MOVX    @DPTR,A
   1100                        ZMacSetReq( ZMacPanId, (byte*)&(_NIB.nwkPanId) );
   \   00012A                ; Setup parameters for call to function ZMacSetReq
   \   00012A   7A..         MOV     R2,#(_NIB + 33) & 0xff
   \   00012C   7B..         MOV     R3,#((_NIB + 33) >> 8) & 0xff
   \   00012E   7950         MOV     R1,#0x50
   \   000130   12....       LCALL   ??ZMacSetReq?relay
   1101                      }
   1102          
   1103                      tmp = true;
   \                     ??ZDApp_ProcessOSALMsg_14:
   \   000133   85..82       MOV     DPL,?XSP + 0
   \   000136   85..83       MOV     DPH,?XSP + 1
   \   000139   7401         MOV     A,#0x1
   \   00013B   F0           MOVX    @DPTR,A
   1104                      ZMacSetReq( ZMacRxOnIdle, &tmp ); // Set receiver always on during rejoin
   \   00013C                ; Setup parameters for call to function ZMacSetReq
   \   00013C   AA82         MOV     R2,DPL
   \   00013E   AB83         MOV     R3,DPH
   \   000140   7952         MOV     R1,#0x52
   \   000142   12....       LCALL   ??ZMacSetReq?relay
   1105                      if ( NLME_ReJoinRequest( ZDO_UseExtendedPANID, pChosenNwk->logicalChannel) != ZSuccess )
   \   000145                ; Setup parameters for call to function NLME_ReJoinRequest
   \   000145   8E82         MOV     DPL,R6
   \   000147   8F83         MOV     DPH,R7
   \   000149   A3           INC     DPTR
   \   00014A   A3           INC     DPTR
   \   00014B   E0           MOVX    A,@DPTR
   \   00014C   F9           MOV     R1,A
   \   00014D   7A..         MOV     R2,#ZDO_UseExtendedPANID & 0xff
   \   00014F   7B..         MOV     R3,#(ZDO_UseExtendedPANID >> 8) & 0xff
   \   000151   12....       LCALL   ??NLME_ReJoinRequest?relay
   \                     ??ZDApp_ProcessOSALMsg_10:
   \   000154   E9           MOV     A,R1
   \   000155   6003         JZ      ??CrossCallReturnLabel_36
   1106                      {
   1107                        ZDApp_NetworkInit( (uint16)(NWK_START_DELAY
   1108                                                    + ((uint16)(osal_rand()& EXTENDED_JOINING_RANDOM_MASK))) );
   \   000157                ; Setup parameters for call to function ZDApp_NetworkInit
   \   000157                ; Setup parameters for call to function osal_rand
   \   000157   12....       LCALL   ?Subroutine27 & 0xFFFF
   1109                      }
   1110                    } // else if ( devStartMode == MODE_REJOIN )
   1111          
   1112                    if ( ZDO_Config_Node_Descriptor.CapabilityFlags & CAPINFO_RCVR_ON_IDLE )
   \                     ??CrossCallReturnLabel_36:
   \   00015A   90....       MOV     DPTR,#ZDO_Config_Node_Descriptor + 2
   \   00015D   E0           MOVX    A,@DPTR
   \   00015E   A2E3         MOV     C,0xE0 /* A   */.3
   \   000160   505A         JNC     ??ZDApp_ProcessOSALMsg_6
   1113                    {
   1114                      // The receiver is on, turn network layer polling off.
   1115                      NLME_SetPollRate( 0 );
   \   000162                ; Setup parameters for call to function NLME_SetPollRate
   \   000162   12....       LCALL   ?Subroutine32 & 0xFFFF
   1116                      NLME_SetQueuedPollRate( 0 );
   1117                      NLME_SetResponseRate( 0 );
   1118                    }
   1119                    else
   1120                    {
   1121                      if ( (ZG_SECURE_ENABLED) && (devStartMode == MODE_JOIN) )
   1122                      {
   1123                        ZDApp_SavedPollRate = zgPollRate;
   1124                        NLME_SetPollRate( zgRejoinPollRate );
   1125                      }
   1126                    }
   1127                  }
   \                     ??CrossCallReturnLabel_42:
   \   000165   8055         SJMP    ??ZDApp_ProcessOSALMsg_6
   1128                  else
   1129                  {
   1130                    if ( continueJoining )
   \                     ??ZDApp_ProcessOSALMsg_8:
   \   000167   90....       MOV     DPTR,#continueJoining
   \   00016A   E0           MOVX    A,@DPTR
   \   00016B   604F         JZ      ??ZDApp_ProcessOSALMsg_6
   1131                    {
   1132              #if defined ( MANAGED_SCAN )
   1133                      ZDApp_NetworkInit( MANAGEDSCAN_DELAY_BETWEEN_SCANS );
   1134              #else
   1135                      zdoDiscCounter++;
   \   00016D   90....       MOV     DPTR,#zdoDiscCounter
   \   000170   E0           MOVX    A,@DPTR
   \   000171   04           INC     A
   \   000172   F0           MOVX    @DPTR,A
   1136                      ZDApp_NetworkInit( (uint16)(BEACON_REQUEST_DELAY
   1137                            + ((uint16)(osal_rand()& BEACON_REQ_DELAY_MASK))) );
   \   000173                ; Setup parameters for call to function ZDApp_NetworkInit
   \   000173                ; Setup parameters for call to function osal_rand
   \   000173   12....       LCALL   ??osal_rand?relay
   \   000176   EA           MOV     A,R2
   \   000177   2464         ADD     A,#0x64
   \   000179   FA           MOV     R2,A
   \   00017A   E4           CLR     A
   \   00017B   3400         ADDC    A,#0x0
   \   00017D   FB           MOV     R3,A
   \   00017E   8039         SJMP    ??ZDApp_ProcessOSALMsg_15
   1138              #endif
   1139                    }
   1140                  }
   1141                }
   1142                break;
   1143          
   1144              case ZDO_NWK_JOIN_IND:
   1145                if ( ZG_BUILD_JOINING_TYPE && ZG_DEVICE_JOINING_TYPE )
   \                     ??ZDApp_ProcessOSALMsg_1:
   \   000180   90....       MOV     DPTR,#zgDeviceLogicalType
   \   000183   E0           MOVX    A,@DPTR
   \   000184   6401         XRL     A,#0x1
   \   000186   6005         JZ      ??ZDApp_ProcessOSALMsg_16
   \   000188   E0           MOVX    A,@DPTR
   \   000189   6402         XRL     A,#0x2
   \   00018B   702F         JNZ     ??ZDApp_ProcessOSALMsg_6
   1146                {
   1147                  ZDApp_ProcessNetworkJoin();
   \                     ??ZDApp_ProcessOSALMsg_16:
   \   00018D                ; Setup parameters for call to function ZDApp_ProcessNetworkJoin
   \   00018D   12....       LCALL   ??ZDApp_ProcessNetworkJoin?relay
   \   000190   802A         SJMP    ??ZDApp_ProcessOSALMsg_6
   1148                }
   1149                break;
   1150          
   1151              case ZDO_NWK_JOIN_REQ:
   1152                if ( ZG_BUILD_JOINING_TYPE && ZG_DEVICE_JOINING_TYPE )
   \                     ??ZDApp_ProcessOSALMsg_2:
   \   000192   90....       MOV     DPTR,#zgDeviceLogicalType
   \   000195   E0           MOVX    A,@DPTR
   \   000196   6401         XRL     A,#0x1
   \   000198   6005         JZ      ??ZDApp_ProcessOSALMsg_17
   \   00019A   E0           MOVX    A,@DPTR
   \   00019B   6402         XRL     A,#0x2
   \   00019D   701D         JNZ     ??ZDApp_ProcessOSALMsg_6
   1153                {
   1154                  retryCnt = 0;
   \                     ??ZDApp_ProcessOSALMsg_17:
   \   00019F   90....       MOV     DPTR,#retryCnt
   \   0001A2   E4           CLR     A
   \   0001A3   F0           MOVX    @DPTR,A
   1155                  devStartMode = MODE_RESUME;
   \   0001A4   90....       MOV     DPTR,#devStartMode
   \   0001A7   04           INC     A
   \   0001A8   F0           MOVX    @DPTR,A
   1156                  _tmpRejoinState = true;
   \   0001A9   90....       MOV     DPTR,#_tmpRejoinState
   \   0001AC   12....       LCALL   ?Subroutine9 & 0xFFFF
   1157                  osal_cpyExtAddr( ZDO_UseExtendedPANID, _NIB.extendedPANID );
   1158                  zgDefaultStartingScanDuration = BEACON_ORDER_60_MSEC;
   \                     ??CrossCallReturnLabel_1:
   \   0001AF   90....       MOV     DPTR,#zgDefaultStartingScanDuration
   \   0001B2   7402         MOV     A,#0x2
   \   0001B4   F0           MOVX    @DPTR,A
   1159                  ZDApp_NetworkInit( 0 );
   \   0001B5                ; Setup parameters for call to function ZDApp_NetworkInit
   \   0001B5   7A00         MOV     R2,#0x0
   \   0001B7   7B00         MOV     R3,#0x0
   \                     ??ZDApp_ProcessOSALMsg_15:
   \   0001B9   12....       LCALL   ??ZDApp_NetworkInit?relay
   1160                }
   1161                break;
   1162          
   1163              default:
   1164                if ( ZG_SECURE_ENABLED )
   1165                  ZDApp_ProcessSecMsg( msgPtr );
   1166                break;
   1167            }
   1168          
   1169          }
   \                     ??ZDApp_ProcessOSALMsg_6:
   \   0001BC   7401         MOV     A,#0x1
   \   0001BE   02....       LJMP    ??Subroutine60_0 & 0xFFFF

   \                                 In  segment BANKED_CODE, align 1, keep-with-next
   \                     ?Subroutine34:
   \   000000   FD           MOV     R5,A
   \   000001                REQUIRE ??Subroutine47_0
   \   000001                ; // Fall through to label ??Subroutine47_0

   \                                 In  segment BANKED_CODE, align 1, keep-with-next
   \                     ??Subroutine47_0:
   \   000000   EE           MOV     A,R6
   \   000001   240B         ADD     A,#0xb
   \   000003   FA           MOV     R2,A
   \   000004   EF           MOV     A,R7
   \   000005   3400         ADDC    A,#0x0
   \   000007   FB           MOV     R3,A
   \   000008   22           RET

   \                                 In  segment BANKED_CODE, align 1, keep-with-next
   \                     ?Subroutine18:
   \   000000   8E82         MOV     DPL,R6
   \   000002   8F83         MOV     DPH,R7
   \   000004                REQUIRE ??Subroutine48_0
   \   000004                ; // Fall through to label ??Subroutine48_0

   \                                 In  segment BANKED_CODE, align 1, keep-with-next
   \                     ?Subroutine32:
   \   000000   7A00         MOV     R2,#0x0
   \   000002   7B00         MOV     R3,#0x0
   \   000004   12....       LCALL   ??NLME_SetPollRate?relay
   \   000007                ; Setup parameters for call to function NLME_SetQueuedPollRate
   \   000007                ; Setup parameters for call to function NLME_SetQueuedPollRate
   \   000007   7A00         MOV     R2,#0x0
   \   000009   7B00         MOV     R3,#0x0
   \   00000B   12....       LCALL   ??NLME_SetQueuedPollRate?relay
   \   00000E                ; Setup parameters for call to function NLME_SetResponseRate
   \   00000E                ; Setup parameters for call to function NLME_SetResponseRate
   \   00000E   7A00         MOV     R2,#0x0
   \   000010   7B00         MOV     R3,#0x0
   \   000012   12....       LCALL   ??NLME_SetResponseRate?relay
   \   000015   22           RET

   \                                 In  segment BANKED_CODE, align 1, keep-with-next
   \                     ?Subroutine27:
   \   000000   12....       LCALL   ??osal_rand?relay
   \   000003   EA           MOV     A,R2
   \   000004   547F         ANL     A,#0x7f
   \   000006   2464         ADD     A,#0x64
   \   000008   FA           MOV     R2,A
   \   000009   7B00         MOV     R3,#0x0
   \   00000B   12....       LCALL   ??ZDApp_NetworkInit?relay
   \   00000E   22           RET

   \                                 In  segment BANKED_CODE, align 1, keep-with-next
   \                     ?Subroutine10:
   \   000000   F0           MOVX    @DPTR,A
   \   000001                ; Setup parameters for call to function ZDApp_NodeProfileSync
   \   000001   8E82         MOV     DPL,R6
   \   000003   8F83         MOV     DPH,R7
   \   000005   A3           INC     DPTR
   \   000006   A3           INC     DPTR
   \   000007   A3           INC     DPTR
   \   000008   A3           INC     DPTR
   \   000009   A3           INC     DPTR
   \   00000A   A3           INC     DPTR
   \   00000B   22           RET

   \                                 In  segment BANKED_CODE, align 1, keep-with-next
   \                     ??Subroutine59_0:
   \   000000   E0           MOVX    A,@DPTR
   \   000001   F583         MOV     DPH,A
   \   000003   8882         MOV     DPL,R0
   \   000005   22           RET
   1170          
   1171          /*********************************************************************
   1172           * @fn      ZDApp_ProcessMsgCBs()
   1173           *
   1174           * @brief   Process response messages
   1175           *
   1176           * @param   none
   1177           *
   1178           * @return  none
   1179           */

   \                                 In  segment BANKED_CODE, align 1, keep-with-next
   1180          void ZDApp_ProcessMsgCBs( zdoIncomingMsg_t *inMsg )
   \                     ZDApp_ProcessMsgCBs:
   1181          {
   \   000000   74F6         MOV     A,#-0xa
   \   000002   12....       LCALL   ?BANKED_ENTER_XDATA
   \   000005                ; Saved register size: 10
   \   000005                ; Auto size: 21
   \   000005   74EB         MOV     A,#-0x15
   \   000007   12....       LCALL   ?ALLOC_XSTACK8
   \   00000A   EA           MOV     A,R2
   \   00000B   FE           MOV     R6,A
   \   00000C   EB           MOV     A,R3
   \   00000D   FF           MOV     R7,A
   1182            switch ( inMsg->clusterID )
   \   00000E   12....       LCALL   ?Subroutine29 & 0xFFFF
   \                     ??CrossCallReturnLabel_40:
   \   000011   F5..         MOV     ?V0 + 1,A
   \   000013   78..         MOV     R0,#?V0 + 0
   \   000015   12....       LCALL   ?US_SWITCH_SPARSE
   \                     `?<Jumptable for ZDApp_ProcessMsgCBs>_0`:
   \   000018   0200         DW        2
   \   00001A   2100         DW        33
   \   00001C   2200         DW        34
   \   00001E   ....         DW        ??ZDApp_ProcessMsgCBs_0
   \   000020   0080         DW        32768
   \   000022   0180         DW        32769
   \   000024   ....         DW        ??ZDApp_ProcessMsgCBs_1
   \   000026   0000         DW        0
   \   000028   ....         DW        ??ZDApp_ProcessMsgCBs_2
   1183            {
   1184          #if defined ( ZDO_NWKADDR_REQUEST ) || defined ( ZDO_IEEEADDR_REQUEST ) || defined ( REFLECTOR )
   1185              case NWK_addr_rsp:
   1186              case IEEE_addr_rsp:
   1187                {
   1188                  ZDO_NwkIEEEAddrResp_t *pAddrRsp;
   1189                  pAddrRsp = ZDO_ParseAddrRsp( inMsg );
   \                     ??ZDApp_ProcessMsgCBs_1:
   \   00002A                ; Setup parameters for call to function ZDO_ParseAddrRsp
   \   00002A   12....       LCALL   ??ZDO_ParseAddrRsp?relay
   \   00002D   8A..         MOV     ?V0 + 0,R2
   \   00002F   8B..         MOV     ?V0 + 1,R3
   \   000031   AE..         MOV     R6,?V0 + 0
   \   000033   AF..         MOV     R7,?V0 + 1
   1190                  if ( pAddrRsp )
   \   000035   EE           MOV     A,R6
   \   000036   4F           ORL     A,R7
   \   000037   603D         JZ      ??ZDApp_ProcessMsgCBs_2
   1191                  {
   1192                    if ( pAddrRsp->status == ZSuccess )
   \   000039   8E82         MOV     DPL,R6
   \   00003B   8F83         MOV     DPH,R7
   \   00003D   E0           MOVX    A,@DPTR
   \   00003E   700F         JNZ     ??ZDApp_ProcessMsgCBs_3
   1193                    {
   1194                      ZDO_UpdateAddrManager( pAddrRsp->nwkAddr, pAddrRsp->extAddr );
   \   000040                ; Setup parameters for call to function ZDO_UpdateAddrManager
   \   000040   EE           MOV     A,R6
   \   000041   2403         ADD     A,#0x3
   \   000043   FC           MOV     R4,A
   \   000044   EF           MOV     A,R7
   \   000045   3400         ADDC    A,#0x0
   \   000047   FD           MOV     R5,A
   \   000048   A3           INC     DPTR
   \   000049   12....       LCALL   ?Subroutine40 & 0xFFFF
   1195                    }
   \                     ??CrossCallReturnLabel_61:
   \   00004C   12....       LCALL   ??ZDO_UpdateAddrManager?relay
   1196                    osal_mem_free( pAddrRsp );
   \                     ??ZDApp_ProcessMsgCBs_3:
   \   00004F                ; Setup parameters for call to function osal_mem_free
   \   00004F   EE           MOV     A,R6
   \   000050   FA           MOV     R2,A
   \   000051   EF           MOV     A,R7
   \   000052   FB           MOV     R3,A
   \   000053   12....       LCALL   ??osal_mem_free?relay
   \   000056   801E         SJMP    ??ZDApp_ProcessMsgCBs_2
   1197                  }
   1198                }
   1199                break;
   1200          #endif
   1201          
   1202          #if defined ( REFLECTOR )
   1203              case Bind_req:
   1204              case Unbind_req:
   1205                {
   1206                  ZDO_BindUnbindReq_t bindReq;
   1207                  ZDO_ParseBindUnbindReq( inMsg, &bindReq );
   \                     ??ZDApp_ProcessMsgCBs_0:
   \   000058                ; Setup parameters for call to function ZDO_ParseBindUnbindReq
   \   000058   85..82       MOV     DPL,?XSP + 0
   \   00005B   85..83       MOV     DPH,?XSP + 1
   \   00005E   AC82         MOV     R4,DPL
   \   000060   AD83         MOV     R5,DPH
   \   000062   12....       LCALL   ??ZDO_ParseBindUnbindReq?relay
   1208                  ZDO_ProcessBindUnbindReq( inMsg, &bindReq );
   \   000065                ; Setup parameters for call to function ZDO_ProcessBindUnbindReq
   \   000065   85..82       MOV     DPL,?XSP + 0
   \   000068   85..83       MOV     DPH,?XSP + 1
   \   00006B   AC82         MOV     R4,DPL
   \   00006D   AD83         MOV     R5,DPH
   \   00006F   EE           MOV     A,R6
   \   000070   FA           MOV     R2,A
   \   000071   EF           MOV     A,R7
   \   000072   FB           MOV     R3,A
   \   000073   12....       LCALL   ??ZDO_ProcessBindUnbindReq?relay
   1209                }
   1210                break;
   1211          #endif
   1212          
   1213          #if ( ZG_BUILD_COORDINATOR_TYPE )
   1214              case Bind_rsp:
   1215              case Unbind_rsp:
   1216                if (ZG_DEVICE_COORDINATOR_TYPE && matchED)
   1217                {
   1218                  ZDMatchSendState(
   1219                       (uint8)((inMsg->clusterID == Bind_rsp) ? ZDMATCH_REASON_BIND_RSP : ZDMATCH_REASON_UNBIND_RSP),
   1220                       ZDO_ParseBindRsp(inMsg), inMsg->TransSeq );
   1221                }
   1222                break;
   1223          
   1224              case End_Device_Bind_req:
   1225                if (ZG_DEVICE_COORDINATOR_TYPE)
   1226                {
   1227                  ZDEndDeviceBind_t bindReq;
   1228                  ZDO_ParseEndDeviceBindReq( inMsg, &bindReq );
   1229                  ZDO_MatchEndDeviceBind( &bindReq );
   1230          
   1231                  // Freeing the cluster lists - if allocated.
   1232                  if ( bindReq.numInClusters )
   1233                    osal_mem_free( bindReq.inClusters );
   1234                  if ( bindReq.numOutClusters )
   1235                    osal_mem_free( bindReq.outClusters );
   1236                }
   1237                break;
   1238          #endif
   1239            }
   1240          }
   \                     ??ZDApp_ProcessMsgCBs_2:
   \   000076                REQUIRE ?Subroutine6
   \   000076                ; // Fall through to label ?Subroutine6

   \                                 In  segment BANKED_CODE, align 1, keep-with-next
   \                     ?Subroutine6:
   \   000000   7415         MOV     A,#0x15
   \   000002   02....       LJMP    ??Subroutine60_0 & 0xFFFF

   \                                 In  segment BANKED_CODE, align 1, keep-with-next
   \                     ?Subroutine29:
   \   000000   EE           MOV     A,R6
   \   000001   240C         ADD     A,#0xc
   \   000003   F582         MOV     DPL,A
   \   000005   EF           MOV     A,R7
   \   000006   3400         ADDC    A,#0x0
   \   000008   F583         MOV     DPH,A
   \   00000A   E0           MOVX    A,@DPTR
   \   00000B   F5..         MOV     ?V0 + 0,A
   \   00000D   A3           INC     DPTR
   \   00000E   E0           MOVX    A,@DPTR
   \   00000F   22           RET
   1241          
   1242          /*********************************************************************
   1243           * @fn      ZDApp_RegisterCBs()
   1244           *
   1245           * @brief   Process response messages
   1246           *
   1247           * @param   none
   1248           *
   1249           * @return  none
   1250           */

   \                                 In  segment BANKED_CODE, align 1, keep-with-next
   1251          void ZDApp_RegisterCBs( void )
   \                     ZDApp_RegisterCBs:
   1252          {
   \   000000   C082         PUSH    DPL
   \   000002   C083         PUSH    DPH
   \   000004                ; Saved register size: 2
   \   000004                ; Auto size: 0
   1253          #if defined ( ZDO_IEEEADDR_REQUEST ) || defined ( REFLECTOR )
   1254            ZDO_RegisterForZDOMsg( ZDAppTaskID, IEEE_addr_rsp );
   \   000004                ; Setup parameters for call to function ZDO_RegisterForZDOMsg
   \   000004   7A01         MOV     R2,#0x1
   \   000006   12....       LCALL   ?Subroutine23 & 0xFFFF
   1255          #endif
   1256          #if defined ( ZDO_NWKADDR_REQUEST ) || defined ( REFLECTOR )
   1257            ZDO_RegisterForZDOMsg( ZDAppTaskID, NWK_addr_rsp );
   \                     ??CrossCallReturnLabel_84:
   \   000009                ; Setup parameters for call to function ZDO_RegisterForZDOMsg
   \   000009   7A00         MOV     R2,#0x0
   \   00000B   12....       LCALL   ?Subroutine23 & 0xFFFF
   1258          #endif
   1259          #if ZG_BUILD_COORDINATOR_TYPE
   1260            ZDO_RegisterForZDOMsg( ZDAppTaskID, Bind_rsp );
   1261            ZDO_RegisterForZDOMsg( ZDAppTaskID, Unbind_rsp );
   1262            ZDO_RegisterForZDOMsg( ZDAppTaskID, End_Device_Bind_req );
   1263          #endif
   1264          #if defined ( REFLECTOR )
   1265            ZDO_RegisterForZDOMsg( ZDAppTaskID, Bind_req );
   \                     ??CrossCallReturnLabel_85:
   \   00000E                ; Setup parameters for call to function ZDO_RegisterForZDOMsg
   \   00000E   7A21         MOV     R2,#0x21
   \   000010   7B00         MOV     R3,#0x0
   \   000012   12....       LCALL   ??Subroutine49_0 & 0xFFFF
   1266            ZDO_RegisterForZDOMsg( ZDAppTaskID, Unbind_req );
   \                     ??CrossCallReturnLabel_86:
   \   000015                ; Setup parameters for call to function ZDO_RegisterForZDOMsg
   \   000015   7A22         MOV     R2,#0x22
   \   000017   7B00         MOV     R3,#0x0
   \   000019   12....       LCALL   ??Subroutine49_0 & 0xFFFF
   1267          #endif
   1268          }
   \                     ??CrossCallReturnLabel_87:
   \   00001C   02....       LJMP    ??Subroutine50_0 & 0xFFFF

   \                                 In  segment BANKED_CODE, align 1, keep-with-next
   \                     ?Subroutine23:
   \   000000   7B80         MOV     R3,#-0x80
   \   000002                REQUIRE ??Subroutine49_0
   \   000002                ; // Fall through to label ??Subroutine49_0

   \                                 In  segment BANKED_CODE, align 1, keep-with-next
   \                     ??Subroutine49_0:
   \   000000   90....       MOV     DPTR,#ZDAppTaskID
   \   000003   E0           MOVX    A,@DPTR
   \   000004   F9           MOV     R1,A
   \   000005   12....       LCALL   ??ZDO_RegisterForZDOMsg?relay
   \   000008   22           RET
   1269          
   1270          /*********************************************************************
   1271           * @fn      ZDApp_ProcessSecMsg()
   1272           *
   1273           * @brief   Process the incoming security message.
   1274           *
   1275           * @param   msgPtr - message to process
   1276           *
   1277           * @return  none
   1278           */

   \                                 In  segment BANKED_CODE, align 1, keep-with-next
   1279          void ZDApp_ProcessSecMsg( osal_event_hdr_t *msgPtr )
   \                     ZDApp_ProcessSecMsg:
   1280          {
   \   000000   C082         PUSH    DPL
   \   000002   C083         PUSH    DPH
   \   000004                ; Saved register size: 2
   \   000004                ; Auto size: 0
   1281            switch ( msgPtr->event )
   \   000004   8A82         MOV     DPL,R2
   \   000006   8B83         MOV     DPH,R3
   \   000008   E0           MOVX    A,@DPTR
   \   000009   24FA         ADD     A,#-0x6
   \   00000B   600A         JZ      ??ZDApp_ProcessSecMsg_0
   \   00000D   24FE         ADD     A,#-0x2
   \   00000F   6018         JZ      ??ZDApp_ProcessSecMsg_1
   \   000011   24FE         ADD     A,#-0x2
   \   000013   6021         JZ      ??ZDApp_ProcessSecMsg_2
   \   000015   802F         SJMP    ??ZDApp_ProcessSecMsg_3
   1282            {
   1283              case ZDO_ESTABLISH_KEY_CFM:
   1284                if ( ZG_CHECK_SECURITY_MODE == ZG_SECURITY_PRO_HIGH )
   1285                {
   1286                  ZDSecMgrEstablishKeyCfm( (ZDO_EstablishKeyCfm_t*)msgPtr );
   1287                }
   1288                break;
   1289          
   1290              case ZDO_ESTABLISH_KEY_IND:
   1291                if ( ZG_CHECK_SECURITY_MODE == ZG_SECURITY_PRO_HIGH )
   1292                {
   1293                  if ( ZG_BUILD_JOINING_TYPE && ZG_DEVICE_JOINING_TYPE )
   1294                  {
   1295                    ZDSecMgrEstablishKeyInd( (ZDO_EstablishKeyInd_t*)msgPtr );
   1296                  }
   1297                }
   1298                break;
   1299          
   1300              case ZDO_TRANSPORT_KEY_IND:
   1301                if ( ZG_BUILD_JOINING_TYPE && ZG_DEVICE_JOINING_TYPE )
   \                     ??ZDApp_ProcessSecMsg_0:
   \   000017   90....       MOV     DPTR,#zgDeviceLogicalType
   \   00001A   E0           MOVX    A,@DPTR
   \   00001B   6401         XRL     A,#0x1
   \   00001D   6005         JZ      ??ZDApp_ProcessSecMsg_4
   \   00001F   E0           MOVX    A,@DPTR
   \   000020   6402         XRL     A,#0x2
   \   000022   7022         JNZ     ??ZDApp_ProcessSecMsg_3
   1302                {
   1303                  ZDSecMgrTransportKeyInd( (ZDO_TransportKeyInd_t*)msgPtr );
   \                     ??ZDApp_ProcessSecMsg_4:
   \   000024                ; Setup parameters for call to function ZDSecMgrTransportKeyInd
   \   000024   12....       LCALL   ??ZDSecMgrTransportKeyInd?relay
   \   000027   801D         SJMP    ??ZDApp_ProcessSecMsg_3
   1304                }
   1305                break;
   1306          
   1307              case ZDO_UPDATE_DEVICE_IND:
   1308                if ( ZG_BUILD_COORDINATOR_TYPE && ZG_DEVICE_COORDINATOR_TYPE )
   1309                {
   1310                  ZDSecMgrUpdateDeviceInd( (ZDO_UpdateDeviceInd_t*)msgPtr );
   1311                }
   1312                break;
   1313          
   1314              case ZDO_REMOVE_DEVICE_IND:
   1315                if ( ZG_BUILD_RTRONLY_TYPE && ( zgDeviceLogicalType == ZG_DEVICETYPE_ROUTER ) )
   \                     ??ZDApp_ProcessSecMsg_1:
   \   000029   90....       MOV     DPTR,#zgDeviceLogicalType
   \   00002C   E0           MOVX    A,@DPTR
   \   00002D   6401         XRL     A,#0x1
   \   00002F   7015         JNZ     ??ZDApp_ProcessSecMsg_3
   1316                {
   1317                  ZDSecMgrRemoveDeviceInd( (ZDO_RemoveDeviceInd_t*)msgPtr );
   \   000031                ; Setup parameters for call to function ZDSecMgrRemoveDeviceInd
   \   000031   12....       LCALL   ??ZDSecMgrRemoveDeviceInd?relay
   \   000034   8010         SJMP    ??ZDApp_ProcessSecMsg_3
   1318                }
   1319                break;
   1320          
   1321              case ZDO_REQUEST_KEY_IND:
   1322                if (( ZG_CHECK_SECURITY_MODE == ZG_SECURITY_PRO_HIGH ) ||
   1323                    ( ZG_CHECK_SECURITY_MODE == ZG_SECURITY_SE_STANDARD ))
   1324                {
   1325                  if ( ZG_BUILD_COORDINATOR_TYPE && ZG_DEVICE_COORDINATOR_TYPE )
   1326                  {
   1327                    ZDSecMgrRequestKeyInd( (ZDO_RequestKeyInd_t*)msgPtr );
   1328                  }
   1329                }
   1330                break;
   1331          
   1332              case ZDO_SWITCH_KEY_IND:
   1333                if ( ZG_BUILD_JOINING_TYPE && ZG_DEVICE_JOINING_TYPE )
   \                     ??ZDApp_ProcessSecMsg_2:
   \   000036   90....       MOV     DPTR,#zgDeviceLogicalType
   \   000039   E0           MOVX    A,@DPTR
   \   00003A   6401         XRL     A,#0x1
   \   00003C   6005         JZ      ??ZDApp_ProcessSecMsg_5
   \   00003E   E0           MOVX    A,@DPTR
   \   00003F   6402         XRL     A,#0x2
   \   000041   7003         JNZ     ??ZDApp_ProcessSecMsg_3
   1334                {
   1335                  ZDSecMgrSwitchKeyInd( (ZDO_SwitchKeyInd_t*)msgPtr );
   \                     ??ZDApp_ProcessSecMsg_5:
   \   000043                ; Setup parameters for call to function ZDSecMgrSwitchKeyInd
   \   000043   12....       LCALL   ??ZDSecMgrSwitchKeyInd?relay
   1336                }
   1337                break;
   1338          
   1339              case ZDO_AUTHENTICATE_IND:
   1340                if ( ZG_CHECK_SECURITY_MODE == ZG_SECURITY_PRO_HIGH )
   1341                {
   1342                  ZDSecMgrAuthenticateInd( (ZDO_AuthenticateInd_t*)msgPtr );
   1343                }
   1344                break;
   1345          
   1346              case ZDO_AUTHENTICATE_CFM:
   1347                if ( ZG_CHECK_SECURITY_MODE == ZG_SECURITY_PRO_HIGH )
   1348                {
   1349                  ZDSecMgrAuthenticateCfm( (ZDO_AuthenticateCfm_t*)msgPtr );
   1350                }
   1351                break;
   1352          
   1353              default:
   1354                // Unsupported messages
   1355                break;
   1356            }
   1357          }
   \                     ??ZDApp_ProcessSecMsg_3:
   \   000046   02....       LJMP    ??Subroutine50_0 & 0xFFFF
   1358          
   1359          /*********************************************************************
   1360           * @fn      ZDApp_ProcessNetworkJoin()
   1361           *
   1362           * @brief
   1363           *
   1364           *   Save off the Network key information.
   1365           *
   1366           * @param   none
   1367           *
   1368           * @return  none
   1369           */

   \                                 In  segment BANKED_CODE, align 1, keep-with-next
   1370          void ZDApp_ProcessNetworkJoin( void )
   \                     ZDApp_ProcessNetworkJoin:
   1371          {
   \   000000   74F6         MOV     A,#-0xa
   \   000002   12....       LCALL   ?BANKED_ENTER_XDATA
   \   000005                ; Saved register size: 10
   \   000005                ; Auto size: 2
   \   000005   74FE         MOV     A,#-0x2
   \   000007   12....       LCALL   ?ALLOC_XSTACK8
   1372            if ( (devState == DEV_NWK_JOINING) ||
   1373                ((devState == DEV_NWK_ORPHAN)  &&
   1374                 (ZDO_Config_Node_Descriptor.LogicalType == NODETYPE_ROUTER)) )
   \   00000A   90....       MOV     DPTR,#devState
   \   00000D   E0           MOVX    A,@DPTR
   \   00000E   6403         XRL     A,#0x3
   \   000010   6015         JZ      ??ZDApp_ProcessNetworkJoin_0
   \   000012   E0           MOVX    A,@DPTR
   \   000013   640A         XRL     A,#0xa
   \   000015   6003         JZ      $+5
   \   000017   02....       LJMP    ??ZDApp_ProcessNetworkJoin_1 & 0xFFFF
   \   00001A   90....       MOV     DPTR,#ZDO_Config_Node_Descriptor
   \   00001D   E0           MOVX    A,@DPTR
   \   00001E   5407         ANL     A,#0x7
   \   000020   6401         XRL     A,#0x1
   \   000022   6003         JZ      $+5
   \   000024   02....       LJMP    ??ZDApp_ProcessNetworkJoin_2 & 0xFFFF
   1375            {
   1376              // Result of a Join attempt by this device.
   1377              if ( nwkStatus == ZSuccess )
   \                     ??ZDApp_ProcessNetworkJoin_0:
   \   000027   90....       MOV     DPTR,#nwkStatus
   \   00002A   E0           MOVX    A,@DPTR
   \   00002B   703A         JNZ     ??ZDApp_ProcessNetworkJoin_3
   1378              {
   1379                osal_set_event( ZDAppTaskID, ZDO_STATE_CHANGE_EVT );
   \   00002D                ; Setup parameters for call to function osal_set_event
   \   00002D   12....       LCALL   ?Subroutine17 & 0xFFFF
   1380          
   1381          #if defined ( POWER_SAVING )
   1382                osal_pwrmgr_device( PWRMGR_BATTERY );
   1383          #endif
   1384          
   1385                if ( ZG_SECURE_ENABLED && ( ZDApp_RestoreNwkKey() == false ) )
   1386                {
   1387                  // wait for auth from trust center!!
   1388                  devState = DEV_END_DEVICE_UNAUTH;
   1389          
   1390                  // Start the reset timer for MAX UNAUTH time
   1391                  ZDApp_ResetTimerStart( 10000 );//MAX_DEVICE_UNAUTH_TIMEOUT );
   1392                }
   1393                else
   1394                {
   1395                  if ( ZSTACK_ROUTER_BUILD )
   1396                  {
   1397                    if ( devState == DEV_NWK_ORPHAN
   1398                      && ZDO_Config_Node_Descriptor.LogicalType != NODETYPE_DEVICE )
   \                     ??CrossCallReturnLabel_123:
   \   000030   90....       MOV     DPTR,#devState
   \   000033   E0           MOVX    A,@DPTR
   \   000034   640A         XRL     A,#0xa
   \   000036   700D         JNZ     ??ZDApp_ProcessNetworkJoin_4
   \   000038   12....       LCALL   ?Subroutine20 & 0xFFFF
   \                     ??CrossCallReturnLabel_24:
   \   00003B   6010         JZ      ??ZDApp_ProcessNetworkJoin_5
   1399                    {
   1400                      // Change NIB state to router for restore
   1401                      _NIB.nwkState = NWK_ROUTER;
   \   00003D   90....       MOV     DPTR,#_NIB + 35
   \   000040   7408         MOV     A,#0x8
   \   000042   F0           MOVX    @DPTR,A
   \   000043   8008         SJMP    ??ZDApp_ProcessNetworkJoin_5
   1402                    }
   1403                  }
   1404          
   1405                  if ( devState == DEV_NWK_JOINING )
   \                     ??ZDApp_ProcessNetworkJoin_4:
   \   000045   E0           MOVX    A,@DPTR
   \   000046   6403         XRL     A,#0x3
   \   000048   7003         JNZ     ??ZDApp_ProcessNetworkJoin_5
   1406                  {
   1407                    ZDApp_AnnounceNewAddress();
   \   00004A                ; Setup parameters for call to function ZDApp_AnnounceNewAddress
   \   00004A   12....       LCALL   ??ZDApp_AnnounceNewAddress?relay
   1408                  }
   1409          
   1410                  devState = DEV_END_DEVICE;
   \                     ??ZDApp_ProcessNetworkJoin_5:
   \   00004D   90....       MOV     DPTR,#devState
   \   000050   7406         MOV     A,#0x6
   \   000052   F0           MOVX    @DPTR,A
   1411                  if ( ZSTACK_ROUTER_BUILD )
   1412                  {
   1413                    // NOTE: first two parameters are not used, see NLMEDE.h for details
   1414                    if ( ZDO_Config_Node_Descriptor.LogicalType != NODETYPE_DEVICE )
   \   000053   12....       LCALL   ?Subroutine20 & 0xFFFF
   \                     ??CrossCallReturnLabel_25:
   \   000056   7003         JNZ     $+5
   \   000058   02....       LJMP    ??CrossCallReturnLabel_124 & 0xFFFF
   1415                    {
   1416                      NLME_StartRouterRequest( 0, 0, false );
   \   00005B                ; Setup parameters for call to function NLME_StartRouterRequest
   \   00005B   7B00         MOV     R3,#0x0
   \   00005D   7A00         MOV     R2,#0x0
   \   00005F   7900         MOV     R1,#0x0
   \   000061   12....       LCALL   ??NLME_StartRouterRequest?relay
   \   000064   02....       LJMP    ??CrossCallReturnLabel_124 & 0xFFFF
   1417                    }
   1418                  }
   1419                }
   1420              }
   1421              else
   1422              {
   1423                if ( (devStartMode == MODE_RESUME) && (++retryCnt >= MAX_RESUME_RETRY) )
   \                     ??ZDApp_ProcessNetworkJoin_3:
   \   000067   90....       MOV     DPTR,#devStartMode
   \   00006A   E0           MOVX    A,@DPTR
   \   00006B   6401         XRL     A,#0x1
   \   00006D   7036         JNZ     ??ZDApp_ProcessNetworkJoin_6
   \   00006F   90....       MOV     DPTR,#retryCnt
   \   000072   E0           MOVX    A,@DPTR
   \   000073   04           INC     A
   \   000074   F0           MOVX    @DPTR,A
   \   000075   C3           CLR     C
   \   000076   9403         SUBB    A,#0x3
   \   000078   402B         JC      ??ZDApp_ProcessNetworkJoin_6
   1424                {
   1425                  if ( _NIB.nwkPanId == 0xFFFF || _NIB.nwkPanId == INVALID_PAN_ID )
   \   00007A   90....       MOV     DPTR,#_NIB + 33
   \   00007D   E0           MOVX    A,@DPTR
   \   00007E   F4           CPL     A
   \   00007F   7003         JNZ     ??ZDApp_ProcessNetworkJoin_7
   \   000081   A3           INC     DPTR
   \   000082   E0           MOVX    A,@DPTR
   \   000083   F4           CPL     A
   \                     ??ZDApp_ProcessNetworkJoin_7:
   \   000084   600D         JZ      ??ZDApp_ProcessNetworkJoin_8
   \   000086   90....       MOV     DPTR,#_NIB + 33
   \   000089   E0           MOVX    A,@DPTR
   \   00008A   64FE         XRL     A,#0xfe
   \   00008C   7003         JNZ     ??ZDApp_ProcessNetworkJoin_9
   \   00008E   A3           INC     DPTR
   \   00008F   E0           MOVX    A,@DPTR
   \   000090   F4           CPL     A
   \                     ??ZDApp_ProcessNetworkJoin_9:
   \   000091   7006         JNZ     ??ZDApp_ProcessNetworkJoin_10
   1426                    devStartMode = MODE_JOIN;
   \                     ??ZDApp_ProcessNetworkJoin_8:
   \   000093   90....       MOV     DPTR,#devStartMode
   \   000096   E4           CLR     A
   \   000097   800B         SJMP    ??ZDApp_ProcessNetworkJoin_11
   1427                  else
   1428                  {
   1429                    devStartMode = MODE_REJOIN;
   \                     ??ZDApp_ProcessNetworkJoin_10:
   \   000099   90....       MOV     DPTR,#devStartMode
   \   00009C   7403         MOV     A,#0x3
   \   00009E   F0           MOVX    @DPTR,A
   1430                    _tmpRejoinState = true;
   \   00009F   90....       MOV     DPTR,#_tmpRejoinState
   \   0000A2   7401         MOV     A,#0x1
   \                     ??ZDApp_ProcessNetworkJoin_11:
   \   0000A4   F0           MOVX    @DPTR,A
   1431                  }
   1432                }
   1433          
   1434                if ( (NLME_GetShortAddr() != INVALID_NODE_ADDR) ||
   1435                     (_NIB.nwkDevAddress != INVALID_NODE_ADDR) )
   \                     ??ZDApp_ProcessNetworkJoin_6:
   \   0000A5                ; Setup parameters for call to function NLME_GetShortAddr
   \   0000A5   12....       LCALL   ??NLME_GetShortAddr?relay
   \   0000A8   8A..         MOV     ?V0 + 0,R2
   \   0000AA   8B..         MOV     ?V0 + 1,R3
   \   0000AC   74FE         MOV     A,#-0x2
   \   0000AE   65..         XRL     A,?V0 + 0
   \   0000B0   7004         JNZ     ??ZDApp_ProcessNetworkJoin_12
   \   0000B2   74FF         MOV     A,#-0x1
   \   0000B4   65..         XRL     A,?V0 + 1
   \                     ??ZDApp_ProcessNetworkJoin_12:
   \   0000B6   700D         JNZ     ??ZDApp_ProcessNetworkJoin_13
   \   0000B8   90....       MOV     DPTR,#_NIB + 20
   \   0000BB   E0           MOVX    A,@DPTR
   \   0000BC   64FE         XRL     A,#0xfe
   \   0000BE   7003         JNZ     ??ZDApp_ProcessNetworkJoin_14
   \   0000C0   A3           INC     DPTR
   \   0000C1   E0           MOVX    A,@DPTR
   \   0000C2   F4           CPL     A
   \                     ??ZDApp_ProcessNetworkJoin_14:
   \   0000C3   601B         JZ      ??ZDApp_ProcessNetworkJoin_15
   1436                {
   1437                  uint16 addr = INVALID_NODE_ADDR;
   \                     ??ZDApp_ProcessNetworkJoin_13:
   \   0000C5   85..82       MOV     DPL,?XSP + 0
   \   0000C8   85..83       MOV     DPH,?XSP + 1
   \   0000CB   74FE         MOV     A,#-0x2
   \   0000CD   F0           MOVX    @DPTR,A
   \   0000CE   A3           INC     DPTR
   \   0000CF   04           INC     A
   \   0000D0   F0           MOVX    @DPTR,A
   1438                  // Invalidate nwk addr so end device does not use in its data reqs.
   1439                  _NIB.nwkDevAddress = INVALID_NODE_ADDR;
   \   0000D1   90....       MOV     DPTR,#_NIB + 20
   \   0000D4   14           DEC     A
   \   0000D5   F0           MOVX    @DPTR,A
   \   0000D6   A3           INC     DPTR
   \   0000D7   04           INC     A
   \   0000D8   12....       LCALL   ?Subroutine11 & 0xFFFF
   1440                  ZMacSetReq( ZMacShortAddress, (uint8 *)&addr );
   1441                }
   \                     ??CrossCallReturnLabel_4:
   \   0000DB   7953         MOV     R1,#0x53
   \   0000DD   12....       LCALL   ??ZMacSetReq?relay
   1442          
   1443                // Clear the neighbor Table and network discovery tables.
   1444                nwkNeighborInitTable();
   \                     ??ZDApp_ProcessNetworkJoin_15:
   \   0000E0                ; Setup parameters for call to function nwkNeighborInitTable
   \   0000E0   12....       LCALL   ??nwkNeighborInitTable?relay
   1445                NLME_NwkDiscTerm();
   \   0000E3                ; Setup parameters for call to function NLME_NwkDiscTerm
   \   0000E3   12....       LCALL   ??NLME_NwkDiscTerm?relay
   1446          
   1447                zdoDiscCounter = 1;
   \   0000E6   90....       MOV     DPTR,#zdoDiscCounter
   \   0000E9   7401         MOV     A,#0x1
   \   0000EB   F0           MOVX    @DPTR,A
   1448          
   1449          //      ZDApp_NetworkInit( (uint16)
   1450          //                         ((NWK_START_DELAY * (osal_rand() & 0x0F)) +
   1451          //                          (NWK_START_DELAY * 5)) );
   1452                ZDApp_NetworkInit( (uint16)(NWK_START_DELAY
   1453                     + ((uint16)(osal_rand()& EXTENDED_JOINING_RANDOM_MASK))) );
   \   0000EC                ; Setup parameters for call to function ZDApp_NetworkInit
   \   0000EC                ; Setup parameters for call to function osal_rand
   1454              }
   1455            }
   \                     ??ZDApp_ProcessNetworkJoin_16:
   \   0000EC   12....       LCALL   ?Subroutine27 & 0xFFFF
   \                     ??CrossCallReturnLabel_37:
   \   0000EF   02....       LJMP    ??CrossCallReturnLabel_124 & 0xFFFF
   1456            else if ( devState == DEV_NWK_ORPHAN || devState == DEV_NWK_REJOIN )
   \                     ??ZDApp_ProcessNetworkJoin_1:
   \   0000F2   E0           MOVX    A,@DPTR
   \   0000F3   6404         XRL     A,#0x4
   \   0000F5   7078         JNZ     ??ZDApp_ProcessNetworkJoin_17
   1457            {
   1458              // results of an orphaning attempt by this device
   1459              if (nwkStatus == ZSuccess)
   \                     ??ZDApp_ProcessNetworkJoin_2:
   \   0000F7   90....       MOV     DPTR,#nwkStatus
   \   0000FA   E0           MOVX    A,@DPTR
   \   0000FB   7021         JNZ     ??ZDApp_ProcessNetworkJoin_18
   1460              {
   1461                if ( ZG_SECURE_ENABLED )
   1462                {
   1463                  ZDApp_RestoreNwkKey();
   1464                }
   1465          
   1466                devState = DEV_END_DEVICE;
   \   0000FD   12....       LCALL   ?Subroutine8 & 0xFFFF
   1467                osal_set_event( ZDAppTaskID, ZDO_STATE_CHANGE_EVT );
   1468                // setup Power Manager Device
   1469          #if defined ( POWER_SAVING )
   1470                osal_pwrmgr_device( PWRMGR_BATTERY );
   1471          #endif
   1472          
   1473                if ( ZDO_Config_Node_Descriptor.CapabilityFlags & CAPINFO_RCVR_ON_IDLE )
   \                     ??CrossCallReturnLabel_71:
   \   000100   90....       MOV     DPTR,#ZDO_Config_Node_Descriptor + 2
   \   000103   E0           MOVX    A,@DPTR
   \   000104   A2E3         MOV     C,0xE0 /* A   */.3
   \   000106   5003         JNC     ??CrossCallReturnLabel_43
   1474                {
   1475                  // The receiver is on, turn network layer polling off.
   1476                  NLME_SetPollRate( 0 );
   \   000108                ; Setup parameters for call to function NLME_SetPollRate
   \   000108   12....       LCALL   ?Subroutine32 & 0xFFFF
   1477                  NLME_SetQueuedPollRate( 0 );
   1478                  NLME_SetResponseRate( 0 );
   1479                }
   1480          
   1481                if ( ZSTACK_ROUTER_BUILD )
   1482                {
   1483                  // NOTE: first two parameters are not used, see NLMEDE.h for details
   1484                  if ( ZDO_Config_Node_Descriptor.LogicalType != NODETYPE_DEVICE )
   \                     ??CrossCallReturnLabel_43:
   \   00010B   12....       LCALL   ?Subroutine20 & 0xFFFF
   \                     ??CrossCallReturnLabel_26:
   \   00010E   6009         JZ      ??ZDApp_ProcessNetworkJoin_19
   1485                  {
   1486                    NLME_StartRouterRequest( 0, 0, false );
   \   000110                ; Setup parameters for call to function NLME_StartRouterRequest
   \   000110   7B00         MOV     R3,#0x0
   \   000112   7A00         MOV     R2,#0x0
   \   000114   7900         MOV     R1,#0x0
   \   000116   12....       LCALL   ??NLME_StartRouterRequest?relay
   1487                  }
   1488                }
   1489          
   1490                ZDApp_AnnounceNewAddress();
   \                     ??ZDApp_ProcessNetworkJoin_19:
   \   000119                ; Setup parameters for call to function ZDApp_AnnounceNewAddress
   \   000119   12....       LCALL   ??ZDApp_AnnounceNewAddress?relay
   \   00011C   805F         SJMP    ??CrossCallReturnLabel_124
   1491              }
   1492              else
   1493              {
   1494                if ( devStartMode == MODE_RESUME )
   \                     ??ZDApp_ProcessNetworkJoin_18:
   \   00011E   90....       MOV     DPTR,#devStartMode
   \   000121   E0           MOVX    A,@DPTR
   \   000122   6401         XRL     A,#0x1
   \   000124   7040         JNZ     ??ZDApp_ProcessNetworkJoin_20
   1495                {
   1496                  if ( ++retryCnt <= MAX_RESUME_RETRY )
   \   000126   90....       MOV     DPTR,#retryCnt
   \   000129   E0           MOVX    A,@DPTR
   \   00012A   04           INC     A
   \   00012B   F0           MOVX    @DPTR,A
   \   00012C   C3           CLR     C
   \   00012D   9404         SUBB    A,#0x4
   \   00012F   502D         JNC     ??ZDApp_ProcessNetworkJoin_21
   1497                  {
   1498                    if ( _NIB.nwkPanId == 0xFFFF || _NIB.nwkPanId == INVALID_PAN_ID )
   \   000131   90....       MOV     DPTR,#_NIB + 33
   \   000134   E0           MOVX    A,@DPTR
   \   000135   F4           CPL     A
   \   000136   7003         JNZ     ??ZDApp_ProcessNetworkJoin_22
   \   000138   A3           INC     DPTR
   \   000139   E0           MOVX    A,@DPTR
   \   00013A   F4           CPL     A
   \                     ??ZDApp_ProcessNetworkJoin_22:
   \   00013B   600D         JZ      ??ZDApp_ProcessNetworkJoin_23
   \   00013D   90....       MOV     DPTR,#_NIB + 33
   \   000140   E0           MOVX    A,@DPTR
   \   000141   64FE         XRL     A,#0xfe
   \   000143   7003         JNZ     ??ZDApp_ProcessNetworkJoin_24
   \   000145   A3           INC     DPTR
   \   000146   E0           MOVX    A,@DPTR
   \   000147   F4           CPL     A
   \                     ??ZDApp_ProcessNetworkJoin_24:
   \   000148   7007         JNZ     ??ZDApp_ProcessNetworkJoin_25
   1499                      devStartMode = MODE_JOIN;
   \                     ??ZDApp_ProcessNetworkJoin_23:
   \   00014A   90....       MOV     DPTR,#devStartMode
   \   00014D   E4           CLR     A
   \                     ??ZDApp_ProcessNetworkJoin_26:
   \   00014E   F0           MOVX    @DPTR,A
   \   00014F   8015         SJMP    ??ZDApp_ProcessNetworkJoin_20
   1500                    else
   1501                    {
   1502                      devStartMode = MODE_REJOIN;
   \                     ??ZDApp_ProcessNetworkJoin_25:
   \   000151   90....       MOV     DPTR,#devStartMode
   \   000154   7403         MOV     A,#0x3
   \   000156   F0           MOVX    @DPTR,A
   1503                      _tmpRejoinState = true;
   \   000157   90....       MOV     DPTR,#_tmpRejoinState
   \   00015A   7401         MOV     A,#0x1
   \   00015C   80F0         SJMP    ??ZDApp_ProcessNetworkJoin_26
   1504                    }
   1505                  }
   1506                  // Do a normal join to the network after certain times of rejoin retries
   1507                  else if( AIB_apsUseInsecureJoin == true )
   \                     ??ZDApp_ProcessNetworkJoin_21:
   \   00015E   90....       MOV     DPTR,#AIB_apsUseInsecureJoin
   \   000161   E0           MOVX    A,@DPTR
   \   000162   6401         XRL     A,#0x1
   \   000164   60E4         JZ      ??ZDApp_ProcessNetworkJoin_23
   1508                  {
   1509                    devStartMode = MODE_JOIN;
   1510                  }
   1511                }
   1512          
   1513                // Clear the neighbor Table and network discovery tables.
   1514                nwkNeighborInitTable();
   \                     ??ZDApp_ProcessNetworkJoin_20:
   \   000166                ; Setup parameters for call to function nwkNeighborInitTable
   \   000166   12....       LCALL   ??nwkNeighborInitTable?relay
   1515                NLME_NwkDiscTerm();
   \   000169                ; Setup parameters for call to function NLME_NwkDiscTerm
   \   000169   12....       LCALL   ??NLME_NwkDiscTerm?relay
   1516          
   1517                // setup a retry for later...
   1518                ZDApp_NetworkInit( (uint16)(NWK_START_DELAY
   1519                     + (osal_rand()& EXTENDED_JOINING_RANDOM_MASK)) );
   \   00016C                ; Setup parameters for call to function ZDApp_NetworkInit
   \   00016C                ; Setup parameters for call to function osal_rand
   \   00016C   02....       LJMP    ??ZDApp_ProcessNetworkJoin_16 & 0xFFFF
   1520              }
   1521            }
   1522          #if defined ( ZIGBEE_STOCHASTIC_ADDRESSING )
   1523            else
   1524            {
   1525              // Assume from address conflict
   1526              if ( _NIB.nwkAddrAlloc == NWK_ADDRESSING_STOCHASTIC )
   \                     ??ZDApp_ProcessNetworkJoin_17:
   \   00016F   90....       MOV     DPTR,#_NIB + 96
   \   000172   E0           MOVX    A,@DPTR
   \   000173   6402         XRL     A,#0x2
   \   000175   7006         JNZ     ??CrossCallReturnLabel_124
   1527              {
   1528                // Notify the network
   1529                ZDApp_AnnounceNewAddress();
   \   000177                ; Setup parameters for call to function ZDApp_AnnounceNewAddress
   \   000177   12....       LCALL   ??ZDApp_AnnounceNewAddress?relay
   1530          
   1531                // Notify apps
   1532                osal_set_event( ZDAppTaskID, ZDO_STATE_CHANGE_EVT );
   \   00017A                ; Setup parameters for call to function osal_set_event
   \   00017A   12....       LCALL   ?Subroutine17 & 0xFFFF
   1533              }
   1534            }
   1535          #endif
   1536          }
   \                     ??CrossCallReturnLabel_124:
   \   00017D                REQUIRE ?Subroutine7
   \   00017D                ; // Fall through to label ?Subroutine7

   \                                 In  segment BANKED_CODE, align 1, keep-with-next
   \                     ?Subroutine7:
   \   000000   7402         MOV     A,#0x2
   \   000002   02....       LJMP    ??Subroutine60_0 & 0xFFFF

   \                                 In  segment BANKED_CODE, align 1, keep-with-next
   \                     ?Subroutine11:
   \   000000   F0           MOVX    @DPTR,A
   \   000001                ; Setup parameters for call to function ZMacSetReq
   \   000001                ; Setup parameters for indirect call
   \   000001   85..82       MOV     DPL,?XSP + 0
   \   000004   85..83       MOV     DPH,?XSP + 1
   \   000007   AA82         MOV     R2,DPL
   \   000009   AB83         MOV     R3,DPH
   \   00000B   22           RET
   1537          
   1538          /*********************************************************************
   1539           * @fn      ZDApp_SaveNwkKey()
   1540           *
   1541           * @brief   Save off the Network key information.
   1542           *
   1543           * @param   none
   1544           *
   1545           * @return  none
   1546           */

   \                                 In  segment BANKED_CODE, align 1, keep-with-next
   \                     ?Subroutine2:
   \   000000   7415         MOV     A,#0x15
   \   000002                REQUIRE ??Subroutine44_0
   \   000002                ; // Fall through to label ??Subroutine44_0

   \                                 In  segment BANKED_CODE, align 1, keep-with-next
   1547          void ZDApp_SaveNwkKey( void )
   \                     ZDApp_SaveNwkKey:
   1548          {
   \   000000   74F4         MOV     A,#-0xc
   \   000002   12....       LCALL   ?BANKED_ENTER_XDATA
   \   000005                ; Saved register size: 12
   \   000005                ; Auto size: 21
   \   000005   74EB         MOV     A,#-0x15
   \   000007   12....       LCALL   ?ALLOC_XSTACK8
   1549            nwkActiveKeyItems keyItems;
   1550          
   1551            SSP_ReadNwkActiveKey( &keyItems );
   \   00000A                ; Setup parameters for call to function SSP_ReadNwkActiveKey
   \   00000A   85..82       MOV     DPL,?XSP + 0
   \   00000D   85..83       MOV     DPH,?XSP + 1
   \   000010   AA82         MOV     R2,DPL
   \   000012   AB83         MOV     R3,DPH
   \   000014   12....       LCALL   ??SSP_ReadNwkActiveKey?relay
   1552            keyItems.frameCounter++;
   \   000017   90....       MOV     DPTR,#__Constant_1
   \   00001A   78..         MOV     R0,#?V0 + 0
   \   00001C   12....       LCALL   ?L_MOV_X
   \   00001F   7411         MOV     A,#0x11
   \   000021   12....       LCALL   ?XSTACK_DISP0_8
   \   000024   78..         MOV     R0,#?V0 + 0
   \   000026   12....       LCALL   ?L_ADD_TO_X
   1553          
   1554            osal_nv_write( ZCD_NV_NWKKEY, 0, sizeof( nwkActiveKeyItems ),
   1555                          (void *)&keyItems );
   \   000029                ; Setup parameters for call to function osal_nv_write
   \   000029   85..82       MOV     DPL,?XSP + 0
   \   00002C   85..83       MOV     DPH,?XSP + 1
   \   00002F   8582..       MOV     ?V0 + 0,DPL
   \   000032   8583..       MOV     ?V0 + 1,DPH
   \   000035   78..         MOV     R0,#?V0 + 0
   \   000037   12....       LCALL   ?PUSH_XSTACK_I_TWO
   \   00003A   75..15       MOV     ?V0 + 0,#0x15
   \   00003D   75..00       MOV     ?V0 + 1,#0x0
   \   000040   78..         MOV     R0,#?V0 + 0
   \   000042   12....       LCALL   ?PUSH_XSTACK_I_TWO
   \   000045   7C00         MOV     R4,#0x0
   \   000047   7D00         MOV     R5,#0x0
   \   000049   7A82         MOV     R2,#-0x7e
   \   00004B   7B00         MOV     R3,#0x0
   \   00004D   12....       LCALL   ??osal_nv_write?relay
   \   000050   7404         MOV     A,#0x4
   \   000052   12....       LCALL   ?DEALLOC_XSTACK8
   1556          
   1557            nwkFrameCounterChanges = 0;
   \   000055   90....       MOV     DPTR,#nwkFrameCounterChanges
   \   000058   E4           CLR     A
   \   000059   F0           MOVX    @DPTR,A
   \   00005A   A3           INC     DPTR
   \   00005B   F0           MOVX    @DPTR,A
   1558          
   1559            // Clear copy in RAM before return.
   1560            osal_memset( &keyItems, 0x00, sizeof(keyItems) );
   \   00005C                ; Setup parameters for call to function osal_memset
   \   00005C   7C15         MOV     R4,#0x15
   \   00005E   FD           MOV     R5,A
   \   00005F   F9           MOV     R1,A
   \   000060   85..82       MOV     DPL,?XSP + 0
   \   000063   85..83       MOV     DPH,?XSP + 1
   \   000066   AA82         MOV     R2,DPL
   \   000068   AB83         MOV     R3,DPH
   \   00006A   12....       LCALL   ??osal_memset?relay
   1561          
   1562          }
   \   00006D   02....       LJMP    ?Subroutine2 & 0xFFFF
   1563          
   1564          /*********************************************************************
   1565           * @fn      ZDApp_ResetNwkKey()
   1566           *
   1567           * @brief   Reset the Network key information in NV.
   1568           *
   1569           * @param   none
   1570           *
   1571           * @return  none
   1572           */

   \                                 In  segment BANKED_CODE, align 1, keep-with-next
   1573          void ZDApp_ResetNwkKey( void )
   \                     ZDApp_ResetNwkKey:
   1574          {
   \   000000   74F6         MOV     A,#-0xa
   \   000002   12....       LCALL   ?BANKED_ENTER_XDATA
   \   000005                ; Saved register size: 10
   \   000005                ; Auto size: 21
   \   000005   74EB         MOV     A,#-0x15
   \   000007   12....       LCALL   ?ALLOC_XSTACK8
   1575            nwkActiveKeyItems keyItems;
   1576          
   1577            osal_memset( &keyItems, 0, sizeof( nwkActiveKeyItems ) );
   \   00000A                ; Setup parameters for call to function osal_memset
   \   00000A   7C15         MOV     R4,#0x15
   \   00000C   12....       LCALL   ?Subroutine33 & 0xFFFF
   1578            osal_nv_write( ZCD_NV_NWKKEY, 0, sizeof( nwkActiveKeyItems ),
   1579                          (void *)&keyItems );
   \                     ??CrossCallReturnLabel_45:
   \   00000F   12....       LCALL   ?PUSH_XSTACK_I_TWO
   \   000012   75..15       MOV     ?V0 + 0,#0x15
   \   000015   75..00       MOV     ?V0 + 1,#0x0
   \   000018   78..         MOV     R0,#?V0 + 0
   \   00001A   12....       LCALL   ?PUSH_XSTACK_I_TWO
   \   00001D   7C00         MOV     R4,#0x0
   \   00001F   7D00         MOV     R5,#0x0
   \   000021   7A82         MOV     R2,#-0x7e
   \   000023   7B00         MOV     R3,#0x0
   \   000025   12....       LCALL   ??osal_nv_write?relay
   \   000028   7404         MOV     A,#0x4
   \   00002A   12....       LCALL   ?DEALLOC_XSTACK8
   1580          }
   \   00002D   02....       LJMP    ?Subroutine6 & 0xFFFF
   1581          
   1582          /*********************************************************************
   1583           * @fn      ZDApp_RestoreNwkKey()
   1584           *
   1585           * @brief
   1586           *
   1587           *   Save off the Network key information.
   1588           *
   1589           * @param   none
   1590           *
   1591           * @return  true if restored from NV, false if not
   1592           */

   \                                 In  segment BANKED_CODE, align 1, keep-with-next
   1593          uint8 ZDApp_RestoreNwkKey( void )
   \                     ZDApp_RestoreNwkKey:
   1594          {
   \   000000   74F4         MOV     A,#-0xc
   \   000002   12....       LCALL   ?BANKED_ENTER_XDATA
   \   000005                ; Saved register size: 12
   \   000005                ; Auto size: 21
   \   000005   74EB         MOV     A,#-0x15
   \   000007   12....       LCALL   ?ALLOC_XSTACK8
   1595            nwkActiveKeyItems keyItems;
   1596            uint8 ret = false;
   \   00000A   7E00         MOV     R6,#0x0
   1597          
   1598            if ( osal_nv_read( ZCD_NV_NWKKEY, 0, sizeof(nwkActiveKeyItems), (void*)&keyItems )
   1599                == ZSUCCESS )
   \   00000C                ; Setup parameters for call to function osal_nv_read
   \   00000C   85..82       MOV     DPL,?XSP + 0
   \   00000F   85..83       MOV     DPH,?XSP + 1
   \   000012   8582..       MOV     ?V0 + 0,DPL
   \   000015   8583..       MOV     ?V0 + 1,DPH
   \   000018   78..         MOV     R0,#?V0 + 0
   \   00001A   12....       LCALL   ?PUSH_XSTACK_I_TWO
   \   00001D   75..15       MOV     ?V0 + 0,#0x15
   \   000020   8E..         MOV     ?V0 + 1,R6
   \   000022   78..         MOV     R0,#?V0 + 0
   \   000024   12....       LCALL   ?PUSH_XSTACK_I_TWO
   \   000027   7C00         MOV     R4,#0x0
   \   000029   7D00         MOV     R5,#0x0
   \   00002B   7A82         MOV     R2,#-0x7e
   \   00002D   12....       LCALL   ?Subroutine35 & 0xFFFF
   \                     ??CrossCallReturnLabel_47:
   \   000030   12....       LCALL   ?DEALLOC_XSTACK8
   \   000033   E9           MOV     A,R1
   \   000034   703F         JNZ     ??ZDApp_RestoreNwkKey_0
   1600            {
   1601              if ( keyItems.frameCounter > 0 )
   \   000036   7411         MOV     A,#0x11
   \   000038   12....       LCALL   ?XSTACK_DISP0_8
   \   00003B   78..         MOV     R0,#?V0 + 0
   \   00003D   12....       LCALL   ?L_MOV_X
   \   000040   E5..         MOV     A,?V0 + 0
   \   000042   45..         ORL     A,?V0 + 1
   \   000044   45..         ORL     A,?V0 + 2
   \   000046   45..         ORL     A,?V0 + 3
   \   000048   6021         JZ      ??ZDApp_RestoreNwkKey_1
   1602              {
   1603                // Restore the key information
   1604                keyItems.frameCounter += MAX_NWK_FRAMECOUNTER_CHANGES;
   \   00004A   90....       MOV     DPTR,#__Constant_3e8
   \   00004D   78..         MOV     R0,#?V0 + 0
   \   00004F   12....       LCALL   ?L_MOV_X
   \   000052   7411         MOV     A,#0x11
   \   000054   12....       LCALL   ?XSTACK_DISP0_8
   \   000057   78..         MOV     R0,#?V0 + 0
   \   000059   12....       LCALL   ?L_ADD_TO_X
   1605                nwkFrameCounter = keyItems.frameCounter;
   \   00005C   7411         MOV     A,#0x11
   \   00005E   12....       LCALL   ?XSTACK_DISP0_8
   \   000061   12....       LCALL   ?XLOAD_R2345
   \   000064   90....       MOV     DPTR,#nwkFrameCounter
   \   000067   12....       LCALL   ?XSTORE_R2345
   1606                ret = true;
   \   00006A   0E           INC     R6
   1607              }
   1608          
   1609              // Force a save for the first frame counter increment
   1610              nwkFrameCounterChanges = MAX_NWK_FRAMECOUNTER_CHANGES + 1;
   \                     ??ZDApp_RestoreNwkKey_1:
   \   00006B   90....       MOV     DPTR,#nwkFrameCounterChanges
   \   00006E   74E9         MOV     A,#-0x17
   \   000070   F0           MOVX    @DPTR,A
   \   000071   A3           INC     DPTR
   \   000072   7403         MOV     A,#0x3
   \   000074   F0           MOVX    @DPTR,A
   1611            }
   1612            // Clear copy in RAM before return.
   1613            osal_memset( &keyItems, 0x00, sizeof(keyItems) );
   \                     ??ZDApp_RestoreNwkKey_0:
   \   000075                ; Setup parameters for call to function osal_memset
   \   000075   7C15         MOV     R4,#0x15
   \   000077   7D00         MOV     R5,#0x0
   \   000079   7900         MOV     R1,#0x0
   \   00007B   85..82       MOV     DPL,?XSP + 0
   \   00007E   85..83       MOV     DPH,?XSP + 1
   \   000081   AA82         MOV     R2,DPL
   \   000083   AB83         MOV     R3,DPH
   \   000085   12....       LCALL   ??osal_memset?relay
   1614          
   1615            return ( ret );
   \   000088   EE           MOV     A,R6
   \   000089   F9           MOV     R1,A
   \   00008A   02....       LJMP    ?Subroutine2 & 0xFFFF
   1616          }
   1617          
   1618          /*********************************************************************
   1619           * @fn      ZDApp_ResetTimerStart
   1620           *
   1621           * @brief   Start the reset timer.
   1622           *
   1623           * @param   delay - delay time(ms) before reset
   1624           *
   1625           * @return  none
   1626           */

   \                                 In  segment BANKED_CODE, align 1, keep-with-next
   1627          void ZDApp_ResetTimerStart( uint16 delay )
   \                     ZDApp_ResetTimerStart:
   1628          {
   \   000000   C082         PUSH    DPL
   \   000002   C083         PUSH    DPH
   \   000004                ; Saved register size: 2
   \   000004                ; Auto size: 0
   1629            // Start the rest timer
   1630            osal_start_timerEx( ZDAppTaskID, ZDO_DEVICE_RESET, delay );
   \   000004                ; Setup parameters for call to function osal_start_timerEx
   \   000004   EA           MOV     A,R2
   \   000005   FC           MOV     R4,A
   \   000006   EB           MOV     A,R3
   \   000007   FD           MOV     R5,A
   \   000008   7A04         MOV     R2,#0x4
   \   00000A   7B00         MOV     R3,#0x0
   \   00000C   02....       LJMP    ?Subroutine3 & 0xFFFF
   1631          }

   \                                 In  segment BANKED_CODE, align 1, keep-with-next
   \                     ?Subroutine3:
   \   000000   12....       LCALL   ??Subroutine42_0 & 0xFFFF
   \                     ??CrossCallReturnLabel_68:
   \   000003                REQUIRE ??Subroutine50_0
   \   000003                ; // Fall through to label ??Subroutine50_0
   1632          
   1633          /*********************************************************************
   1634           * @fn      ZDApp_ResetTimerCancel
   1635           *
   1636           * @brief   Cancel the reset timer.
   1637           *
   1638           * @param   none
   1639           *
   1640           * @return  none
   1641           */

   \                                 In  segment BANKED_CODE, align 1, keep-with-next
   1642          void ZDApp_ResetTimerCancel( void )
   \                     ZDApp_ResetTimerCancel:
   1643          {
   \   000000   C082         PUSH    DPL
   \   000002   C083         PUSH    DPH
   \   000004                ; Saved register size: 2
   \   000004                ; Auto size: 0
   1644            // Cancel the reset timer
   1645            osal_stop_timerEx( ZDAppTaskID, ZDO_DEVICE_RESET );
   \   000004                ; Setup parameters for call to function osal_stop_timerEx
   \   000004   7A04         MOV     R2,#0x4
   \   000006   7B00         MOV     R3,#0x0
   \   000008   90....       MOV     DPTR,#ZDAppTaskID
   \   00000B   E0           MOVX    A,@DPTR
   \   00000C   F9           MOV     R1,A
   \   00000D   12....       LCALL   ??osal_stop_timerEx?relay
   1646          }
   \   000010   02....       LJMP    ??Subroutine50_0 & 0xFFFF
   1647          
   1648          /*********************************************************************
   1649           * @fn      ZDApp_LeaveCtrlInit
   1650           *
   1651           * @brief   Initialize the leave control logic.
   1652           *
   1653           * @param   none
   1654           *
   1655           * @return  none
   1656           */

   \                                 In  segment BANKED_CODE, align 1, keep-with-next
   1657          void ZDApp_LeaveCtrlInit( void )
   \                     ZDApp_LeaveCtrlInit:
   1658          {
   \   000000   74F6         MOV     A,#-0xa
   \   000002   12....       LCALL   ?BANKED_ENTER_XDATA
   \   000005                ; Saved register size: 10
   \   000005                ; Auto size: 0
   1659            uint8 status;
   1660          
   1661          
   1662            // Initialize control state
   1663            ZDApp_LeaveCtrl = ZDAPP_LEAVE_CTRL_INIT;
   \   000005   90....       MOV     DPTR,#ZDApp_LeaveCtrl
   \   000008   E4           CLR     A
   \   000009   F0           MOVX    @DPTR,A
   1664          
   1665            status = osal_nv_item_init( ZCD_NV_LEAVE_CTRL,
   1666                                        sizeof(ZDApp_LeaveCtrl),
   1667                                        &ZDApp_LeaveCtrl );
   1668          
   1669            if ( status == ZSUCCESS )
   \   00000A                ; Setup parameters for call to function osal_nv_item_init
   \   00000A   75....       MOV     ?V0 + 0,#ZDApp_LeaveCtrl & 0xff
   \   00000D   75....       MOV     ?V0 + 1,#(ZDApp_LeaveCtrl >> 8) & 0xff
   \   000010   78..         MOV     R0,#?V0 + 0
   \   000012   12....       LCALL   ?PUSH_XSTACK_I_TWO
   \   000015   7C01         MOV     R4,#0x1
   \   000017   7D00         MOV     R5,#0x0
   \   000019   7A85         MOV     R2,#-0x7b
   \   00001B   7B00         MOV     R3,#0x0
   \   00001D   12....       LCALL   ??osal_nv_item_init?relay
   \   000020   7402         MOV     A,#0x2
   \   000022   12....       LCALL   ?DEALLOC_XSTACK8
   \   000025   E9           MOV     A,R1
   \   000026   701C         JNZ     ??ZDApp_LeaveCtrlInit_0
   1670            {
   1671              // Read saved control
   1672              osal_nv_read( ZCD_NV_LEAVE_CTRL,
   1673                            0,
   1674                            sizeof( uint8 ),
   1675                            &ZDApp_LeaveCtrl);
   \   000028                ; Setup parameters for call to function osal_nv_read
   \   000028   78..         MOV     R0,#?V0 + 0
   \   00002A   12....       LCALL   ?PUSH_XSTACK_I_TWO
   \   00002D   75..01       MOV     ?V0 + 0,#0x1
   \   000030   75..00       MOV     ?V0 + 1,#0x0
   \   000033   78..         MOV     R0,#?V0 + 0
   \   000035   12....       LCALL   ?PUSH_XSTACK_I_TWO
   \   000038   7C00         MOV     R4,#0x0
   \   00003A   7D00         MOV     R5,#0x0
   \   00003C   7A85         MOV     R2,#-0x7b
   \   00003E   12....       LCALL   ?Subroutine35 & 0xFFFF
   1676            }
   \                     ??CrossCallReturnLabel_48:
   \   000041   12....       LCALL   ?DEALLOC_XSTACK8
   1677          }
   \                     ??ZDApp_LeaveCtrlInit_0:
   \   000044   02....       LJMP    ??Subroutine61_0 & 0xFFFF
   1678          
   1679          /*********************************************************************
   1680           * @fn      ZDApp_LeaveCtrlSet
   1681           *
   1682           * @brief   Set the leave control logic.
   1683           *
   1684           * @param   ra - reassociate flag
   1685           *
   1686           * @return  none
   1687           */

   \                                 In  segment BANKED_CODE, align 1, keep-with-next
   1688          void ZDApp_LeaveCtrlSet( uint8 ra )
   \                     ZDApp_LeaveCtrlSet:
   1689          {
   \   000000   74F6         MOV     A,#-0xa
   \   000002   12....       LCALL   ?BANKED_ENTER_XDATA
   \   000005                ; Saved register size: 10
   \   000005                ; Auto size: 0
   \   000005   E9           MOV     A,R1
   \   000006   FE           MOV     R6,A
   1690            ZDApp_LeaveCtrl = ZDAPP_LEAVE_CTRL_SET;
   \   000007   90....       MOV     DPTR,#ZDApp_LeaveCtrl
   \   00000A   7401         MOV     A,#0x1
   \   00000C   F0           MOVX    @DPTR,A
   1691          
   1692            if ( ra == TRUE )
   \   00000D   6E           XRL     A,R6
   \   00000E   7003         JNZ     ??ZDApp_LeaveCtrlSet_0
   1693            {
   1694              ZDApp_LeaveCtrl |= ZDAPP_LEAVE_CTRL_RA;
   \   000010   7403         MOV     A,#0x3
   \   000012   F0           MOVX    @DPTR,A
   1695            }
   1696          
   1697            // Write the leave control
   1698            osal_nv_write( ZCD_NV_LEAVE_CTRL,
   1699                           0,
   1700                           sizeof( uint8 ),
   1701                           &ZDApp_LeaveCtrl);
   \                     ??ZDApp_LeaveCtrlSet_0:
   \   000013                ; Setup parameters for call to function osal_nv_write
   \   000013   02....       LJMP    ?Subroutine1 & 0xFFFF
   1702          }

   \                                 In  segment BANKED_CODE, align 1, keep-with-next
   \                     ?Subroutine1:
   \   000000   75....       MOV     ?V0 + 0,#ZDApp_LeaveCtrl & 0xff
   \   000003   75....       MOV     ?V0 + 1,#(ZDApp_LeaveCtrl >> 8) & 0xff
   \   000006   78..         MOV     R0,#?V0 + 0
   \   000008   12....       LCALL   ?PUSH_XSTACK_I_TWO
   \   00000B   75..01       MOV     ?V0 + 0,#0x1
   \   00000E   75..00       MOV     ?V0 + 1,#0x0
   \   000011   78..         MOV     R0,#?V0 + 0
   \   000013   12....       LCALL   ?PUSH_XSTACK_I_TWO
   \   000016   7C00         MOV     R4,#0x0
   \   000018   7D00         MOV     R5,#0x0
   \   00001A   7A85         MOV     R2,#-0x7b
   \   00001C   7B00         MOV     R3,#0x0
   \   00001E   12....       LCALL   ??osal_nv_write?relay
   \   000021   7404         MOV     A,#0x4
   \   000023                REQUIRE ??Subroutine60_0
   \   000023                ; // Fall through to label ??Subroutine60_0
   1703          
   1704          /*********************************************************************
   1705           * @fn      ZDApp_LeaveCtrlReset
   1706           *
   1707           * @brief   Re-initialize the leave control logic.
   1708           *
   1709           * @param   none
   1710           *
   1711           * @return  none
   1712           */

   \                                 In  segment BANKED_CODE, align 1, keep-with-next
   1713          void ZDApp_LeaveCtrlReset( void )
   \                     ZDApp_LeaveCtrlReset:
   1714          {
   \   000000   74F6         MOV     A,#-0xa
   \   000002   12....       LCALL   ?BANKED_ENTER_XDATA
   \   000005                ; Saved register size: 10
   \   000005                ; Auto size: 0
   1715            // Set leave control to initialized state
   1716            ZDApp_LeaveCtrl = ZDAPP_LEAVE_CTRL_INIT;
   \   000005   90....       MOV     DPTR,#ZDApp_LeaveCtrl
   \   000008   E4           CLR     A
   \   000009   F0           MOVX    @DPTR,A
   1717          
   1718            // Write initialized control
   1719            osal_nv_write( ZCD_NV_LEAVE_CTRL,
   1720                          0,
   1721                          sizeof( uint8 ),
   1722                          &ZDApp_LeaveCtrl);
   \   00000A                ; Setup parameters for call to function osal_nv_write
   \   00000A   02....       LJMP    ?Subroutine1 & 0xFFFF
   1723          }
   1724          
   1725          /*********************************************************************
   1726           * @fn      ZDApp_LeaveCtrlBypass
   1727           *
   1728           * @brief   Check if NV restore should be skipped during a leave reset.
   1729           *
   1730           * @param   none
   1731           *
   1732           * @return  uint8 - (TRUE bypass:FALSE do not bypass)
   1733           */

   \                                 In  segment BANKED_CODE, align 1, keep-with-next
   1734          uint8 ZDApp_LeaveCtrlBypass( void )
   \                     ZDApp_LeaveCtrlBypass:
   1735          {
   \   000000   C082         PUSH    DPL
   \   000002   C083         PUSH    DPH
   \   000004                ; Saved register size: 2
   \   000004                ; Auto size: 0
   1736            uint8 bypass;
   1737          
   1738            if ( ZDApp_LeaveCtrl & ZDAPP_LEAVE_CTRL_SET )
   1739            {
   1740              bypass = TRUE;
   1741            }
   1742            else
   1743            {
   1744              bypass = FALSE;
   1745            }
   1746          
   1747            return bypass;
   \   000004   90....       MOV     DPTR,#ZDApp_LeaveCtrl
   \   000007   E0           MOVX    A,@DPTR
   \   000008   A2E0         MOV     C,0xE0 /* A   */.0
   \   00000A   E4           CLR     A
   \   00000B   33           RLC     A
   \   00000C   F9           MOV     R1,A
   \   00000D   80..         SJMP    ??Subroutine50_0
   1748          }
   1749          
   1750          /*********************************************************************
   1751           * @fn      ZDApp_LeaveCtrlStartup
   1752           *
   1753           * @brief   Check for startup conditions during a leave reset.
   1754           *
   1755           * @param   state      - devState_t determined by leave control logic
   1756           * @param   startDelay - startup delay
   1757           *
   1758           * @return  none
   1759           */

   \                                 In  segment BANKED_CODE, align 1, keep-with-next
   1760          void ZDApp_LeaveCtrlStartup( devStates_t* state, uint16* startDelay )
   \                     ZDApp_LeaveCtrlStartup:
   1761          {
   \   000000   C082         PUSH    DPL
   \   000002   C083         PUSH    DPH
   \   000004                ; Saved register size: 2
   \   000004                ; Auto size: 0
   1762            *startDelay = 0;
   \   000004   8C82         MOV     DPL,R4
   \   000006   8D83         MOV     DPH,R5
   \   000008   E4           CLR     A
   \   000009   F0           MOVX    @DPTR,A
   \   00000A   A3           INC     DPTR
   \   00000B   F0           MOVX    @DPTR,A
   1763          
   1764            if ( ZDApp_LeaveCtrl & ZDAPP_LEAVE_CTRL_SET )
   \   00000C   90....       MOV     DPTR,#ZDApp_LeaveCtrl
   \   00000F   E0           MOVX    A,@DPTR
   \   000010   A2E0         MOV     C,0xE0 /* A   */.0
   \   000012   5019         JNC     ??ZDApp_LeaveCtrlStartup_0
   1765            {
   1766              if ( ZDApp_LeaveCtrl & ZDAPP_LEAVE_CTRL_RA )
   \   000014   A2E1         MOV     C,0xE0 /* A   */.1
   \   000016   500C         JNC     ??ZDApp_LeaveCtrlStartup_1
   1767              {
   1768                *startDelay = LEAVE_RESET_DELAY;
   \   000018   8C82         MOV     DPL,R4
   \   00001A   8D83         MOV     DPH,R5
   \   00001C   7488         MOV     A,#-0x78
   \   00001E   F0           MOVX    @DPTR,A
   \   00001F   A3           INC     DPTR
   \   000020   7413         MOV     A,#0x13
   \   000022   8005         SJMP    ??ZDApp_LeaveCtrlStartup_2
   1769              }
   1770              else
   1771              {
   1772                *state = DEV_HOLD;
   \                     ??ZDApp_LeaveCtrlStartup_1:
   \   000024   8A82         MOV     DPL,R2
   \   000026   8B83         MOV     DPH,R3
   \   000028   E4           CLR     A
   \                     ??ZDApp_LeaveCtrlStartup_2:
   \   000029   F0           MOVX    @DPTR,A
   1773              }
   1774          
   1775              // Reset leave control logic
   1776              ZDApp_LeaveCtrlReset();
   \   00002A                ; Setup parameters for call to function ZDApp_LeaveCtrlReset
   \   00002A   12....       LCALL   ??ZDApp_LeaveCtrlReset?relay
   1777            }
   1778          }
   \                     ??ZDApp_LeaveCtrlStartup_0:
   \   00002D   80..         SJMP    ??Subroutine50_0
   1779          
   1780          /*********************************************************************
   1781           * @fn      ZDApp_LeaveReset
   1782           *
   1783           * @brief   Setup a device reset due to a leave indication/confirm.
   1784           *
   1785           * @param   ra - reassociate flag
   1786           *
   1787           * @return  none
   1788           */

   \                                 In  segment BANKED_CODE, align 1, keep-with-next
   1789          void ZDApp_LeaveReset( uint8 ra )
   \                     ZDApp_LeaveReset:
   1790          {
   \   000000   74F7         MOV     A,#-0x9
   \   000002   12....       LCALL   ?BANKED_ENTER_XDATA
   \   000005                ; Saved register size: 9
   \   000005                ; Auto size: 0
   1791            ZDApp_LeaveCtrlSet( ra );
   \   000005                ; Setup parameters for call to function ZDApp_LeaveCtrlSet
   \   000005   12....       LCALL   ??ZDApp_LeaveCtrlSet?relay
   1792          
   1793            ZDApp_ResetTimerStart( LEAVE_RESET_DELAY );
   \   000008                ; Setup parameters for call to function ZDApp_ResetTimerStart
   \   000008   7A88         MOV     R2,#-0x78
   \   00000A   7B13         MOV     R3,#0x13
   \   00000C   12....       LCALL   ??ZDApp_ResetTimerStart?relay
   1794          }
   \   00000F   80..         SJMP    ??Subroutine51_0
   1795          
   1796          /*********************************************************************
   1797           * @fn      ZDApp_LeaveUpdate
   1798           *
   1799           * @brief   Update local device data related to leaving device.
   1800           *
   1801           * @param   nwkAddr        - NWK address of leaving device
   1802           * @param   extAddr        - EXT address of leaving device
   1803           * @param   removeChildren - remove children of leaving device
   1804           *
   1805           * @return  none
   1806           */

   \                                 In  segment BANKED_CODE, align 1, keep-with-next
   1807          void ZDApp_LeaveUpdate( uint16 nwkAddr, uint8* extAddr,
   \                     ZDApp_LeaveUpdate:
   1808                                  uint8 removeChildren )
   1809          {
   \   000000   74F1         MOV     A,#-0xf
   \   000002   12....       LCALL   ?BANKED_ENTER_XDATA
   \   000005                ; Saved register size: 15
   \   000005                ; Auto size: 9
   \   000005   74F7         MOV     A,#-0x9
   \   000007   12....       LCALL   ?ALLOC_XSTACK8
   \   00000A   8A..         MOV     ?V0 + 0,R2
   \   00000C   8B..         MOV     ?V0 + 1,R3
   \   00000E   EC           MOV     A,R4
   \   00000F   FE           MOV     R6,A
   \   000010   ED           MOV     A,R5
   \   000011   FF           MOV     R7,A
   \   000012   89..         MOV     ?V0 + 2,R1
   1810            // Remove Apps Key for leaving device
   1811            ZDSecMgrDeviceRemoveByExtAddr(extAddr);
   \   000014                ; Setup parameters for call to function ZDSecMgrDeviceRemoveByExtAddr
   \   000014   EE           MOV     A,R6
   \   000015   FA           MOV     R2,A
   \   000016   EF           MOV     A,R7
   \   000017   FB           MOV     R3,A
   \   000018   12....       LCALL   ??ZDSecMgrDeviceRemoveByExtAddr?relay
   1812          
   1813            // Clear SECURITY bit from Address Manager
   1814            ZDSecMgrAddrClear( extAddr );
   \   00001B                ; Setup parameters for call to function ZDSecMgrAddrClear
   \   00001B   EE           MOV     A,R6
   \   00001C   FA           MOV     R2,A
   \   00001D   EF           MOV     A,R7
   \   00001E   FB           MOV     R3,A
   \   00001F   12....       LCALL   ??ZDSecMgrAddrClear?relay
   1815          
   1816            if ( pbindRemoveDev )
   \   000022   90....       MOV     DPTR,#pbindRemoveDev
   \   000025   12....       LCALL   ?Subroutine14 & 0xFFFF
   \                     ??CrossCallReturnLabel_10:
   \   000028   603C         JZ      ??ZDApp_LeaveUpdate_0
   1817            {
   1818              zAddrType_t devAddr;
   1819          
   1820              // Remove bind entry and all related data
   1821              devAddr.addrMode = Addr64Bit;
   \   00002A   7408         MOV     A,#0x8
   \   00002C   12....       LCALL   ?XSTACK_DISP0_8
   \   00002F   7403         MOV     A,#0x3
   \   000031   F0           MOVX    @DPTR,A
   1822              osal_memcpy(devAddr.addr.extAddr, extAddr, Z_EXTADDR_LEN);
   \   000032                ; Setup parameters for call to function osal_memcpy
   \   000032   8E..         MOV     ?V0 + 4,R6
   \   000034   8F..         MOV     ?V0 + 5,R7
   \   000036   75..00       MOV     ?V0 + 6,#0x0
   \   000039   78..         MOV     R0,#?V0 + 4
   \   00003B   12....       LCALL   ?PUSH_XSTACK_I_THREE
   \   00003E   7C08         MOV     R4,#0x8
   \   000040   7D00         MOV     R5,#0x0
   \   000042   7403         MOV     A,#0x3
   \   000044   12....       LCALL   ?XSTACK_DISP0_8
   \   000047   AA82         MOV     R2,DPL
   \   000049   AB83         MOV     R3,DPH
   \   00004B   12....       LCALL   ??osal_memcpy?relay
   \   00004E   7403         MOV     A,#0x3
   \   000050   12....       LCALL   ?DEALLOC_XSTACK8
   1823          
   1824              pbindRemoveDev(&devAddr);
   \   000053                ; Setup parameters for indirect call
   \   000053   85..82       MOV     DPL,?XSP + 0
   \   000056   85..83       MOV     DPH,?XSP + 1
   \   000059   AA82         MOV     R2,DPL
   \   00005B   AB83         MOV     R3,DPH
   \   00005D   90....       MOV     DPTR,#pbindRemoveDev
   \   000060   12....       LCALL   ??Subroutine58_0 & 0xFFFF
   1825            }
   \                     ??CrossCallReturnLabel_116:
   \   000063   12....       LCALL   ?CALL_IND
   1826          
   1827            // Remove if child
   1828            if ( ZSTACK_ROUTER_BUILD )
   1829            {
   1830              NLME_RemoveChild( extAddr, removeChildren );
   \                     ??ZDApp_LeaveUpdate_0:
   \   000066                ; Setup parameters for call to function NLME_RemoveChild
   \   000066   A9..         MOV     R1,?V0 + 2
   \   000068   EE           MOV     A,R6
   \   000069   FA           MOV     R2,A
   \   00006A   EF           MOV     A,R7
   \   00006B   FB           MOV     R3,A
   \   00006C   12....       LCALL   ??NLME_RemoveChild?relay
   1831            }
   1832          
   1833            // Remove Routing table related entry
   1834            RTG_RemoveRtgEntry( nwkAddr, 0 );
   \   00006F                ; Setup parameters for call to function RTG_RemoveRtgEntry
   \   00006F   7900         MOV     R1,#0x0
   \   000071   AA..         MOV     R2,?V0 + 0
   \   000073   AB..         MOV     R3,?V0 + 1
   \   000075   12....       LCALL   ??RTG_RemoveRtgEntry?relay
   1835          
   1836            // Remove entry from neighborTable
   1837            nwkNeighborRemove( nwkAddr, _NIB.nwkPanId );
   \   000078                ; Setup parameters for call to function nwkNeighborRemove
   \   000078   90....       MOV     DPTR,#_NIB + 33
   \   00007B   E0           MOVX    A,@DPTR
   \   00007C   FC           MOV     R4,A
   \   00007D   A3           INC     DPTR
   \   00007E   E0           MOVX    A,@DPTR
   \   00007F   FD           MOV     R5,A
   \   000080   AA..         MOV     R2,?V0 + 0
   \   000082   AB..         MOV     R3,?V0 + 1
   \   000084   12....       LCALL   ??nwkNeighborRemove?relay
   1838          
   1839            // Schedule to save data to NV
   1840            ZDApp_NwkWriteNVRequest();
   \   000087                ; Setup parameters for call to function AddrMgrWriteNVRequest
   \   000087   12....       LCALL   ??AddrMgrWriteNVRequest?relay
   1841          }
   \   00008A   7409         MOV     A,#0x9
   \   00008C   12....       LCALL   ?DEALLOC_XSTACK8
   \   00008F   7F07         MOV     R7,#0x7
   \   000091   02....       LJMP    ?BANKED_LEAVE_XDATA

   \                                 In  segment BANKED_CODE, align 1, keep-with-next
   \                     ??Subroutine58_0:
   \   000000   E0           MOVX    A,@DPTR
   \   000001   F8           MOV     R0,A
   \   000002   A3           INC     DPTR
   \   000003                REQUIRE ??Subroutine59_0
   \   000003                ; // Fall through to label ??Subroutine59_0
   1842          
   1843          /*********************************************************************
   1844           * @fn      ZDApp_NetworkDiscoveryReq
   1845           *
   1846           * @brief   Request a network discovery.
   1847           *
   1848           * @param  scanChannels -
   1849           * @param  scanDuration -
   1850           *
   1851           * @return  ZStatus_t
   1852           */

   \                                 In  segment BANKED_CODE, align 1, keep-with-next
   1853          ZStatus_t ZDApp_NetworkDiscoveryReq( uint32 scanChannels, uint8 scanDuration)
   \                     ZDApp_NetworkDiscoveryReq:
   1854          {
   \   000000   74F4         MOV     A,#-0xc
   \   000002   12....       LCALL   ?BANKED_ENTER_XDATA
   \   000005                ; Saved register size: 12
   \   000005                ; Auto size: 0
   1855            // Setup optional filters - tbd
   1856          
   1857            // Request NLME network discovery
   1858            return NLME_NetworkDiscoveryRequest(scanChannels, scanDuration);
   \   000005                ; Setup parameters for call to function NLME_NetworkDiscoveryRequest
   \   000005   12....       LCALL   ??NLME_NetworkDiscoveryRequest?relay
   \   000008   02....       LJMP    ??Subroutine45_0 & 0xFFFF
   1859          }
   1860          
   1861          /*********************************************************************
   1862           * @fn      ZDApp_JoinReq
   1863           *
   1864           * @brief   Request the device to join a parent in a network.
   1865           *
   1866           * @param   channel -
   1867           * @param   panID -
   1868           *
   1869           * @return  ZStatus_t
   1870           */

   \                                 In  segment BANKED_CODE, align 1, keep-with-next
   1871          ZStatus_t ZDApp_JoinReq( uint8 channel, uint16 panID, uint8 *extendedPanID,
   \                     ZDApp_JoinReq:
   1872                                   uint16 chosenParent, uint8 parentDepth, uint8 stackProfile )
   1873          {
   \   000000   74F2         MOV     A,#-0xe
   \   000002   12....       LCALL   ?BANKED_ENTER_XDATA
   \   000005                ; Saved register size: 14
   \   000005                ; Auto size: 0
   \   000005   89..         MOV     ?V0 + 4,R1
   \   000007   8A..         MOV     ?V0 + 0,R2
   \   000009   8B..         MOV     ?V0 + 1,R3
   \   00000B   EC           MOV     A,R4
   \   00000C   FE           MOV     R6,A
   \   00000D   ED           MOV     A,R5
   \   00000E   FF           MOV     R7,A
   \   00000F   740E         MOV     A,#0xe
   \   000011   12....       LCALL   ?XSTACK_DISP0_8
   \   000014   E0           MOVX    A,@DPTR
   \   000015   F5..         MOV     ?V0 + 2,A
   \   000017   A3           INC     DPTR
   \   000018   E0           MOVX    A,@DPTR
   \   000019   F5..         MOV     ?V0 + 3,A
   \   00001B   7410         MOV     A,#0x10
   \   00001D   12....       LCALL   ?XSTACK_DISP0_8
   \   000020   E0           MOVX    A,@DPTR
   \   000021   F5..         MOV     ?V0 + 5,A
   \   000023   7411         MOV     A,#0x11
   \   000025   12....       LCALL   ?XSTACK_DISP0_8
   \   000028   E0           MOVX    A,@DPTR
   \   000029   F9           MOV     R1,A
   1874            // Sync up the node with the stack profile (In the case where a pro device
   1875            // joins a non-pro network, or verse versa)
   1876            ZDApp_NodeProfileSync( stackProfile);
   \   00002A                ; Setup parameters for call to function ZDApp_NodeProfileSync
   \   00002A   12....       LCALL   ??ZDApp_NodeProfileSync?relay
   1877          
   1878            // Request NLME Join Request
   1879            return NLME_JoinRequest(extendedPanID, panID,channel,
   1880                                    ZDO_Config_Node_Descriptor.CapabilityFlags,
   1881                                    chosenParent, parentDepth);
   \   00002D                ; Setup parameters for call to function NLME_JoinRequest
   \   00002D   78..         MOV     R0,#?V0 + 5
   \   00002F   12....       LCALL   ?PUSH_XSTACK_I_ONE
   \   000032   78..         MOV     R0,#?V0 + 2
   \   000034   12....       LCALL   ?PUSH_XSTACK_I_TWO
   \   000037   90....       MOV     DPTR,#ZDO_Config_Node_Descriptor + 2
   \   00003A   E0           MOVX    A,@DPTR
   \   00003B   F5..         MOV     ?V0 + 2,A
   \   00003D   78..         MOV     R0,#?V0 + 2
   \   00003F   12....       LCALL   ?PUSH_XSTACK_I_ONE
   \   000042   A9..         MOV     R1,?V0 + 4
   \   000044   AC..         MOV     R4,?V0 + 0
   \   000046   AD..         MOV     R5,?V0 + 1
   \   000048   EE           MOV     A,R6
   \   000049   FA           MOV     R2,A
   \   00004A   EF           MOV     A,R7
   \   00004B   FB           MOV     R3,A
   \   00004C   12....       LCALL   ??NLME_JoinRequest?relay
   \   00004F   7404         MOV     A,#0x4
   \   000051   12....       LCALL   ?DEALLOC_XSTACK8
   \   000054                REQUIRE ?Subroutine4
   \   000054                ; // Fall through to label ?Subroutine4
   1882          
   1883          }

   \                                 In  segment BANKED_CODE, align 1, keep-with-next
   \                     ?Subroutine4:
   \   000000   7F06         MOV     R7,#0x6
   \   000002   02....       LJMP    ?BANKED_LEAVE_XDATA
   1884          
   1885          /*********************************************************************
   1886           * @fn      ZDApp_DeviceConfigured
   1887           *
   1888           * @brief   Check to see if the local device is configured (i.e., part
   1889           *          of a network).
   1890           *
   1891           * @param   none
   1892           *
   1893           * @return  TRUE if configured. FALSE, otherwise.
   1894           */

   \                                 In  segment BANKED_CODE, align 1, keep-with-next
   1895          uint8 ZDApp_DeviceConfigured( void )
   \                     ZDApp_DeviceConfigured:
   1896          {
   \   000000   74F6         MOV     A,#-0xa
   \   000002   12....       LCALL   ?BANKED_ENTER_XDATA
   \   000005                ; Saved register size: 10
   \   000005                ; Auto size: 2
   \   000005   74FE         MOV     A,#-0x2
   \   000007   12....       LCALL   ?ALLOC_XSTACK8
   1897            uint16 nwkAddr = INVALID_NODE_ADDR;
   \   00000A   85..82       MOV     DPL,?XSP + 0
   \   00000D   85..83       MOV     DPH,?XSP + 1
   \   000010   74FE         MOV     A,#-0x2
   \   000012   F0           MOVX    @DPTR,A
   \   000013   A3           INC     DPTR
   \   000014   04           INC     A
   \   000015   F0           MOVX    @DPTR,A
   1898          
   1899            osal_nv_read( ZCD_NV_NIB, osal_offsetof( nwkIB_t, nwkDevAddress ),
   1900                          sizeof( uint16), &nwkAddr );
   \   000016                ; Setup parameters for call to function osal_nv_read
   \   000016   85..82       MOV     DPL,?XSP + 0
   \   000019   85..83       MOV     DPH,?XSP + 1
   \   00001C   8582..       MOV     ?V0 + 0,DPL
   \   00001F   8583..       MOV     ?V0 + 1,DPH
   \   000022   78..         MOV     R0,#?V0 + 0
   \   000024   12....       LCALL   ?PUSH_XSTACK_I_TWO
   \   000027   75..02       MOV     ?V0 + 0,#0x2
   \   00002A   75..00       MOV     ?V0 + 1,#0x0
   \   00002D   78..         MOV     R0,#?V0 + 0
   \   00002F   12....       LCALL   ?PUSH_XSTACK_I_TWO
   \   000032   7C14         MOV     R4,#0x14
   \   000034   7D00         MOV     R5,#0x0
   \   000036   7A21         MOV     R2,#0x21
   \   000038   12....       LCALL   ?Subroutine35 & 0xFFFF
   \                     ??CrossCallReturnLabel_49:
   \   00003B   12....       LCALL   ?DEALLOC_XSTACK8
   1901          
   1902            // Does the NIB have anything more than default?
   1903            return ( nwkAddr == INVALID_NODE_ADDR ? FALSE : TRUE );
   \   00003E   85..82       MOV     DPL,?XSP + 0
   \   000041   85..83       MOV     DPH,?XSP + 1
   \   000044   E0           MOVX    A,@DPTR
   \   000045   64FE         XRL     A,#0xfe
   \   000047   7003         JNZ     ??ZDApp_DeviceConfigured_0
   \   000049   A3           INC     DPTR
   \   00004A   E0           MOVX    A,@DPTR
   \   00004B   F4           CPL     A
   \                     ??ZDApp_DeviceConfigured_0:
   \   00004C   7004         JNZ     ??ZDApp_DeviceConfigured_1
   \   00004E   7900         MOV     R1,#0x0
   \   000050   8002         SJMP    ??ZDApp_DeviceConfigured_2
   \                     ??ZDApp_DeviceConfigured_1:
   \   000052   7901         MOV     R1,#0x1
   \                     ??ZDApp_DeviceConfigured_2:
   \   000054   02....       LJMP    ?Subroutine7 & 0xFFFF
   1904          }
   1905          
   1906          /*********************************************************************
   1907           * CALLBACK FUNCTIONS
   1908           */
   1909          
   1910          
   1911          /*********************************************************************
   1912           * @fn      ZDApp_SendEventMsg()
   1913           *
   1914           * @brief
   1915           *
   1916           *   Sends a Network Join message
   1917           *
   1918           * @param  cmd - command ID
   1919           * @param  len - length (in bytes) of the buf field
   1920           * @param  buf - buffer for the rest of the message.
   1921           *
   1922           * @return  none
   1923           */

   \                                 In  segment BANKED_CODE, align 1, keep-with-next
   1924          void ZDApp_SendEventMsg( uint8 cmd, uint8 len, uint8 *buf )
   \                     ZDApp_SendEventMsg:
   1925          {
   \   000000   74F7         MOV     A,#-0x9
   \   000002   12....       LCALL   ?BANKED_ENTER_XDATA
   \   000005                ; Saved register size: 9
   \   000005                ; Auto size: 0
   \   000005   E9           MOV     A,R1
   \   000006   FE           MOV     R6,A
   \   000007   EA           MOV     A,R2
   1926            ZDApp_SendMsg( ZDAppTaskID, cmd, len, buf );
   \   000008                ; Setup parameters for call to function ZDApp_SendMsg
   \   000008   FB           MOV     R3,A
   \   000009   EE           MOV     A,R6
   \   00000A   FA           MOV     R2,A
   \   00000B   12....       LCALL   ?Subroutine24 & 0xFFFF
   1927          }
   \                     ??CrossCallReturnLabel_28:
   \   00000E   02....       LJMP    ??Subroutine51_0 & 0xFFFF

   \                                 In  segment BANKED_CODE, align 1, keep-with-next
   \                     ?Subroutine24:
   \   000000   90....       MOV     DPTR,#ZDAppTaskID
   \   000003   E0           MOVX    A,@DPTR
   \   000004   F9           MOV     R1,A
   \   000005   12....       LCALL   ??ZDApp_SendMsg?relay
   \   000008   22           RET
   1928          
   1929          /*********************************************************************
   1930           * @fn      ZDApp_SendMsg()
   1931           *
   1932           * @brief   Sends a OSAL message
   1933           *
   1934           * @param  taskID - Where to send the message
   1935           * @param  cmd - command ID
   1936           * @param  len - length (in bytes) of the buf field
   1937           * @param  buf - buffer for the rest of the message.
   1938           *
   1939           * @return  none
   1940           */

   \                                 In  segment BANKED_CODE, align 1, keep-with-next
   1941          void ZDApp_SendMsg( uint8 taskID, uint8 cmd, uint8 len, uint8 *buf )
   \                     ZDApp_SendMsg:
   1942          {
   \   000000   74F0         MOV     A,#-0x10
   \   000002   12....       LCALL   ?BANKED_ENTER_XDATA
   \   000005                ; Saved register size: 16
   \   000005                ; Auto size: 0
   \   000005   89..         MOV     ?V0 + 3,R1
   \   000007   8A..         MOV     ?V0 + 4,R2
   \   000009   8B..         MOV     ?V0 + 5,R3
   \   00000B   8C..         MOV     ?V0 + 0,R4
   \   00000D   8D..         MOV     ?V0 + 1,R5
   1943            osal_event_hdr_t *msgPtr;
   1944          
   1945            // Send the address to the task
   1946            msgPtr = (osal_event_hdr_t *)osal_msg_allocate( len );
   \   00000F                ; Setup parameters for call to function osal_msg_allocate
   \   00000F   8B..         MOV     ?V0 + 6,R3
   \   000011   AA..         MOV     R2,?V0 + 6
   \   000013   7B00         MOV     R3,#0x0
   \   000015   12....       LCALL   ??osal_msg_allocate?relay
   \   000018   8A..         MOV     ?V0 + 6,R2
   \   00001A   8B..         MOV     ?V0 + 7,R3
   \   00001C   AE..         MOV     R6,?V0 + 6
   \   00001E   AF..         MOV     R7,?V0 + 7
   1947            if ( msgPtr )
   \   000020   EE           MOV     A,R6
   \   000021   4F           ORL     A,R7
   \   000022   6031         JZ      ??ZDApp_SendMsg_0
   1948            {
   1949              if ( (len > 0) && (buf != NULL) )
   \   000024   E5..         MOV     A,?V0 + 5
   \   000026   601D         JZ      ??ZDApp_SendMsg_1
   \   000028   E5..         MOV     A,?V0 + 0
   \   00002A   45..         ORL     A,?V0 + 1
   \   00002C   6017         JZ      ??ZDApp_SendMsg_1
   1950                osal_memcpy( msgPtr, buf, len );
   \   00002E                ; Setup parameters for call to function osal_memcpy
   \   00002E   75..00       MOV     ?V0 + 2,#0x0
   \   000031   78..         MOV     R0,#?V0 + 0
   \   000033   12....       LCALL   ?PUSH_XSTACK_I_THREE
   \   000036   85....       MOV     ?V0 + 0,?V0 + 5
   \   000039   AC..         MOV     R4,?V0 + 0
   \   00003B   7D00         MOV     R5,#0x0
   \   00003D   12....       LCALL   ??osal_memcpy?relay
   \   000040   7403         MOV     A,#0x3
   \   000042   12....       LCALL   ?DEALLOC_XSTACK8
   1951          
   1952              msgPtr->event = cmd;
   \                     ??ZDApp_SendMsg_1:
   \   000045   8E82         MOV     DPL,R6
   \   000047   8F83         MOV     DPH,R7
   \   000049   E5..         MOV     A,?V0 + 4
   \   00004B   F0           MOVX    @DPTR,A
   1953              osal_msg_send( taskID, (uint8 *)msgPtr );
   \   00004C                ; Setup parameters for call to function osal_msg_send
   \   00004C   EE           MOV     A,R6
   \   00004D   FA           MOV     R2,A
   \   00004E   EF           MOV     A,R7
   \   00004F   FB           MOV     R3,A
   \   000050   A9..         MOV     R1,?V0 + 3
   \   000052   12....       LCALL   ??osal_msg_send?relay
   1954            }
   1955          }
   \                     ??ZDApp_SendMsg_0:
   \   000055   7F08         MOV     R7,#0x8
   \   000057   02....       LJMP    ?BANKED_LEAVE_XDATA
   1956          
   1957          /*********************************************************************
   1958           * Call Back Functions from NWK  - API
   1959           */
   1960          
   1961          /*********************************************************************
   1962           * @fn          ZDO_NetworkDiscoveryConfirmCB
   1963           *
   1964           * @brief       This function returns a choice of PAN to join.
   1965           *
   1966           * @param       status - return status of the nwk discovery confirm
   1967           *
   1968           * @return      ZStatus_t
   1969           */

   \                                 In  segment BANKED_CODE, align 1, keep-with-next
   1970          ZStatus_t ZDO_NetworkDiscoveryConfirmCB(uint8 status)
   \                     ZDO_NetworkDiscoveryConfirmCB:
   1971          {
   \   000000   C082         PUSH    DPL
   \   000002   C083         PUSH    DPH
   \   000004                ; Saved register size: 2
   \   000004                ; Auto size: 3
   \   000004   74FD         MOV     A,#-0x3
   \   000006   12....       LCALL   ?ALLOC_XSTACK8
   \   000009   E9           MOV     A,R1
   \   00000A   85..82       MOV     DPL,?XSP + 0
   \   00000D   85..83       MOV     DPH,?XSP + 1
   \   000010   F0           MOVX    @DPTR,A
   1972            osal_event_hdr_t msg;
   1973          
   1974            // If Scan is initiated by ZDO_MGMT_NWK_DISC_REQ
   1975            // Send ZDO_MGMT_NWK_DISC_RSP back
   1976          #if defined ( ZDO_MGMT_NWKDISC_RESPONSE )
   1977            if ( zdappMgmtNwkDiscReqInProgress )
   \   000011   90....       MOV     DPTR,#zdappMgmtNwkDiscReqInProgress
   \   000014   E0           MOVX    A,@DPTR
   \   000015   6007         JZ      ??ZDO_NetworkDiscoveryConfirmCB_0
   1978            {
   1979              zdappMgmtNwkDiscReqInProgress = false;
   \   000017   E4           CLR     A
   \   000018   F0           MOVX    @DPTR,A
   1980              ZDO_FinishProcessingMgmtNwkDiscReq();
   \   000019                ; Setup parameters for call to function ZDO_FinishProcessingMgmtNwkDiscReq
   \   000019   12....       LCALL   ??ZDO_FinishProcessingMgmtNwkDiscReq?relay
   \   00001C   8033         SJMP    ??CrossCallReturnLabel_29
   1981            }
   1982            else
   1983          #endif
   1984            {
   1985              // Pass the confirm to another task if it registers the callback
   1986              // Otherwise, pass the confirm to ZDApp.
   1987              if (zdoCBFunc[ZDO_NWK_DISCOVERY_CNF_CBID] != NULL )
   \                     ??ZDO_NetworkDiscoveryConfirmCB_0:
   \   00001E   90....       MOV     DPTR,#zdoCBFunc + 4
   \   000021   12....       LCALL   ?Subroutine14 & 0xFFFF
   \                     ??CrossCallReturnLabel_11:
   \   000024   6015         JZ      ??ZDO_NetworkDiscoveryConfirmCB_1
   1988              {
   1989                zdoCBFunc[ZDO_NWK_DISCOVERY_CNF_CBID]( (void*)&status );
   \   000026                ; Setup parameters for indirect call
   \   000026   85..82       MOV     DPL,?XSP + 0
   \   000029   85..83       MOV     DPH,?XSP + 1
   \   00002C   AA82         MOV     R2,DPL
   \   00002E   AB83         MOV     R3,DPH
   \   000030   90....       MOV     DPTR,#zdoCBFunc + 5
   \   000033   12....       LCALL   ??Subroutine59_0 & 0xFFFF
   1990              }
   \                     ??CrossCallReturnLabel_110:
   \   000036   12....       LCALL   ?CALL_IND
   \   000039   8016         SJMP    ??CrossCallReturnLabel_29
   1991              else
   1992              {
   1993                // Otherwise, send scan confirm to ZDApp task to proceed
   1994                msg.status = ZDO_SUCCESS;
   \                     ??ZDO_NetworkDiscoveryConfirmCB_1:
   \   00003B   7402         MOV     A,#0x2
   \   00003D   12....       LCALL   ?XSTACK_DISP0_8
   \   000040   E4           CLR     A
   \   000041   F0           MOVX    @DPTR,A
   1995                ZDApp_SendMsg( ZDAppTaskID, ZDO_NWK_DISC_CNF, sizeof(osal_event_hdr_t), (uint8 *)&msg );
   \   000042                ; Setup parameters for call to function ZDApp_SendMsg
   \   000042   04           INC     A
   \   000043   12....       LCALL   ?XSTACK_DISP0_8
   \   000046   AC82         MOV     R4,DPL
   \   000048   AD83         MOV     R5,DPH
   \   00004A   7B02         MOV     R3,#0x2
   \   00004C   7A01         MOV     R2,#0x1
   \   00004E   12....       LCALL   ?Subroutine24 & 0xFFFF
   1996              }
   1997            }
   1998            return (ZSuccess);
   \                     ??CrossCallReturnLabel_29:
   \   000051   7900         MOV     R1,#0x0
   \   000053   7403         MOV     A,#0x3
   \   000055   12....       LCALL   ?DEALLOC_XSTACK8
   \   000058   02....       LJMP    ??Subroutine50_0 & 0xFFFF
   1999          }  // ZDO_NetworkDiscoveryConfirmCB
   2000          
   2001          /*********************************************************************
   2002           * @fn          ZDApp_NwkDescListProcessing
   2003           *
   2004           * @brief       This function process the network discovery result and select
   2005           *              a parent device to join itself.
   2006           *
   2007           * @param       none
   2008           *
   2009           * @return      ZStatus_t
   2010           */
   2011          #define STACK_PROFILE_MAX 2

   \                                 In  segment BANKED_CODE, align 1, keep-with-next
   2012          networkDesc_t* ZDApp_NwkDescListProcessing(void)
   \                     ZDApp_NwkDescListProcessing:
   2013          {
   \   000000   74F2         MOV     A,#-0xe
   \   000002   12....       LCALL   ?BANKED_ENTER_XDATA
   \   000005                ; Saved register size: 14
   \   000005                ; Auto size: 0
   2014            networkDesc_t *pNwkDesc;
   2015            uint8 i, ResultCount = 0;
   \   000005   75..00       MOV     ?V0 + 0,#0x0
   2016            uint8 stackProfile;
   2017            uint8 stackProfilePro;
   2018            uint8 selected;
   2019          
   2020            // Count the number of nwk descriptors in the list
   2021            pNwkDesc = nwk_getNwkDescList();
   \   000008                ; Setup parameters for call to function nwk_getNwkDescList
   \   000008   12....       LCALL   ??nwk_getNwkDescList?relay
   \   00000B   8A..         MOV     ?V0 + 2,R2
   \   00000D   8B..         MOV     ?V0 + 3,R3
   \   00000F   AE..         MOV     R6,?V0 + 2
   \   000011   AF..         MOV     R7,?V0 + 3
   \   000013   8005         SJMP    ??CrossCallReturnLabel_90
   2022            while (pNwkDesc)
   2023            {
   2024              ResultCount++;
   \                     ??ZDApp_NwkDescListProcessing_0:
   \   000015   05..         INC     ?V0 + 0
   2025              pNwkDesc = pNwkDesc->nextDesc;
   \   000017   12....       LCALL   ?Subroutine21 & 0xFFFF
   2026            }
   \                     ??CrossCallReturnLabel_90:
   \   00001A   EE           MOV     A,R6
   \   00001B   4F           ORL     A,R7
   \   00001C   70F7         JNZ     ??ZDApp_NwkDescListProcessing_0
   2027          
   2028            // process discovery results
   2029            stackProfilePro = FALSE;
   \   00001E   75..00       MOV     ?V0 + 3,#0x0
   2030            selected = FALSE;
   2031          
   2032          
   2033            for ( stackProfile = 0; stackProfile < STACK_PROFILE_MAX; stackProfile++ )
   \   000021   75..00       MOV     ?V0 + 1,#0x0
   2034            {
   2035              pNwkDesc = nwk_getNwkDescList();
   \                     ??ZDApp_NwkDescListProcessing_1:
   \   000024                ; Setup parameters for call to function nwk_getNwkDescList
   \   000024   12....       LCALL   ??nwk_getNwkDescList?relay
   \   000027   8A..         MOV     ?V0 + 4,R2
   \   000029   8B..         MOV     ?V0 + 5,R3
   \   00002B   AE..         MOV     R6,?V0 + 4
   \   00002D   AF..         MOV     R7,?V0 + 5
   2036              for ( i = 0; i < ResultCount; i++, pNwkDesc = pNwkDesc->nextDesc )
   \   00002F   75..00       MOV     ?V0 + 2,#0x0
   \   000032   8023         SJMP    ??CrossCallReturnLabel_91
   2037              {
   2038                if ( zgConfigPANID != 0xFFFF )
   2039                {
   2040                  // PAN Id is preconfigured. check if it matches
   2041                  if ( pNwkDesc->panId != zgConfigPANID )
   2042                    continue;
   2043                }
   2044          
   2045                if ( nwk_ExtPANIDValid( ZDO_UseExtendedPANID) == true )
   2046                {
   2047                  // If the extended Pan ID is commissioned to a non zero value
   2048                  // Only join the Pan that has match EPID
   2049                  if ( osal_ExtAddrEqual( ZDO_UseExtendedPANID, pNwkDesc->extendedPANID) == false )
   2050                    continue;
   2051          
   2052                }
   2053          
   2054                // check that network is allowing joining
   2055                if ( ZSTACK_ROUTER_BUILD )
   2056                {
   2057                  if ( stackProfilePro == FALSE )
   2058                  {
   2059                    if ( !pNwkDesc->routerCapacity )
   2060                    {
   2061                      continue;
   2062                    }
   2063                  }
   2064                  else
   2065                  {
   2066                    if ( !pNwkDesc->deviceCapacity )
   2067                    {
   2068                      continue;
   2069                    }
   2070                  }
   2071                }
   2072                else if ( ZSTACK_END_DEVICE_BUILD )
   2073                {
   2074                  if ( !pNwkDesc->deviceCapacity )
   2075                  {
   2076                    continue;
   2077                  }
   2078                }
   2079          
   2080                // check version of zigbee protocol
   2081                if ( pNwkDesc->version != _NIB.nwkProtocolVersion )
   2082                  continue;
   2083          
   2084                // check version of stack profile
   2085                if ( pNwkDesc->stackProfile != zgStackProfile  )
   2086                {
   2087                  if ( ((zgStackProfile == HOME_CONTROLS) && (pNwkDesc->stackProfile == ZIGBEEPRO_PROFILE))
   2088                      || ((zgStackProfile == ZIGBEEPRO_PROFILE) && (pNwkDesc->stackProfile == HOME_CONTROLS))  )
   \                     ??ZDApp_NwkDescListProcessing_2:
   \   000034   E0           MOVX    A,@DPTR
   \   000035   6402         XRL     A,#0x2
   \   000037   7012         JNZ     ??ZDApp_NwkDescListProcessing_3
   \   000039   8E82         MOV     DPL,R6
   \   00003B   8F83         MOV     DPH,R7
   \   00003D   A3           INC     DPTR
   \   00003E   A3           INC     DPTR
   \   00003F   A3           INC     DPTR
   \   000040   A3           INC     DPTR
   \   000041   A3           INC     DPTR
   \   000042   A3           INC     DPTR
   \   000043   E0           MOVX    A,@DPTR
   \   000044   6401         XRL     A,#0x1
   \   000046   7003         JNZ     ??ZDApp_NwkDescListProcessing_3
   2089                  {
   2090                    stackProfilePro = TRUE;
   \                     ??ZDApp_NwkDescListProcessing_4:
   \   000048   75..01       MOV     ?V0 + 3,#0x1
   2091                  }
   2092          
   2093                  if ( stackProfile == 0 )
   \                     ??ZDApp_NwkDescListProcessing_3:
   \   00004B   E5..         MOV     A,?V0 + 1
   \   00004D   6003         JZ      $+5
   \   00004F   02....       LJMP    ??ZDApp_NwkDescListProcessing_5 & 0xFFFF
   \                     ??ZDApp_NwkDescListProcessing_6:
   \   000052   05..         INC     ?V0 + 2
   \   000054   12....       LCALL   ?Subroutine21 & 0xFFFF
   \                     ??CrossCallReturnLabel_91:
   \   000057   E5..         MOV     A,?V0 + 2
   \   000059   C3           CLR     C
   \   00005A   95..         SUBB    A,?V0 + 0
   \   00005C   4003         JC      $+5
   \   00005E   02....       LJMP    ??ZDApp_NwkDescListProcessing_7 & 0xFFFF
   \   000061   90....       MOV     DPTR,#zgConfigPANID
   \   000064   E0           MOVX    A,@DPTR
   \   000065   F4           CPL     A
   \   000066   7003         JNZ     ??ZDApp_NwkDescListProcessing_8
   \   000068   A3           INC     DPTR
   \   000069   E0           MOVX    A,@DPTR
   \   00006A   F4           CPL     A
   \                     ??ZDApp_NwkDescListProcessing_8:
   \   00006B   600F         JZ      ??ZDApp_NwkDescListProcessing_9
   \   00006D   12....       LCALL   ?Subroutine18 & 0xFFFF
   \                     ??CrossCallReturnLabel_81:
   \   000070   90....       MOV     DPTR,#zgConfigPANID
   \   000073   E0           MOVX    A,@DPTR
   \   000074   68           XRL     A,R0
   \   000075   7003         JNZ     ??ZDApp_NwkDescListProcessing_10
   \   000077   A3           INC     DPTR
   \   000078   E0           MOVX    A,@DPTR
   \   000079   69           XRL     A,R1
   \                     ??ZDApp_NwkDescListProcessing_10:
   \   00007A   70D6         JNZ     ??ZDApp_NwkDescListProcessing_6
   \                     ??ZDApp_NwkDescListProcessing_9:
   \   00007C                ; Setup parameters for call to function nwk_ExtPANIDValid
   \   00007C   7A..         MOV     R2,#ZDO_UseExtendedPANID & 0xff
   \   00007E   7B..         MOV     R3,#(ZDO_UseExtendedPANID >> 8) & 0xff
   \   000080   12....       LCALL   ??nwk_ExtPANIDValid?relay
   \   000083   E9           MOV     A,R1
   \   000084   6401         XRL     A,#0x1
   \   000086   7012         JNZ     ??ZDApp_NwkDescListProcessing_11
   \   000088                ; Setup parameters for call to function sAddrExtCmp
   \   000088   EE           MOV     A,R6
   \   000089   240B         ADD     A,#0xb
   \   00008B   FC           MOV     R4,A
   \   00008C   EF           MOV     A,R7
   \   00008D   3400         ADDC    A,#0x0
   \   00008F   FD           MOV     R5,A
   \   000090   7A..         MOV     R2,#ZDO_UseExtendedPANID & 0xff
   \   000092   7B..         MOV     R3,#(ZDO_UseExtendedPANID >> 8) & 0xff
   \   000094   12....       LCALL   ??sAddrExtCmp?relay
   \   000097   E9           MOV     A,R1
   \   000098   60B8         JZ      ??ZDApp_NwkDescListProcessing_6
   \                     ??ZDApp_NwkDescListProcessing_11:
   \   00009A   E5..         MOV     A,?V0 + 3
   \   00009C   8E82         MOV     DPL,R6
   \   00009E   8F83         MOV     DPH,R7
   \   0000A0   A3           INC     DPTR
   \   0000A1   A3           INC     DPTR
   \   0000A2   A3           INC     DPTR
   \   0000A3   7005         JNZ     ??ZDApp_NwkDescListProcessing_12
   \   0000A5   E0           MOVX    A,@DPTR
   \   0000A6   7006         JNZ     ??ZDApp_NwkDescListProcessing_13
   \   0000A8   80A8         SJMP    ??ZDApp_NwkDescListProcessing_6
   \                     ??ZDApp_NwkDescListProcessing_12:
   \   0000AA   A3           INC     DPTR
   \   0000AB   E0           MOVX    A,@DPTR
   \   0000AC   60A4         JZ      ??ZDApp_NwkDescListProcessing_6
   \                     ??ZDApp_NwkDescListProcessing_13:
   \   0000AE   8E82         MOV     DPL,R6
   \   0000B0   8F83         MOV     DPH,R7
   \   0000B2   A3           INC     DPTR
   \   0000B3   A3           INC     DPTR
   \   0000B4   A3           INC     DPTR
   \   0000B5   A3           INC     DPTR
   \   0000B6   A3           INC     DPTR
   \   0000B7   E0           MOVX    A,@DPTR
   \   0000B8   F8           MOV     R0,A
   \   0000B9   90....       MOV     DPTR,#_NIB + 17
   \   0000BC   E0           MOVX    A,@DPTR
   \   0000BD   68           XRL     A,R0
   \   0000BE   7092         JNZ     ??ZDApp_NwkDescListProcessing_6
   \   0000C0   8E82         MOV     DPL,R6
   \   0000C2   8F83         MOV     DPH,R7
   \   0000C4   A3           INC     DPTR
   \   0000C5   A3           INC     DPTR
   \   0000C6   A3           INC     DPTR
   \   0000C7   A3           INC     DPTR
   \   0000C8   A3           INC     DPTR
   \   0000C9   A3           INC     DPTR
   \   0000CA   E0           MOVX    A,@DPTR
   \   0000CB   F8           MOV     R0,A
   \   0000CC   90....       MOV     DPTR,#zgStackProfile
   \   0000CF   E0           MOVX    A,@DPTR
   \   0000D0   68           XRL     A,R0
   \   0000D1   6039         JZ      ??ZDApp_NwkDescListProcessing_5
   \   0000D3   E0           MOVX    A,@DPTR
   \   0000D4   6401         XRL     A,#0x1
   \   0000D6   6003         JZ      $+5
   \   0000D8   02....       LJMP    ??ZDApp_NwkDescListProcessing_2 & 0xFFFF
   \   0000DB   8E82         MOV     DPL,R6
   \   0000DD   8F83         MOV     DPH,R7
   \   0000DF   A3           INC     DPTR
   \   0000E0   A3           INC     DPTR
   \   0000E1   A3           INC     DPTR
   \   0000E2   A3           INC     DPTR
   \   0000E3   A3           INC     DPTR
   \   0000E4   A3           INC     DPTR
   \   0000E5   E0           MOVX    A,@DPTR
   \   0000E6   6402         XRL     A,#0x2
   \   0000E8   6003         JZ      $+5
   \   0000EA   02....       LJMP    ??ZDApp_NwkDescListProcessing_3 & 0xFFFF
   \   0000ED   02....       LJMP    ??ZDApp_NwkDescListProcessing_4 & 0xFFFF
   2094                  {
   2095                    continue;
   2096                  }
   2097                }
   2098          
   2099                break;
   2100              }
   2101          
   2102              if (i < ResultCount)
   2103              {
   2104               selected = TRUE;
   2105                break;
   2106              }
   2107          
   2108              // break if selected or stack profile pro wasn't found
   2109              if ( (selected == TRUE) || (stackProfilePro == FALSE) )
   \                     ??ZDApp_NwkDescListProcessing_7:
   \   0000F0   E5..         MOV     A,?V0 + 3
   \   0000F2   600C         JZ      ??ZDApp_NwkDescListProcessing_14
   2110              {
   2111                break;
   2112              }
   2113            }
   \   0000F4   05..         INC     ?V0 + 1
   \   0000F6   E5..         MOV     A,?V0 + 1
   \   0000F8   C3           CLR     C
   \   0000F9   9402         SUBB    A,#0x2
   \   0000FB   5003         JNC     $+5
   \   0000FD   02....       LJMP    ??ZDApp_NwkDescListProcessing_1 & 0xFFFF
   2114          
   2115            if ( i == ResultCount )
   \                     ??ZDApp_NwkDescListProcessing_14:
   \   000100   E5..         MOV     A,?V0 + 0
   \   000102   65..         XRL     A,?V0 + 2
   \   000104   7006         JNZ     ??ZDApp_NwkDescListProcessing_5
   2116            {
   2117              return (NULL);   // couldn't find appropriate PAN to join !
   \   000106   7A00         MOV     R2,#0x0
   \   000108   7B00         MOV     R3,#0x0
   \   00010A   8004         SJMP    ??ZDApp_NwkDescListProcessing_15
   2118            }
   2119            else
   2120            {
   2121              return (pNwkDesc);
   \                     ??ZDApp_NwkDescListProcessing_5:
   \   00010C   EE           MOV     A,R6
   \   00010D   FA           MOV     R2,A
   \   00010E   EF           MOV     A,R7
   \   00010F   FB           MOV     R3,A
   2122            }
   \                     ??ZDApp_NwkDescListProcessing_15:
   \   000110   02....       LJMP    ?Subroutine4 & 0xFFFF
   2123          }// ZDApp_NwkDescListProcessing()

   \                                 In  segment BANKED_CODE, align 1, keep-with-next
   \                     ?Subroutine21:
   \   000000   EE           MOV     A,R6
   \   000001   2414         ADD     A,#0x14
   \   000003   F582         MOV     DPL,A
   \   000005   EF           MOV     A,R7
   \   000006   3400         ADDC    A,#0x0
   \   000008   F583         MOV     DPH,A
   \   00000A                REQUIRE ??Subroutine52_0
   \   00000A                ; // Fall through to label ??Subroutine52_0

   \                                 In  segment BANKED_CODE, align 1, keep-with-next
   \                     ??Subroutine52_0:
   \   000000   E0           MOVX    A,@DPTR
   \   000001   FE           MOV     R6,A
   \   000002   A3           INC     DPTR
   \   000003   E0           MOVX    A,@DPTR
   \   000004   FF           MOV     R7,A
   \   000005   22           RET
   2124          
   2125          /*********************************************************************
   2126           * @fn          ZDO_NetworkFormationConfirmCB
   2127           *
   2128           * @brief       This function reports the results of the request to
   2129           *              initialize a coordinator in a network.
   2130           *
   2131           * @param       Status - Result of NLME_NetworkFormationRequest()
   2132           *
   2133           * @return      none
   2134           */

   \                                 In  segment BANKED_CODE, align 1, keep-with-next
   \                     ?Subroutine0:
   \   000000   12....       LCALL   ??Subroutine62_0 & 0xFFFF
   \                     ??CrossCallReturnLabel_127:
   \   000003                REQUIRE ??Subroutine51_0
   \   000003                ; // Fall through to label ??Subroutine51_0

   \                                 In  segment BANKED_CODE, align 1, keep-with-next
   2135          void ZDO_NetworkFormationConfirmCB( ZStatus_t Status )//czv7 这儿是回调函数，ZDO_init而来，并且使LED3亮了，还闪了
   \                     ZDO_NetworkFormationConfirmCB:
   2136          {
   \   000000   74F7         MOV     A,#-0x9
   \   000002   12....       LCALL   ?BANKED_ENTER_XDATA
   \   000005                ; Saved register size: 9
   \   000005                ; Auto size: 0
   \   000005   E9           MOV     A,R1
   2137            nwkStatus = (byte)Status;
   \   000006   90....       MOV     DPTR,#nwkStatus
   \   000009   F0           MOVX    @DPTR,A
   2138          
   2139            if ( Status == ZSUCCESS )
   \   00000A   7008         JNZ     ??ZDO_NetworkFormationConfirmCB_0
   2140            {
   2141              // LED on shows Coordinator started
   2142              HalLedSet ( HAL_LED_3, HAL_LED_MODE_ON );
   \   00000C                ; Setup parameters for call to function HalLedSet
   \   00000C   12....       LCALL   ?Subroutine37 & 0xFFFF
   2143          
   2144              // LED off forgets HOLD_AUTO_START
   2145              HalLedSet (HAL_LED_4, HAL_LED_MODE_OFF);
   2146          
   2147          #if defined ( ZBIT )
   2148              SIM_SetColor(0xd0ffd0);
   2149          #endif
   2150          
   2151              if ( devState == DEV_HOLD )
   \                     ??CrossCallReturnLabel_53:
   \   00000F   7003         JNZ     ??ZDO_NetworkFormationConfirmCB_0
   2152              {
   2153                // Began with HOLD_AUTO_START
   2154                devState = DEV_COORD_STARTING;
   \   000011   7408         MOV     A,#0x8
   \   000013   F0           MOVX    @DPTR,A
   2155              }
   2156            }
   2157          #if defined(BLINK_LEDS)
   2158            else
   2159            {
   2160              HalLedSet ( HAL_LED_3, HAL_LED_MODE_FLASH );  // Flash LED to show failure
   2161            }
   2162          #endif
   2163          
   2164            osal_set_event( ZDAppTaskID, ZDO_NETWORK_START );
   \                     ??ZDO_NetworkFormationConfirmCB_0:
   \   000014                ; Setup parameters for call to function osal_set_event
   \   000014   7A02         MOV     R2,#0x2
   \   000016   02....       LJMP    ?Subroutine0 & 0xFFFF
   2165          }

   \                                 In  segment BANKED_CODE, align 1, keep-with-next
   \                     ?Subroutine37:
   \   000000   7A01         MOV     R2,#0x1
   \   000002   7904         MOV     R1,#0x4
   \   000004   12....       LCALL   ??HalLedSet?relay
   \   000007                ; Setup parameters for call to function HalLedSet
   \   000007                ; Setup parameters for call to function HalLedSet
   \   000007                ; Setup parameters for call to function HalLedSet
   \   000007   7A00         MOV     R2,#0x0
   \   000009   7908         MOV     R1,#0x8
   \   00000B   12....       LCALL   ??HalLedSet?relay
   \   00000E   90....       MOV     DPTR,#devState
   \   000011   E0           MOVX    A,@DPTR
   \   000012   22           RET
   2166          
   2167          /****************************************************************************
   2168           * @fn          ZDApp_beaconIndProcessing
   2169           *
   2170           * @brief       This function processes the incoming beacon indication.
   2171           *
   2172           *              When another task (MT or App) is registered to process
   2173           *              beacon indication themselves, this function will parse the
   2174           *              beacon payload and pass the beacon descriptor to that task
   2175           *              If no other tasks registered, this function will process
   2176           *              the beacon payload and generate the network descriptor link
   2177           *              list.
   2178           *
   2179           * @param
   2180           *
   2181           * @return      none
   2182           *
   2183           */

   \                                 In  segment BANKED_CODE, align 1, keep-with-next
   2184          void ZDO_beaconNotifyIndCB( NLME_beaconInd_t *pBeacon )
   \                     ZDO_beaconNotifyIndCB:
   2185          {
   \   000000   74F2         MOV     A,#-0xe
   \   000002   12....       LCALL   ?BANKED_ENTER_XDATA
   \   000005                ; Saved register size: 14
   \   000005                ; Auto size: 0
   \   000005   8A..         MOV     ?V0 + 0,R2
   \   000007   8B..         MOV     ?V0 + 1,R3
   2186            // Pass the beacon Indication to another task if it registers the callback
   2187            // Otherwise, process the beacon notification here.
   2188            if (zdoCBFunc[ZDO_BEACON_NOTIFY_IND_CBID] != NULL )
   \   000009   90....       MOV     DPTR,#zdoCBFunc + 6
   \   00000C   12....       LCALL   ?Subroutine14 & 0xFFFF
   \                     ??CrossCallReturnLabel_12:
   \   00000F   6009         JZ      ??ZDO_beaconNotifyIndCB_0
   2189            {
   2190              zdoCBFunc[ZDO_BEACON_NOTIFY_IND_CBID]( (void*)pBeacon );
   \   000011                ; Setup parameters for indirect call
   \   000011   12....       LCALL   ??Subroutine59_0 & 0xFFFF
   2191            }
   \                     ??CrossCallReturnLabel_111:
   \   000014   12....       LCALL   ?CALL_IND
   \   000017   02....       LJMP    ??ZDO_beaconNotifyIndCB_1 & 0xFFFF
   2192            else
   2193            {
   2194              networkDesc_t *pNwkDesc;
   2195              networkDesc_t *pLastNwkDesc;
   2196              uint8 found = false;
   2197          
   2198              // Add the network to the Network Descriptor List
   2199              pNwkDesc = NwkDescList;
   \                     ??ZDO_beaconNotifyIndCB_0:
   \   00001A   90....       MOV     DPTR,#NwkDescList
   \   00001D   12....       LCALL   ??Subroutine52_0 & 0xFFFF
   2200              pLastNwkDesc = NwkDescList;
   \                     ??CrossCallReturnLabel_88:
   \   000020   90....       MOV     DPTR,#NwkDescList
   \   000023   E0           MOVX    A,@DPTR
   \   000024   F5..         MOV     ?V0 + 2,A
   \   000026   A3           INC     DPTR
   \   000027   E0           MOVX    A,@DPTR
   \   000028   F5..         MOV     ?V0 + 3,A
   \   00002A   802D         SJMP    ??CrossCallReturnLabel_92
   2201              while (pNwkDesc)
   2202              {
   2203                if ((pNwkDesc->panId == pBeacon->panID) &&
   2204                    (pNwkDesc->logicalChannel == pBeacon->logicalChannel))
   \                     ??ZDO_beaconNotifyIndCB_2:
   \   00002C   12....       LCALL   ?Subroutine18 & 0xFFFF
   \                     ??CrossCallReturnLabel_82:
   \   00002F   8A82         MOV     DPL,R2
   \   000031   8B83         MOV     DPH,R3
   \   000033   A3           INC     DPTR
   \   000034   A3           INC     DPTR
   \   000035   E0           MOVX    A,@DPTR
   \   000036   68           XRL     A,R0
   \   000037   7003         JNZ     ??ZDO_beaconNotifyIndCB_3
   \   000039   A3           INC     DPTR
   \   00003A   E0           MOVX    A,@DPTR
   \   00003B   69           XRL     A,R1
   \                     ??ZDO_beaconNotifyIndCB_3:
   \   00003C   7014         JNZ     ??ZDO_beaconNotifyIndCB_4
   \   00003E   8E82         MOV     DPL,R6
   \   000040   8F83         MOV     DPH,R7
   \   000042   A3           INC     DPTR
   \   000043   A3           INC     DPTR
   \   000044   E0           MOVX    A,@DPTR
   \   000045   F8           MOV     R0,A
   \   000046   8A82         MOV     DPL,R2
   \   000048   8B83         MOV     DPH,R3
   \   00004A   A3           INC     DPTR
   \   00004B   A3           INC     DPTR
   \   00004C   A3           INC     DPTR
   \   00004D   A3           INC     DPTR
   \   00004E   E0           MOVX    A,@DPTR
   \   00004F   68           XRL     A,R0
   \   000050   605F         JZ      ??ZDO_beaconNotifyIndCB_5
   2205                {
   2206                  found = true;
   2207                  break;
   2208                }
   2209                pLastNwkDesc = pNwkDesc;
   \                     ??ZDO_beaconNotifyIndCB_4:
   \   000052   8E..         MOV     ?V0 + 2,R6
   \   000054   8F..         MOV     ?V0 + 3,R7
   2210                pNwkDesc = pNwkDesc->nextDesc;
   \   000056   12....       LCALL   ?Subroutine21 & 0xFFFF
   2211              }
   \                     ??CrossCallReturnLabel_92:
   \   000059   EE           MOV     A,R6
   \   00005A   4F           ORL     A,R7
   \   00005B   70CF         JNZ     ??ZDO_beaconNotifyIndCB_2
   2212          
   2213              // If no existing descriptor found, make a new one and add to the list
   2214              if (found == false)
   2215              {
   2216                pNwkDesc = osal_mem_alloc( sizeof(networkDesc_t)  );
   \   00005D                ; Setup parameters for call to function osal_mem_alloc
   \   00005D   7A16         MOV     R2,#0x16
   \   00005F   7B00         MOV     R3,#0x0
   \   000061   12....       LCALL   ??osal_mem_alloc?relay
   \   000064   8A..         MOV     ?V0 + 4,R2
   \   000066   8B..         MOV     ?V0 + 5,R3
   \   000068   AE..         MOV     R6,?V0 + 4
   \   00006A   AF..         MOV     R7,?V0 + 5
   2217                if ( !pNwkDesc )
   \   00006C   EE           MOV     A,R6
   \   00006D   4F           ORL     A,R7
   \   00006E   7003         JNZ     $+5
   \   000070   02....       LJMP    ??ZDO_beaconNotifyIndCB_1 & 0xFFFF
   2218                {
   2219                  // Memory alloc failed, discard this beacon
   2220                  return;
   2221                }
   2222          
   2223                // Clear the network descriptor
   2224                osal_memset( pNwkDesc, 0, sizeof(networkDesc_t)  );
   \   000073                ; Setup parameters for call to function osal_memset
   \   000073   7C16         MOV     R4,#0x16
   \   000075   7D00         MOV     R5,#0x0
   \   000077   7900         MOV     R1,#0x0
   \   000079   12....       LCALL   ??osal_memset?relay
   2225          
   2226                // Initialize the descriptor
   2227                pNwkDesc->chosenRouter = INVALID_NODE_ADDR;
   \   00007C   8E82         MOV     DPL,R6
   \   00007E   8F83         MOV     DPH,R7
   \   000080   A3           INC     DPTR
   \   000081   A3           INC     DPTR
   \   000082   A3           INC     DPTR
   \   000083   A3           INC     DPTR
   \   000084   A3           INC     DPTR
   \   000085   A3           INC     DPTR
   \   000086   A3           INC     DPTR
   \   000087   74FE         MOV     A,#-0x2
   \   000089   F0           MOVX    @DPTR,A
   \   00008A   A3           INC     DPTR
   \   00008B   04           INC     A
   \   00008C   12....       LCALL   ?Subroutine10 & 0xFFFF
   2228                pNwkDesc->chosenRouterDepth = 0xFF;
   \                     ??CrossCallReturnLabel_3:
   \   00008F   A3           INC     DPTR
   \   000090   A3           INC     DPTR
   \   000091   A3           INC     DPTR
   \   000092   A3           INC     DPTR
   \   000093   F0           MOVX    @DPTR,A
   2229          
   2230                // Save new entry into the descriptor list
   2231                if ( !NwkDescList )
   \   000094   90....       MOV     DPTR,#NwkDescList
   \   000097   12....       LCALL   ?Subroutine14 & 0xFFFF
   \                     ??CrossCallReturnLabel_13:
   \   00009A   7005         JNZ     ??ZDO_beaconNotifyIndCB_6
   2232                {
   2233                  NwkDescList = pNwkDesc;
   \   00009C   90....       MOV     DPTR,#NwkDescList
   \   00009F   800B         SJMP    ??CrossCallReturnLabel_103
   2234                }
   2235                else
   2236                {
   2237                  pLastNwkDesc->nextDesc = pNwkDesc;
   \                     ??ZDO_beaconNotifyIndCB_6:
   \   0000A1   E5..         MOV     A,?V0 + 2
   \   0000A3   2414         ADD     A,#0x14
   \   0000A5   F582         MOV     DPL,A
   \   0000A7   E5..         MOV     A,?V0 + 3
   \   0000A9   12....       LCALL   ??Subroutine56_0 & 0xFFFF
   2238                }
   2239              }
   \                     ??CrossCallReturnLabel_103:
   \   0000AC   EE           MOV     A,R6
   \   0000AD   F0           MOVX    @DPTR,A
   \   0000AE   A3           INC     DPTR
   \   0000AF   EF           MOV     A,R7
   \   0000B0   F0           MOVX    @DPTR,A
   2240          
   2241              // Update the descriptor with the incoming beacon
   2242              pNwkDesc->stackProfile   = pBeacon->stackProfile;
   \                     ??ZDO_beaconNotifyIndCB_5:
   \   0000B1   85..82       MOV     DPL,?V0 + 0
   \   0000B4   85..83       MOV     DPH,?V0 + 1
   \   0000B7   A3           INC     DPTR
   \   0000B8   A3           INC     DPTR
   \   0000B9   A3           INC     DPTR
   \   0000BA   A3           INC     DPTR
   \   0000BB   A3           INC     DPTR
   \   0000BC   A3           INC     DPTR
   \   0000BD   A3           INC     DPTR
   \   0000BE   A3           INC     DPTR
   \   0000BF   A3           INC     DPTR
   \   0000C0   12....       LCALL   ?Subroutine26 & 0xFFFF
   \                     ??CrossCallReturnLabel_34:
   \   0000C3   A3           INC     DPTR
   \   0000C4   F0           MOVX    @DPTR,A
   2243              pNwkDesc->version        = pBeacon->protocolVersion;
   \   0000C5   E5..         MOV     A,?V0 + 0
   \   0000C7   2408         ADD     A,#0x8
   \   0000C9   F8           MOV     R0,A
   \   0000CA   E5..         MOV     A,?V0 + 1
   \   0000CC   3400         ADDC    A,#0x0
   \   0000CE   F9           MOV     R1,A
   \   0000CF   8882         MOV     DPL,R0
   \   0000D1   8983         MOV     DPH,R1
   \   0000D3   12....       LCALL   ?Subroutine26 & 0xFFFF
   \                     ??CrossCallReturnLabel_35:
   \   0000D6   12....       LCALL   ?Subroutine12 & 0xFFFF
   2244              pNwkDesc->logicalChannel = pBeacon->logicalChannel;
   \                     ??CrossCallReturnLabel_6:
   \   0000D9   E0           MOVX    A,@DPTR
   \   0000DA   8E82         MOV     DPL,R6
   \   0000DC   8F83         MOV     DPH,R7
   \   0000DE   A3           INC     DPTR
   \   0000DF   A3           INC     DPTR
   \   0000E0   12....       LCALL   ?Subroutine38 & 0xFFFF
   2245              pNwkDesc->panId          = pBeacon->panID;
   \                     ??CrossCallReturnLabel_56:
   \   0000E3   12....       LCALL   ?Subroutine40 & 0xFFFF
   \                     ??CrossCallReturnLabel_62:
   \   0000E6   8E82         MOV     DPL,R6
   \   0000E8   8F83         MOV     DPH,R7
   \   0000EA   12....       LCALL   ??Subroutine64_0 & 0xFFFF
   2246              pNwkDesc->updateId       = pBeacon->updateID;
   \                     ??CrossCallReturnLabel_133:
   \   0000ED   E5..         MOV     A,?V0 + 0
   \   0000EF   240C         ADD     A,#0xc
   \   0000F1   F582         MOV     DPL,A
   \   0000F3   E5..         MOV     A,?V0 + 1
   \   0000F5   12....       LCALL   ??Subroutine54_0 & 0xFFFF
   \                     ??CrossCallReturnLabel_93:
   \   0000F8   C0E0         PUSH    A
   \   0000FA   EE           MOV     A,R6
   \   0000FB   2413         ADD     A,#0x13
   \   0000FD   12....       LCALL   ??Subroutine55_0 & 0xFFFF
   \                     ??CrossCallReturnLabel_105:
   \   000100   D0E0         POP     A
   \   000102   F0           MOVX    @DPTR,A
   2247          
   2248              // Save the extended PAN ID from the beacon payload only if 1.1 version network
   2249              if ( pBeacon->protocolVersion != ZB_PROT_V1_0 )
   \   000103   8882         MOV     DPL,R0
   \   000105   8983         MOV     DPH,R1
   \   000107   E0           MOVX    A,@DPTR
   \   000108   6401         XRL     A,#0x1
   \   00010A   6011         JZ      ??ZDO_beaconNotifyIndCB_7
   2250              {
   2251                osal_cpyExtAddr( pNwkDesc->extendedPANID, pBeacon->extendedPanID );
   \   00010C                ; Setup parameters for call to function sAddrExtCpy
   \   00010C   E5..         MOV     A,?V0 + 0
   \   00010E   240D         ADD     A,#0xd
   \   000110   FC           MOV     R4,A
   \   000111   E5..         MOV     A,?V0 + 1
   \   000113   3400         ADDC    A,#0x0
   \   000115   12....       LCALL   ?Subroutine34 & 0xFFFF
   2252              }
   \                     ??CrossCallReturnLabel_75:
   \   000118   12....       LCALL   ??sAddrExtCpy?relay
   \   00011B   800C         SJMP    ??ZDO_beaconNotifyIndCB_8
   2253              else
   2254              {
   2255                osal_memset( pNwkDesc->extendedPANID, 0xFF, Z_EXTADDR_LEN );
   \                     ??ZDO_beaconNotifyIndCB_7:
   \   00011D                ; Setup parameters for call to function osal_memset
   \   00011D   7C08         MOV     R4,#0x8
   \   00011F   7D00         MOV     R5,#0x0
   \   000121   79FF         MOV     R1,#-0x1
   \   000123   12....       LCALL   ??Subroutine47_0 & 0xFFFF
   2256              }
   \                     ??CrossCallReturnLabel_73:
   \   000126   12....       LCALL   ??osal_memset?relay
   2257          
   2258              // check if this device is a better choice to join...
   2259              // ...dont bother checking assocPermit flag is doing a rejoin
   2260              if ( ( pBeacon->LQI > gMIN_TREE_LINK_COST ) &&
   2261                  ( ( pBeacon->permitJoining == TRUE ) || ( _tmpRejoinState ) ) )
   \                     ??ZDO_beaconNotifyIndCB_8:
   \   000129   85..82       MOV     DPL,?V0 + 0
   \   00012C   85..83       MOV     DPH,?V0 + 1
   \   00012F   A3           INC     DPTR
   \   000130   A3           INC     DPTR
   \   000131   A3           INC     DPTR
   \   000132   A3           INC     DPTR
   \   000133   A3           INC     DPTR
   \   000134   A3           INC     DPTR
   \   000135   A3           INC     DPTR
   \   000136   A3           INC     DPTR
   \   000137   A3           INC     DPTR
   \   000138   A3           INC     DPTR
   \   000139   E0           MOVX    A,@DPTR
   \   00013A   F8           MOV     R0,A
   \   00013B   90....       MOV     DPTR,#gMIN_TREE_LINK_COST
   \   00013E   E0           MOVX    A,@DPTR
   \   00013F   C3           CLR     C
   \   000140   98           SUBB    A,R0
   \   000141   4003         JC      $+5
   \   000143   02....       LJMP    ??ZDO_beaconNotifyIndCB_1 & 0xFFFF
   \   000146   85..82       MOV     DPL,?V0 + 0
   \   000149   85..83       MOV     DPH,?V0 + 1
   \   00014C   A3           INC     DPTR
   \   00014D   A3           INC     DPTR
   \   00014E   A3           INC     DPTR
   \   00014F   A3           INC     DPTR
   \   000150   A3           INC     DPTR
   \   000151   E0           MOVX    A,@DPTR
   \   000152   6401         XRL     A,#0x1
   \   000154   6009         JZ      ??ZDO_beaconNotifyIndCB_9
   \   000156   90....       MOV     DPTR,#_tmpRejoinState
   \   000159   E0           MOVX    A,@DPTR
   \   00015A   7003         JNZ     $+5
   \   00015C   02....       LJMP    ??ZDO_beaconNotifyIndCB_1 & 0xFFFF
   2262              {
   2263                uint8 selected = FALSE;
   \                     ??ZDO_beaconNotifyIndCB_9:
   \   00015F   7900         MOV     R1,#0x0
   2264                uint8 capacity = FALSE;
   2265          
   2266                if ( _NIB.nwkAddrAlloc == NWK_ADDRESSING_STOCHASTIC )
   \   000161   90....       MOV     DPTR,#_NIB + 96
   \   000164   E0           MOVX    A,@DPTR
   \   000165   6402         XRL     A,#0x2
   \   000167   7030         JNZ     ??ZDO_beaconNotifyIndCB_10
   2267                {
   2268                  if ( ((pBeacon->LQI   > pNwkDesc->chosenRouterLinkQuality) &&
   2269                        (pBeacon->depth < MAX_NODE_DEPTH)) ||
   2270                      ((pBeacon->LQI   == pNwkDesc->chosenRouterLinkQuality) &&
   2271                       (pBeacon->depth < pNwkDesc->chosenRouterDepth)) )
   \   000169   8E82         MOV     DPL,R6
   \   00016B   8F83         MOV     DPH,R7
   \   00016D   A3           INC     DPTR
   \   00016E   A3           INC     DPTR
   \   00016F   A3           INC     DPTR
   \   000170   A3           INC     DPTR
   \   000171   A3           INC     DPTR
   \   000172   A3           INC     DPTR
   \   000173   A3           INC     DPTR
   \   000174   A3           INC     DPTR
   \   000175   A3           INC     DPTR
   \   000176   E0           MOVX    A,@DPTR
   \   000177   C3           CLR     C
   \   000178   98           SUBB    A,R0
   \   000179   500D         JNC     ??ZDO_beaconNotifyIndCB_11
   \   00017B   12....       LCALL   ?Subroutine36 & 0xFFFF
   \                     ??CrossCallReturnLabel_50:
   \   00017E   12....       LCALL   ??Subroutine54_0 & 0xFFFF
   \                     ??CrossCallReturnLabel_94:
   \   000181   C3           CLR     C
   \   000182   9414         SUBB    A,#0x14
   \   000184   402D         JC      ??ZDO_beaconNotifyIndCB_12
   \   000186   802C         SJMP    ??ZDO_beaconNotifyIndCB_13
   \                     ??ZDO_beaconNotifyIndCB_11:
   \   000188   8E82         MOV     DPL,R6
   \   00018A   8F83         MOV     DPH,R7
   \   00018C   A3           INC     DPTR
   \   00018D   A3           INC     DPTR
   \   00018E   A3           INC     DPTR
   \   00018F   A3           INC     DPTR
   \   000190   A3           INC     DPTR
   \   000191   A3           INC     DPTR
   \   000192   A3           INC     DPTR
   \   000193   A3           INC     DPTR
   \   000194   A3           INC     DPTR
   \   000195   E0           MOVX    A,@DPTR
   \   000196   68           XRL     A,R0
   \   000197   701B         JNZ     ??ZDO_beaconNotifyIndCB_13
   \                     ??ZDO_beaconNotifyIndCB_10:
   \   000199   8E82         MOV     DPL,R6
   \   00019B   8F83         MOV     DPH,R7
   \   00019D   A3           INC     DPTR
   \   00019E   A3           INC     DPTR
   \   00019F   A3           INC     DPTR
   \   0001A0   A3           INC     DPTR
   \   0001A1   A3           INC     DPTR
   \   0001A2   A3           INC     DPTR
   \   0001A3   A3           INC     DPTR
   \   0001A4   A3           INC     DPTR
   \   0001A5   A3           INC     DPTR
   \   0001A6   A3           INC     DPTR
   \   0001A7   E0           MOVX    A,@DPTR
   \   0001A8   F8           MOV     R0,A
   \   0001A9   12....       LCALL   ?Subroutine36 & 0xFFFF
   \                     ??CrossCallReturnLabel_51:
   \   0001AC   12....       LCALL   ??Subroutine54_0 & 0xFFFF
   \                     ??CrossCallReturnLabel_95:
   \   0001AF   C3           CLR     C
   \   0001B0   98           SUBB    A,R0
   \   0001B1   5001         JNC     ??ZDO_beaconNotifyIndCB_13
   2272                  {
   2273                    selected = TRUE;
   \                     ??ZDO_beaconNotifyIndCB_12:
   \   0001B3   09           INC     R1
   2274                  }
   2275                }
   2276                else
   2277                {
   2278                  if ( pBeacon->depth < pNwkDesc->chosenRouterDepth )
   2279                  {
   2280                    selected = TRUE;
   2281                  }
   2282                }
   2283          
   2284                if ( ZSTACK_ROUTER_BUILD )
   2285                {
   2286                  capacity = pBeacon->routerCapacity;
   2287                }
   2288                else if ( ZSTACK_END_DEVICE_BUILD )
   2289                {
   2290                  capacity = pBeacon->deviceCapacity;
   2291                }
   2292          
   2293                if ( (capacity) && (selected) )
   \                     ??ZDO_beaconNotifyIndCB_13:
   \   0001B4   85..82       MOV     DPL,?V0 + 0
   \   0001B7   85..83       MOV     DPH,?V0 + 1
   \   0001BA   A3           INC     DPTR
   \   0001BB   A3           INC     DPTR
   \   0001BC   A3           INC     DPTR
   \   0001BD   A3           INC     DPTR
   \   0001BE   A3           INC     DPTR
   \   0001BF   A3           INC     DPTR
   \   0001C0   E0           MOVX    A,@DPTR
   \   0001C1   6035         JZ      ??ZDO_beaconNotifyIndCB_14
   \   0001C3   E9           MOV     A,R1
   \   0001C4   A2E0         MOV     C,0xE0 /* A   */.0
   \   0001C6   5030         JNC     ??ZDO_beaconNotifyIndCB_14
   2294                {
   2295                  // this is the new chosen router for joining...
   2296                  pNwkDesc->chosenRouter            = pBeacon->sourceAddr;
   \   0001C8   85..82       MOV     DPL,?V0 + 0
   \   0001CB   85..83       MOV     DPH,?V0 + 1
   \   0001CE   12....       LCALL   ??Subroutine48_0 & 0xFFFF
   \                     ??CrossCallReturnLabel_77:
   \   0001D1   8E82         MOV     DPL,R6
   \   0001D3   8F83         MOV     DPH,R7
   \   0001D5   A3           INC     DPTR
   \   0001D6   A3           INC     DPTR
   \   0001D7   A3           INC     DPTR
   \   0001D8   A3           INC     DPTR
   \   0001D9   A3           INC     DPTR
   \   0001DA   A3           INC     DPTR
   \   0001DB   A3           INC     DPTR
   \   0001DC   E8           MOV     A,R0
   \   0001DD   F0           MOVX    @DPTR,A
   \   0001DE   A3           INC     DPTR
   \   0001DF   E9           MOV     A,R1
   \   0001E0   12....       LCALL   ?Subroutine12 & 0xFFFF
   2297                  pNwkDesc->chosenRouterLinkQuality = pBeacon->LQI;
   \                     ??CrossCallReturnLabel_7:
   \   0001E3   A3           INC     DPTR
   \   0001E4   A3           INC     DPTR
   \   0001E5   A3           INC     DPTR
   \   0001E6   A3           INC     DPTR
   \   0001E7   A3           INC     DPTR
   \   0001E8   A3           INC     DPTR
   \   0001E9   12....       LCALL   ?Subroutine19 & 0xFFFF
   \                     ??CrossCallReturnLabel_21:
   \   0001EC   F0           MOVX    @DPTR,A
   2298                  pNwkDesc->chosenRouterDepth       = pBeacon->depth;
   \   0001ED   12....       LCALL   ?Subroutine36 & 0xFFFF
   2299                }
   \                     ??CrossCallReturnLabel_52:
   \   0001F0   12....       LCALL   ??Subroutine56_0 & 0xFFFF
   \                     ??CrossCallReturnLabel_104:
   \   0001F3   12....       LCALL   ?Subroutine19 & 0xFFFF
   \                     ??CrossCallReturnLabel_22:
   \   0001F6   A3           INC     DPTR
   \   0001F7   F0           MOVX    @DPTR,A
   2300          
   2301                if ( pBeacon->deviceCapacity )
   \                     ??ZDO_beaconNotifyIndCB_14:
   \   0001F8   85..82       MOV     DPL,?V0 + 0
   \   0001FB   85..83       MOV     DPH,?V0 + 1
   \   0001FE   A3           INC     DPTR
   \   0001FF   A3           INC     DPTR
   \   000200   A3           INC     DPTR
   \   000201   A3           INC     DPTR
   \   000202   A3           INC     DPTR
   \   000203   A3           INC     DPTR
   \   000204   A3           INC     DPTR
   \   000205   E0           MOVX    A,@DPTR
   \   000206   600B         JZ      ??ZDO_beaconNotifyIndCB_15
   2302                  pNwkDesc->deviceCapacity = 1;
   \   000208   8E82         MOV     DPL,R6
   \   00020A   8F83         MOV     DPH,R7
   \   00020C   A3           INC     DPTR
   \   00020D   A3           INC     DPTR
   \   00020E   A3           INC     DPTR
   \   00020F   A3           INC     DPTR
   \   000210   7401         MOV     A,#0x1
   \   000212   F0           MOVX    @DPTR,A
   2303          
   2304                if ( pBeacon->routerCapacity )
   \                     ??ZDO_beaconNotifyIndCB_15:
   \   000213   85..82       MOV     DPL,?V0 + 0
   \   000216   85..83       MOV     DPH,?V0 + 1
   \   000219   A3           INC     DPTR
   \   00021A   A3           INC     DPTR
   \   00021B   A3           INC     DPTR
   \   00021C   A3           INC     DPTR
   \   00021D   A3           INC     DPTR
   \   00021E   A3           INC     DPTR
   \   00021F   E0           MOVX    A,@DPTR
   \   000220   600A         JZ      ??ZDO_beaconNotifyIndCB_1
   2305                  pNwkDesc->routerCapacity = 1;
   \   000222   8E82         MOV     DPL,R6
   \   000224   8F83         MOV     DPH,R7
   \   000226   A3           INC     DPTR
   \   000227   A3           INC     DPTR
   \   000228   A3           INC     DPTR
   \   000229   7401         MOV     A,#0x1
   \   00022B   F0           MOVX    @DPTR,A
   2306              }
   2307            }
   \                     ??ZDO_beaconNotifyIndCB_1:
   \   00022C   02....       LJMP    ?Subroutine4 & 0xFFFF
   2308          }

   \                                 In  segment BANKED_CODE, align 1, keep-with-next
   \                     ?Subroutine36:
   \   000000   E5..         MOV     A,?V0 + 0
   \   000002   240B         ADD     A,#0xb
   \   000004   F582         MOV     DPL,A
   \   000006   E5..         MOV     A,?V0 + 1
   \   000008   22           RET

   \                                 In  segment BANKED_CODE, align 1, keep-with-next
   \                     ?Subroutine26:
   \   000000   12....       LCALL   ?Subroutine39 & 0xFFFF
   \                     ??CrossCallReturnLabel_59:
   \   000003   22           RET

   \                                 In  segment BANKED_CODE, align 1, keep-with-next
   \                     ?Subroutine39:
   \   000000   E0           MOVX    A,@DPTR
   \   000001   8E82         MOV     DPL,R6
   \   000003   8F83         MOV     DPH,R7
   \   000005   A3           INC     DPTR
   \   000006   A3           INC     DPTR
   \   000007   A3           INC     DPTR
   \   000008   A3           INC     DPTR
   \   000009   A3           INC     DPTR
   \   00000A   22           RET

   \                                 In  segment BANKED_CODE, align 1, keep-with-next
   \                     ?Subroutine19:
   \   000000   12....       LCALL   ?Subroutine39 & 0xFFFF
   \                     ??CrossCallReturnLabel_58:
   \   000003   A3           INC     DPTR
   \   000004   A3           INC     DPTR
   \   000005   A3           INC     DPTR
   \   000006   A3           INC     DPTR
   \   000007   22           RET

   \                                 In  segment BANKED_CODE, align 1, keep-with-next
   \                     ?Subroutine12:
   \   000000   12....       LCALL   ?Subroutine38 & 0xFFFF
   \                     ??CrossCallReturnLabel_57:
   \   000003   A3           INC     DPTR
   \   000004   A3           INC     DPTR
   \   000005   22           RET

   \                                 In  segment BANKED_CODE, align 1, keep-with-next
   \                     ?Subroutine38:
   \   000000   F0           MOVX    @DPTR,A
   \   000001   85..82       MOV     DPL,?V0 + 0
   \   000004   85..83       MOV     DPH,?V0 + 1
   \   000007   A3           INC     DPTR
   \   000008   A3           INC     DPTR
   \   000009   22           RET

   \                                 In  segment BANKED_CODE, align 1, keep-with-next
   \                     ??Subroutine54_0:
   \   000000   3400         ADDC    A,#0x0
   \   000002   F583         MOV     DPH,A
   \   000004   E0           MOVX    A,@DPTR
   \   000005   22           RET

   \                                 In  segment BANKED_CODE, align 1, keep-with-next
   \                     ??Subroutine55_0:
   \   000000   F582         MOV     DPL,A
   \   000002   EF           MOV     A,R7
   \   000003                REQUIRE ??Subroutine56_0
   \   000003                ; // Fall through to label ??Subroutine56_0

   \                                 In  segment BANKED_CODE, align 1, keep-with-next
   \                     ??Subroutine56_0:
   \   000000   3400         ADDC    A,#0x0
   \   000002   F583         MOV     DPH,A
   \   000004   22           RET
   2309          
   2310          /*********************************************************************
   2311           * @fn          ZDO_StartRouterConfirmCB
   2312           *
   2313           * @brief       This function reports the results of the request to
   2314           *              start functioning as a router in a network.
   2315           *
   2316           * @param       Status - Result of NLME_StartRouterRequest()
   2317           *
   2318           * @return      none
   2319           */

   \                                 In  segment BANKED_CODE, align 1, keep-with-next
   2320          void ZDO_StartRouterConfirmCB( ZStatus_t Status )
   \                     ZDO_StartRouterConfirmCB:
   2321          {
   \   000000   74F7         MOV     A,#-0x9
   \   000002   12....       LCALL   ?BANKED_ENTER_XDATA
   \   000005                ; Saved register size: 9
   \   000005                ; Auto size: 0
   \   000005   E9           MOV     A,R1
   2322            nwkStatus = (byte)Status;
   \   000006   90....       MOV     DPTR,#nwkStatus
   \   000009   F0           MOVX    @DPTR,A
   2323          
   2324            if ( Status == ZSUCCESS )
   \   00000A   7008         JNZ     ??ZDO_StartRouterConfirmCB_0
   2325            {
   2326              // LED on shows Router started
   2327              HalLedSet ( HAL_LED_3, HAL_LED_MODE_ON );
   \   00000C                ; Setup parameters for call to function HalLedSet
   \   00000C   12....       LCALL   ?Subroutine37 & 0xFFFF
   2328              // LED off forgets HOLD_AUTO_START
   2329              HalLedSet ( HAL_LED_4, HAL_LED_MODE_OFF);
   2330              if ( devState == DEV_HOLD )
   \                     ??CrossCallReturnLabel_54:
   \   00000F   7003         JNZ     ??ZDO_StartRouterConfirmCB_0
   2331              {
   2332                // Began with HOLD_AUTO_START
   2333                devState = DEV_END_DEVICE;
   \   000011   7406         MOV     A,#0x6
   \   000013   F0           MOVX    @DPTR,A
   2334              }
   2335            }
   2336          #if defined(BLINK_LEDS)
   2337            else
   2338            {
   2339              HalLedSet( HAL_LED_3, HAL_LED_MODE_FLASH );  // Flash LED to show failure
   2340            }
   2341          #endif
   2342          
   2343            osal_set_event( ZDAppTaskID, ZDO_ROUTER_START );
   \                     ??ZDO_StartRouterConfirmCB_0:
   \   000014                ; Setup parameters for call to function osal_set_event
   \   000014   7A20         MOV     R2,#0x20
   \   000016   02....       LJMP    ?Subroutine0 & 0xFFFF
   2344          }
   2345          
   2346          /*********************************************************************
   2347           * @fn          ZDO_JoinConfirmCB
   2348           *
   2349           * @brief       This function allows the next hight layer to be notified
   2350           *              of the results of its request to join itself or another
   2351           *              device to a network.
   2352           *
   2353           * @param       Status - Result of NLME_JoinRequest()
   2354           *
   2355           * @return      none
   2356           */

   \                                 In  segment BANKED_CODE, align 1, keep-with-next
   2357          void ZDO_JoinConfirmCB( uint16 PanId, ZStatus_t Status )
   \                     ZDO_JoinConfirmCB:
   2358          {
   \   000000   74F7         MOV     A,#-0x9
   \   000002   12....       LCALL   ?BANKED_ENTER_XDATA
   \   000005                ; Saved register size: 9
   \   000005                ; Auto size: 5
   \   000005   74FB         MOV     A,#-0x5
   \   000007   12....       LCALL   ?ALLOC_XSTACK8
   \   00000A   E9           MOV     A,R1
   \   00000B   FE           MOV     R6,A
   2359            (void)PanId;  // remove if this parameter is used.
   2360          
   2361            nwkStatus = (byte)Status;
   \   00000C   90....       MOV     DPTR,#nwkStatus
   \   00000F   F0           MOVX    @DPTR,A
   2362          
   2363            if ( Status == ZSUCCESS )
   \   000010   700B         JNZ     ??ZDO_JoinConfirmCB_0
   2364            {
   2365              // LED on shows device joined
   2366              HalLedSet ( HAL_LED_3, HAL_LED_MODE_ON );
   \   000012                ; Setup parameters for call to function HalLedSet
   \   000012   12....       LCALL   ?Subroutine37 & 0xFFFF
   2367              // LED off forgets HOLD_AUTO_START
   2368              HalLedSet ( HAL_LED_4, HAL_LED_MODE_OFF);
   2369              if ( (devState == DEV_HOLD) )
   \                     ??CrossCallReturnLabel_55:
   \   000015   7003         JNZ     ??ZDO_JoinConfirmCB_1
   2370              {
   2371                // Began with HOLD_AUTO_START
   2372                devState = DEV_NWK_JOINING;
   \   000017   7403         MOV     A,#0x3
   \   000019   F0           MOVX    @DPTR,A
   2373              }
   2374          
   2375              if ( !ZG_SECURE_ENABLED )
   2376              {
   2377                // Notify to save info into NV
   2378                ZDApp_NVUpdate();
   \                     ??ZDO_JoinConfirmCB_1:
   \   00001A                ; Setup parameters for call to function ZDApp_NVUpdate
   \   00001A   12....       LCALL   ??ZDApp_NVUpdate?relay
   2379              }
   2380            }
   2381            else
   2382            {
   2383          #if defined(BLINK_LEDS)
   2384              HalLedSet ( HAL_LED_3, HAL_LED_MODE_FLASH );  // Flash LED to show failure
   2385          #endif
   2386            }
   2387          
   2388            // Pass the join confirm to higher layer if callback registered
   2389            if (zdoCBFunc[ZDO_JOIN_CNF_CBID] != NULL )
   \                     ??ZDO_JoinConfirmCB_0:
   \   00001D   90....       MOV     DPTR,#zdoCBFunc + 8
   \   000020   12....       LCALL   ?Subroutine14 & 0xFFFF
   \                     ??CrossCallReturnLabel_14:
   \   000023   6033         JZ      ??ZDO_JoinConfirmCB_2
   2390            {
   2391              zdoJoinCnf_t joinCnf;
   2392          
   2393              joinCnf.status = Status;
   \   000025   EE           MOV     A,R6
   \   000026   85..82       MOV     DPL,?XSP + 0
   \   000029   85..83       MOV     DPH,?XSP + 1
   \   00002C   F0           MOVX    @DPTR,A
   2394              joinCnf.deviceAddr = _NIB.nwkDevAddress;
   \   00002D   90....       MOV     DPTR,#_NIB + 20
   \   000030   12....       LCALL   ??Subroutine48_0 & 0xFFFF
   \                     ??CrossCallReturnLabel_78:
   \   000033   7401         MOV     A,#0x1
   \   000035   12....       LCALL   ?XSTACK_DISP0_8
   \   000038   E8           MOV     A,R0
   \   000039   F0           MOVX    @DPTR,A
   \   00003A   A3           INC     DPTR
   \   00003B   E9           MOV     A,R1
   \   00003C   F0           MOVX    @DPTR,A
   2395              joinCnf.parentAddr = _NIB.nwkCoordAddress;
   \   00003D   90....       MOV     DPTR,#_NIB + 23
   \   000040   12....       LCALL   ??Subroutine48_0 & 0xFFFF
   2396          
   2397              zdoCBFunc[ZDO_JOIN_CNF_CBID]( (void*)&joinCnf );
   2398            }
   \                     ??CrossCallReturnLabel_79:
   \   000043   7403         MOV     A,#0x3
   \   000045   12....       LCALL   ?XSTACK_DISP0_8
   \   000048   E8           MOV     A,R0
   \   000049   F0           MOVX    @DPTR,A
   \   00004A   A3           INC     DPTR
   \   00004B   E9           MOV     A,R1
   \   00004C   12....       LCALL   ?Subroutine11 & 0xFFFF
   \                     ??CrossCallReturnLabel_5:
   \   00004F   90....       MOV     DPTR,#zdoCBFunc + 8
   \   000052   12....       LCALL   ??Subroutine58_0 & 0xFFFF
   \                     ??CrossCallReturnLabel_117:
   \   000055   12....       LCALL   ?CALL_IND
   2399          
   2400            // Notify ZDApp
   2401            ZDApp_SendMsg( ZDAppTaskID, ZDO_NWK_JOIN_IND, sizeof(osal_event_hdr_t), (byte*)NULL );
   \                     ??ZDO_JoinConfirmCB_2:
   \   000058                ; Setup parameters for call to function ZDApp_SendMsg
   \   000058   7C00         MOV     R4,#0x0
   \   00005A   7D00         MOV     R5,#0x0
   \   00005C   7B02         MOV     R3,#0x2
   \   00005E   7A02         MOV     R2,#0x2
   \   000060   12....       LCALL   ?Subroutine24 & 0xFFFF
   2402          
   2403          }
   \                     ??CrossCallReturnLabel_30:
   \   000063                REQUIRE ?Subroutine5
   \   000063                ; // Fall through to label ?Subroutine5

   \                                 In  segment BANKED_CODE, align 1, keep-with-next
   \                     ?Subroutine5:
   \   000000   7405         MOV     A,#0x5
   \   000002   12....       LCALL   ?DEALLOC_XSTACK8
   \   000005   02....       LJMP    ??Subroutine51_0 & 0xFFFF
   2404          
   2405          /*********************************************************************
   2406           * @fn          ZDO_AddrChangeIndicationCB
   2407           *
   2408           * @brief       This function notifies the application that this
   2409           *              device's address has changed.  Could happen in
   2410           *              a network with stochastic addressing (PRO).
   2411           *
   2412           * @param       newAddr - the new address
   2413           *
   2414           * @return      none
   2415           */

   \                                 In  segment BANKED_CODE, align 1, keep-with-next
   2416          void ZDO_AddrChangeIndicationCB( uint16 newAddr )
   \                     ZDO_AddrChangeIndicationCB:
   2417          {
   \   000000   74F4         MOV     A,#-0xc
   \   000002   12....       LCALL   ?BANKED_ENTER_XDATA
   \   000005                ; Saved register size: 12
   \   000005                ; Auto size: 0
   \   000005   8A..         MOV     ?V0 + 0,R2
   \   000007   8B..         MOV     ?V0 + 1,R3
   2418            ZDO_AddrChangeInd_t *pZDOAddrChangeMsg;
   2419            epList_t *pItem = epList;
   \   000009   90....       MOV     DPTR,#epList
   \   00000C   12....       LCALL   ??Subroutine52_0 & 0xFFFF
   2420          
   2421            // Notify to save info into NV
   2422            ZDApp_NVUpdate();
   \                     ??CrossCallReturnLabel_89:
   \   00000F                ; Setup parameters for call to function ZDApp_NVUpdate
   \   00000F   12....       LCALL   ??ZDApp_NVUpdate?relay
   2423          
   2424            // Notify the applications
   2425            osal_set_event( ZDAppTaskID, ZDO_STATE_CHANGE_EVT );
   \   000012                ; Setup parameters for call to function osal_set_event
   \   000012   12....       LCALL   ?Subroutine17 & 0xFFFF
   \                     ??CrossCallReturnLabel_125:
   \   000015   8033         SJMP    ??ZDO_AddrChangeIndicationCB_0
   2426          
   2427            while (pItem != NULL)
   2428            {
   2429              if (pItem->epDesc->endPoint != ZDO_EP)
   \                     ??ZDO_AddrChangeIndicationCB_1:
   \   000017   12....       LCALL   ?Subroutine15 & 0xFFFF
   \                     ??CrossCallReturnLabel_119:
   \   00001A   E0           MOVX    A,@DPTR
   \   00001B   6026         JZ      ??ZDO_AddrChangeIndicationCB_2
   2430              {
   2431                pZDOAddrChangeMsg = (ZDO_AddrChangeInd_t *)osal_msg_allocate( sizeof( ZDO_AddrChangeInd_t ) );
   \   00001D                ; Setup parameters for call to function osal_msg_allocate
   \   00001D   7A04         MOV     R2,#0x4
   \   00001F   7B00         MOV     R3,#0x0
   \   000021   12....       LCALL   ??osal_msg_allocate?relay
   2432                if (pZDOAddrChangeMsg != NULL)
   \   000024   EA           MOV     A,R2
   \   000025   4B           ORL     A,R3
   \   000026   601B         JZ      ??ZDO_AddrChangeIndicationCB_2
   2433                {
   2434                  pZDOAddrChangeMsg->hdr.event = ZDO_ADDR_CHANGE_IND;
   \   000028   8A82         MOV     DPL,R2
   \   00002A   8B83         MOV     DPH,R3
   \   00002C   74D6         MOV     A,#-0x2a
   \   00002E   F0           MOVX    @DPTR,A
   2435                  pZDOAddrChangeMsg->shortAddr = newAddr;
   \   00002F   A3           INC     DPTR
   \   000030   A3           INC     DPTR
   \   000031   E5..         MOV     A,?V0 + 0
   \   000033   F0           MOVX    @DPTR,A
   \   000034   A3           INC     DPTR
   \   000035   E5..         MOV     A,?V0 + 1
   \   000037   F0           MOVX    @DPTR,A
   2436                  osal_msg_send( *(pItem->epDesc->task_id), (uint8 *)pZDOAddrChangeMsg );
   \   000038                ; Setup parameters for call to function osal_msg_send
   \   000038   12....       LCALL   ?Subroutine15 & 0xFFFF
   2437                }
   2438              }
   \                     ??CrossCallReturnLabel_120:
   \   00003B   12....       LCALL   ??Subroutine57_0 & 0xFFFF
   \                     ??CrossCallReturnLabel_118:
   \   00003E   E0           MOVX    A,@DPTR
   \   00003F   F9           MOV     R1,A
   \   000040   12....       LCALL   ??osal_msg_send?relay
   2439              pItem = pItem->nextDesc;
   \                     ??ZDO_AddrChangeIndicationCB_2:
   \   000043   12....       LCALL   ?Subroutine18 & 0xFFFF
   2440            }
   \                     ??CrossCallReturnLabel_83:
   \   000046   E8           MOV     A,R0
   \   000047   FE           MOV     R6,A
   \   000048   E9           MOV     A,R1
   \   000049   FF           MOV     R7,A
   \                     ??ZDO_AddrChangeIndicationCB_0:
   \   00004A   EE           MOV     A,R6
   \   00004B   4F           ORL     A,R7
   \   00004C   70C9         JNZ     ??ZDO_AddrChangeIndicationCB_1
   2441          
   2442            // Send out a device announce
   2443            ZDApp_AnnounceNewAddress();
   \   00004E                ; Setup parameters for call to function ZDApp_AnnounceNewAddress
   \   00004E   12....       LCALL   ??ZDApp_AnnounceNewAddress?relay
   2444          }
   \   000051   02....       LJMP    ??Subroutine45_0 & 0xFFFF

   \                                 In  segment BANKED_CODE, align 1, keep-with-next
   \                     ?Subroutine15:
   \   000000   8E82         MOV     DPL,R6
   \   000002   8F83         MOV     DPH,R7
   \   000004   A3           INC     DPTR
   \   000005                REQUIRE ??Subroutine57_0
   \   000005                ; // Fall through to label ??Subroutine57_0

   \                                 In  segment BANKED_CODE, align 1, keep-with-next
   \                     ??Subroutine57_0:
   \   000000   A3           INC     DPTR
   \   000001                REQUIRE ??Subroutine58_0
   \   000001                ; // Fall through to label ??Subroutine58_0
   2445          
   2446          /*********************************************************************
   2447           * @fn          ZDO_JoinIndicationCB
   2448           *
   2449           * @brief       This function allows the next higher layer of a
   2450           *              coordinator to be notified of a remote join request.
   2451           *
   2452           * @param       ShortAddress - 16-bit address
   2453           * @param       ExtendedAddress - IEEE (64-bit) address
   2454           * @param       CapabilityFlags - Association Capability Flags
   2455           * @param       type - of joining -
   2456           *                          NWK_ASSOC_JOIN
   2457           *                          NWK_ASSOC_REJOIN_UNSECURE
   2458           *                          NWK_ASSOC_REJOIN_SECURE
   2459           *
   2460           * @return      ZStatus_t
   2461           */

   \                                 In  segment BANKED_CODE, align 1, keep-with-next
   2462          ZStatus_t ZDO_JoinIndicationCB(uint16 ShortAddress, uint8 *ExtendedAddress,
   \                     ZDO_JoinIndicationCB:
   2463                                          uint8 CapabilityFlags, uint8 type)
   2464          {
   \   000000   C082         PUSH    DPL
   \   000002   C083         PUSH    DPH
   \   000004                ; Saved register size: 2
   \   000004                ; Auto size: 0
   2465            
   2466            
   2467            (void)ShortAddress;
   2468            (void)ExtendedAddress;
   2469          #if ZDO_NV_SAVE_RFDs
   2470            (void)CapabilityFlags;
   2471          
   2472          #else  // if !ZDO_NV_SAVE_RFDs
   2473            if (CapabilityFlags & CAPINFO_DEVICETYPE_FFD)
   2474          #endif
   2475            {
   2476              ZDApp_NVUpdate();  // Notify to save info into NV.
   \   000004                ; Setup parameters for call to function ZDApp_NVUpdate
   \   000004   12....       LCALL   ??ZDApp_NVUpdate?relay
   2477            }
   2478          
   2479            if (ZG_SECURE_ENABLED)  // Send notification to TC of new device.
   2480            {
   2481              if (type == NWK_ASSOC_JOIN || type == NWK_ASSOC_REJOIN_UNSECURE)
   2482              {
   2483                osal_start_timerEx( ZDAppTaskID, ZDO_NEW_DEVICE, 600 );
   2484              }
   2485            }
   2486          
   2487            return ZSuccess;
   \   000007   7900         MOV     R1,#0x0
   \   000009   02....       LJMP    ??Subroutine50_0 & 0xFFFF
   2488          }
   2489          
   2490          /*********************************************************************
   2491           * @fn          ZDO_ConcentratorIndicationCB
   2492           *
   2493           * @brief       This function allows the next higher layer of a
   2494           *              device to be notified of existence of the concentrator.
   2495           *
   2496           * @param       nwkAddr - 16-bit NWK address of the concentrator
   2497           * @param       extAddr - pointer to extended Address
   2498           *                        NULL if not available
   2499           * @param       pktCost - PktCost from RREQ
   2500           *
   2501           * @return      void
   2502           */

   \                                 In  segment BANKED_CODE, align 1, keep-with-next
   2503          void ZDO_ConcentratorIndicationCB( uint16 nwkAddr, uint8 *extAddr, uint8 pktCost )
   \                     ZDO_ConcentratorIndicationCB:
   2504          {
   \   000000   74F7         MOV     A,#-0x9
   \   000002   12....       LCALL   ?BANKED_ENTER_XDATA
   \   000005                ; Saved register size: 9
   \   000005                ; Auto size: 5
   \   000005   74FB         MOV     A,#-0x5
   \   000007   12....       LCALL   ?ALLOC_XSTACK8
   2505            zdoConcentratorInd_t conInd;
   2506          
   2507            conInd.nwkAddr = nwkAddr;
   \   00000A   12....       LCALL   ?Subroutine13 & 0xFFFF
   2508            conInd.extAddr = extAddr;
   \                     ??CrossCallReturnLabel_136:
   \   00000D   7402         MOV     A,#0x2
   \   00000F   12....       LCALL   ?XSTACK_DISP0_8
   \   000012   EC           MOV     A,R4
   \   000013   F0           MOVX    @DPTR,A
   \   000014   A3           INC     DPTR
   \   000015   ED           MOV     A,R5
   \   000016   F0           MOVX    @DPTR,A
   2509            conInd.pktCost = pktCost;
   \   000017   7404         MOV     A,#0x4
   \   000019   12....       LCALL   ?XSTACK_DISP0_8
   \   00001C   E9           MOV     A,R1
   \   00001D   F0           MOVX    @DPTR,A
   2510          
   2511            if( zdoCBFunc[ZDO_CONCENTRATOR_IND_CBID] != NULL )
   \   00001E   90....       MOV     DPTR,#zdoCBFunc + 2
   \   000021   12....       LCALL   ?Subroutine14 & 0xFFFF
   \                     ??CrossCallReturnLabel_15:
   \   000024   6013         JZ      ??ZDO_ConcentratorIndicationCB_0
   2512            {
   2513              zdoCBFunc[ZDO_CONCENTRATOR_IND_CBID]( (void*)&conInd );
   \   000026                ; Setup parameters for indirect call
   \   000026   85..82       MOV     DPL,?XSP + 0
   \   000029   85..83       MOV     DPH,?XSP + 1
   \   00002C   AA82         MOV     R2,DPL
   \   00002E   AB83         MOV     R3,DPH
   \   000030   90....       MOV     DPTR,#zdoCBFunc + 3
   \   000033   12....       LCALL   ??Subroutine59_0 & 0xFFFF
   2514            }
   \                     ??CrossCallReturnLabel_112:
   \   000036   12....       LCALL   ?CALL_IND
   2515          }
   \                     ??ZDO_ConcentratorIndicationCB_0:
   \   000039   02....       LJMP    ?Subroutine5 & 0xFFFF
   2516          
   2517          /*********************************************************************
   2518           * @fn          ZDO_LeaveCnf
   2519           *
   2520           * @brief       This function allows the next higher layer to be
   2521           *              notified of the results of its request for this or
   2522           *              a child device to leave the network.
   2523           *
   2524           * @param       cnf - NLME_LeaveCnf_t
   2525           *
   2526           * @return      none
   2527           */

   \                                 In  segment BANKED_CODE, align 1, keep-with-next
   2528          void ZDO_LeaveCnf( NLME_LeaveCnf_t* cnf )
   \                     ZDO_LeaveCnf:
   2529          {
   \   000000   74F6         MOV     A,#-0xa
   \   000002   12....       LCALL   ?BANKED_ENTER_XDATA
   \   000005                ; Saved register size: 10
   \   000005                ; Auto size: 0
   \   000005   EA           MOV     A,R2
   \   000006   FE           MOV     R6,A
   \   000007   EB           MOV     A,R3
   \   000008   FF           MOV     R7,A
   2530            // Check for this device
   2531            if ( osal_ExtAddrEqual( cnf->extAddr,
   2532                                    NLME_GetExtAddr() ) == TRUE )
   \   000009                ; Setup parameters for call to function sAddrExtCmp
   \   000009                ; Setup parameters for call to function NLME_GetExtAddr
   \   000009   12....       LCALL   ??NLME_GetExtAddr?relay
   \   00000C   EA           MOV     A,R2
   \   00000D   FC           MOV     R4,A
   \   00000E   EB           MOV     A,R3
   \   00000F   FD           MOV     R5,A
   \   000010   EE           MOV     A,R6
   \   000011   2402         ADD     A,#0x2
   \   000013   FA           MOV     R2,A
   \   000014   EF           MOV     A,R7
   \   000015   3400         ADDC    A,#0x0
   \   000017   FB           MOV     R3,A
   \   000018   12....       LCALL   ??sAddrExtCmp?relay
   \   00001B   E9           MOV     A,R1
   \   00001C   6401         XRL     A,#0x1
   \   00001E   7022         JNZ     ??ZDO_LeaveCnf_0
   2533            {
   2534              // Pass the leave confirm to higher layer if callback registered
   2535              if ( ( zdoCBFunc[ZDO_LEAVE_CNF_CBID] == NULL ) ||
   2536                   ( (*zdoCBFunc[ZDO_LEAVE_CNF_CBID])( cnf ) == NULL ) )
   \   000020   90....       MOV     DPTR,#zdoCBFunc + 10
   \   000023   12....       LCALL   ?Subroutine14 & 0xFFFF
   \                     ??CrossCallReturnLabel_16:
   \   000026   6011         JZ      ??ZDO_LeaveCnf_1
   \   000028                ; Setup parameters for indirect call
   \   000028   EE           MOV     A,R6
   \   000029   FA           MOV     R2,A
   \   00002A   EF           MOV     A,R7
   \   00002B   FB           MOV     R3,A
   \   00002C   12....       LCALL   ??Subroutine59_0 & 0xFFFF
   \                     ??CrossCallReturnLabel_113:
   \   00002F   12....       LCALL   ?CALL_IND
   \   000032   8B..         MOV     ?V0 + 1,R3
   \   000034   EA           MOV     A,R2
   \   000035   45..         ORL     A,?V0 + 1
   \   000037   701A         JNZ     ??CrossCallReturnLabel_19
   2537              {
   2538                // Prepare to leave with reset
   2539                ZDApp_LeaveReset( cnf->rejoin );
   \                     ??ZDO_LeaveCnf_1:
   \   000039                ; Setup parameters for call to function ZDApp_LeaveReset
   \   000039   12....       LCALL   ?Subroutine30 & 0xFFFF
   2540              }
   2541            }
   \                     ??CrossCallReturnLabel_99:
   \   00003C   F9           MOV     R1,A
   \   00003D   12....       LCALL   ??ZDApp_LeaveReset?relay
   \   000040   8011         SJMP    ??CrossCallReturnLabel_19
   2542            else if ( ZSTACK_ROUTER_BUILD )
   2543            {
   2544              // Remove device address(optionally descendents) from data
   2545              ZDApp_LeaveUpdate( cnf->dstAddr,
   2546                                 cnf->extAddr,
   2547                                 cnf->removeChildren );
   \                     ??ZDO_LeaveCnf_0:
   \   000042                ; Setup parameters for call to function ZDApp_LeaveUpdate
   \   000042   8E82         MOV     DPL,R6
   \   000044   8F83         MOV     DPH,R7
   \   000046   A3           INC     DPTR
   \   000047   A3           INC     DPTR
   \   000048   A3           INC     DPTR
   \   000049   A3           INC     DPTR
   \   00004A   A3           INC     DPTR
   \   00004B   A3           INC     DPTR
   \   00004C   A3           INC     DPTR
   \   00004D   A3           INC     DPTR
   \   00004E   A3           INC     DPTR
   \   00004F   A3           INC     DPTR
   \   000050   12....       LCALL   ?Subroutine16 & 0xFFFF
   2548            }
   2549          }
   \                     ??CrossCallReturnLabel_19:
   \   000053   02....       LJMP    ??Subroutine61_0 & 0xFFFF

   \                                 In  segment BANKED_CODE, align 1, keep-with-next
   \                     ?Subroutine30:
   \   000000   EE           MOV     A,R6
   \   000001   240B         ADD     A,#0xb
   \   000003                REQUIRE ??Subroutine53_0
   \   000003                ; // Fall through to label ??Subroutine53_0

   \                                 In  segment BANKED_CODE, align 1, keep-with-next
   \                     ??Subroutine53_0:
   \   000000   F582         MOV     DPL,A
   \   000002   EF           MOV     A,R7
   \   000003                REQUIRE ??Subroutine54_0
   \   000003                ; // Fall through to label ??Subroutine54_0

   \                                 In  segment BANKED_CODE, align 1, keep-with-next
   \                     ?Subroutine16:
   \   000000   E0           MOVX    A,@DPTR
   \   000001   F9           MOV     R1,A
   \   000002   EE           MOV     A,R6
   \   000003   2402         ADD     A,#0x2
   \   000005   FC           MOV     R4,A
   \   000006   EF           MOV     A,R7
   \   000007   3400         ADDC    A,#0x0
   \   000009   FD           MOV     R5,A
   \   00000A   8E82         MOV     DPL,R6
   \   00000C   8F83         MOV     DPH,R7
   \   00000E   12....       LCALL   ?Subroutine40 & 0xFFFF
   \                     ??CrossCallReturnLabel_63:
   \   000011   12....       LCALL   ??ZDApp_LeaveUpdate?relay
   \   000014   22           RET
   2550          
   2551          /*********************************************************************
   2552           * @fn          ZDO_LeaveInd
   2553           *
   2554           * @brief       This function allows the next higher layer of a
   2555           *              device to be notified of a remote leave request or
   2556           *              indication.
   2557           *
   2558           * @param       ind - NLME_LeaveInd_t
   2559           *
   2560           * @return      none
   2561           */

   \                                 In  segment BANKED_CODE, align 1, keep-with-next
   2562          void ZDO_LeaveInd( NLME_LeaveInd_t* ind )
   \                     ZDO_LeaveInd:
   2563          {
   \   000000   74F6         MOV     A,#-0xa
   \   000002   12....       LCALL   ?BANKED_ENTER_XDATA
   \   000005                ; Saved register size: 10
   \   000005                ; Auto size: 2
   \   000005   74FE         MOV     A,#-0x2
   \   000007   12....       LCALL   ?ALLOC_XSTACK8
   \   00000A   EA           MOV     A,R2
   \   00000B   FE           MOV     R6,A
   \   00000C   EB           MOV     A,R3
   \   00000D   FF           MOV     R7,A
   2564            uint8 leave;
   2565          
   2566          
   2567            // Parent is requesting the leave - NWK layer filters out illegal
   2568            // requests
   2569            if ( ind->request == TRUE )
   \   00000E   8E82         MOV     DPL,R6
   \   000010   8F83         MOV     DPH,R7
   \   000012   A3           INC     DPTR
   \   000013   A3           INC     DPTR
   \   000014   A3           INC     DPTR
   \   000015   A3           INC     DPTR
   \   000016   A3           INC     DPTR
   \   000017   A3           INC     DPTR
   \   000018   A3           INC     DPTR
   \   000019   A3           INC     DPTR
   \   00001A   A3           INC     DPTR
   \   00001B   A3           INC     DPTR
   \   00001C   E0           MOVX    A,@DPTR
   \   00001D   6401         XRL     A,#0x1
   \   00001F   7039         JNZ     ??ZDO_LeaveInd_0
   2570            {
   2571              // Notify network of leave
   2572              if ( ZSTACK_ROUTER_BUILD )
   2573              {
   2574                NLME_LeaveRsp_t rsp;
   2575                rsp.rejoin         = ind->rejoin;
   \   000021   EE           MOV     A,R6
   \   000022   240C         ADD     A,#0xc
   \   000024   F8           MOV     R0,A
   \   000025   EF           MOV     A,R7
   \   000026   3400         ADDC    A,#0x0
   \   000028   F9           MOV     R1,A
   \   000029   88..         MOV     ?V0 + 0,R0
   \   00002B   89..         MOV     ?V0 + 1,R1
   \   00002D   8882         MOV     DPL,R0
   \   00002F   F583         MOV     DPH,A
   \   000031   E0           MOVX    A,@DPTR
   \   000032   C0E0         PUSH    A
   \   000034   7401         MOV     A,#0x1
   \   000036   12....       LCALL   ?XSTACK_DISP0_8
   \   000039   D0E0         POP     A
   \   00003B   F0           MOVX    @DPTR,A
   2576                rsp.removeChildren = ind->removeChildren;
   \   00003C   12....       LCALL   ?Subroutine30 & 0xFFFF
   \                     ??CrossCallReturnLabel_100:
   \   00003F   85..82       MOV     DPL,?XSP + 0
   \   000042   85..83       MOV     DPH,?XSP + 1
   \   000045   F0           MOVX    @DPTR,A
   2577                NLME_LeaveRsp( &rsp );
   \   000046                ; Setup parameters for call to function NLME_LeaveRsp
   \   000046   AA82         MOV     R2,DPL
   \   000048   AB83         MOV     R3,DPH
   \   00004A   12....       LCALL   ??NLME_LeaveRsp?relay
   2578              }
   2579          
   2580              // Prepare to leave with reset
   2581              ZDApp_LeaveReset( ind->rejoin );
   \   00004D                ; Setup parameters for call to function ZDApp_LeaveReset
   \   00004D   85..82       MOV     DPL,?V0 + 0
   \   000050   85..83       MOV     DPH,?V0 + 1
   \                     ??ZDO_LeaveInd_1:
   \   000053   E0           MOVX    A,@DPTR
   \   000054   F9           MOV     R1,A
   \   000055   12....       LCALL   ??ZDApp_LeaveReset?relay
   \   000058   8032         SJMP    ??CrossCallReturnLabel_20
   2582            }
   2583            else
   2584            {
   2585              leave = FALSE;
   2586          
   2587              // Check if this device needs to leave as a child or descendent
   2588              if ( ind->srcAddr == NLME_GetCoordShortAddr() )
   \                     ??ZDO_LeaveInd_0:
   \   00005A                ; Setup parameters for call to function NLME_GetCoordShortAddr
   \   00005A   12....       LCALL   ??NLME_GetCoordShortAddr?relay
   \   00005D   8A..         MOV     ?V0 + 0,R2
   \   00005F   8B..         MOV     ?V0 + 1,R3
   \   000061   A8..         MOV     R0,?V0 + 0
   \   000063   A9..         MOV     R1,?V0 + 1
   \   000065   8E82         MOV     DPL,R6
   \   000067   8F83         MOV     DPH,R7
   \   000069   E0           MOVX    A,@DPTR
   \   00006A   68           XRL     A,R0
   \   00006B   7003         JNZ     ??ZDO_LeaveInd_2
   \   00006D   A3           INC     DPTR
   \   00006E   E0           MOVX    A,@DPTR
   \   00006F   69           XRL     A,R1
   \                     ??ZDO_LeaveInd_2:
   \   000070   7011         JNZ     ??ZDO_LeaveInd_3
   2589              {
   2590                if ( ( ind->removeChildren == TRUE               ) ||
   2591                     ( ZDO_Config_Node_Descriptor.LogicalType ==
   2592                       NODETYPE_DEVICE                           )    )
   \   000072   12....       LCALL   ?Subroutine30 & 0xFFFF
   \                     ??CrossCallReturnLabel_101:
   \   000075   6401         XRL     A,#0x1
   \   000077   6005         JZ      ??ZDO_LeaveInd_4
   \   000079   12....       LCALL   ?Subroutine20 & 0xFFFF
   \                     ??CrossCallReturnLabel_27:
   \   00007C   7005         JNZ     ??ZDO_LeaveInd_3
   2593                {
   2594                  leave = TRUE;
   2595                }
   2596              }
   2597              else if ( ind->removeChildren == TRUE )
   2598              {
   2599                // Check NWK address allocation algorithm
   2600                //leave = RTG_ANCESTOR(nwkAddr,thisAddr);
   2601              }
   2602          
   2603              if ( leave == TRUE )
   2604              {
   2605                // Prepare to leave with reset
   2606                ZDApp_LeaveReset( ind->rejoin );
   \                     ??ZDO_LeaveInd_4:
   \   00007E                ; Setup parameters for call to function ZDApp_LeaveReset
   \   00007E   12....       LCALL   ?Subroutine31 & 0xFFFF
   2607              }
   \                     ??CrossCallReturnLabel_107:
   \   000081   80D0         SJMP    ??ZDO_LeaveInd_1
   2608              else
   2609              {
   2610                // Remove device address(optionally descendents) from data
   2611                ZDApp_LeaveUpdate( ind->srcAddr,
   2612                                   ind->extAddr,
   2613                                   ind->removeChildren );
   \                     ??ZDO_LeaveInd_3:
   \   000083                ; Setup parameters for call to function ZDApp_LeaveUpdate
   \   000083   EE           MOV     A,R6
   \   000084   240B         ADD     A,#0xb
   \   000086   12....       LCALL   ??Subroutine55_0 & 0xFFFF
   2614              }
   2615            }
   \                     ??CrossCallReturnLabel_106:
   \   000089   12....       LCALL   ?Subroutine16 & 0xFFFF
   2616          
   2617            // Pass the leave indication to higher layer if callback registered.
   2618            if (zdoCBFunc[ZDO_LEAVE_IND_CBID] != NULL)
   \                     ??CrossCallReturnLabel_20:
   \   00008C   90....       MOV     DPTR,#zdoCBFunc + 12
   \   00008F   12....       LCALL   ?Subroutine14 & 0xFFFF
   \                     ??CrossCallReturnLabel_17:
   \   000092   600A         JZ      ??ZDO_LeaveInd_5
   2619            {
   2620              (void)zdoCBFunc[ZDO_LEAVE_IND_CBID](ind);
   \   000094                ; Setup parameters for indirect call
   \   000094   EE           MOV     A,R6
   \   000095   FA           MOV     R2,A
   \   000096   EF           MOV     A,R7
   \   000097   FB           MOV     R3,A
   \   000098   12....       LCALL   ??Subroutine59_0 & 0xFFFF
   2621            }
   \                     ??CrossCallReturnLabel_114:
   \   00009B   12....       LCALL   ?CALL_IND
   2622          }
   \                     ??ZDO_LeaveInd_5:
   \   00009E   02....       LJMP    ?Subroutine7 & 0xFFFF

   \                                 In  segment BANKED_CODE, align 1, keep-with-next
   \                     ?Subroutine31:
   \   000000   EE           MOV     A,R6
   \   000001   240C         ADD     A,#0xc
   \   000003                REQUIRE ??Subroutine55_0
   \   000003                ; // Fall through to label ??Subroutine55_0
   2623          
   2624          /*********************************************************************
   2625           * @fn          ZDO_SyncIndicationCB
   2626           *
   2627           * @brief       This function allows the next higher layer of a
   2628           *              coordinator to be notified of a loss of synchronization
   2629           *                          with the parent/child device.
   2630           *
   2631           * @param       type: 0 - child; 1 - parent
   2632           *
   2633           *
   2634           * @return      none
   2635           */

   \                                 In  segment BANKED_CODE, align 1, keep-with-next
   2636          void ZDO_SyncIndicationCB( uint8 type, uint16 shortAddr )
   \                     ZDO_SyncIndicationCB:
   2637          {
   \   000000   74F7         MOV     A,#-0x9
   \   000002   12....       LCALL   ?BANKED_ENTER_XDATA
   \   000005                ; Saved register size: 9
   \   000005                ; Auto size: 0
   \   000005   E9           MOV     A,R1
   \   000006   FE           MOV     R6,A
   2638            (void)shortAddr;  // Remove this line if this parameter is used.
   2639          
   2640            if ( ZSTACK_END_DEVICE_BUILD
   2641              || (ZSTACK_ROUTER_BUILD && ((_NIB.CapabilityFlags & ZMAC_ASSOC_CAPINFO_FFD_TYPE) == 0)))
   \   000007   90....       MOV     DPTR,#_NIB + 14
   \   00000A   E0           MOVX    A,@DPTR
   \   00000B   A2E1         MOV     C,0xE0 /* A   */.1
   \   00000D   4013         JC      ??CrossCallReturnLabel_31
   2642            {
   2643              if ( type == 1 )
   \   00000F   7401         MOV     A,#0x1
   \   000011   6E           XRL     A,R6
   \   000012   700E         JNZ     ??CrossCallReturnLabel_31
   2644              {
   2645                // We lost contact with our parent.  Clear the neighbor Table.
   2646                nwkNeighborInitTable();
   \   000014                ; Setup parameters for call to function nwkNeighborInitTable
   \   000014   12....       LCALL   ??nwkNeighborInitTable?relay
   2647          
   2648                // Start the rejoin process.
   2649                ZDApp_SendMsg( ZDAppTaskID, ZDO_NWK_JOIN_REQ, sizeof(osal_event_hdr_t), NULL );
   \   000017                ; Setup parameters for call to function ZDApp_SendMsg
   \   000017   7C00         MOV     R4,#0x0
   \   000019   7D00         MOV     R5,#0x0
   \   00001B   7B02         MOV     R3,#0x2
   \   00001D   7A03         MOV     R2,#0x3
   \   00001F   12....       LCALL   ?Subroutine24 & 0xFFFF
   2650              }
   2651            }
   2652          }
   \                     ??CrossCallReturnLabel_31:
   \   000022   02....       LJMP    ??Subroutine51_0 & 0xFFFF
   2653          
   2654          /*********************************************************************
   2655           * @fn          ZDO_ManytoOneFailureIndicationCB
   2656           *
   2657           * @brief       This function allows the next higher layer of a
   2658           *              concentrator to be notified of a many-to-one route
   2659           *              failure.
   2660           *
   2661           * @param       none
   2662           *
   2663           *
   2664           * @return      none
   2665           */

   \                                 In  segment BANKED_CODE, align 1, keep-with-next
   2666          void ZDO_ManytoOneFailureIndicationCB()
   \                     ZDO_ManytoOneFailureIndicationCB:
   2667          {
   \   000000   C082         PUSH    DPL
   \   000002   C083         PUSH    DPH
   \   000004                ; Saved register size: 2
   \   000004                ; Auto size: 0
   2668            // By default, the concentrator automatically redo many-to-one route
   2669            // discovery to update all many-to-one routes in the network
   2670            // If you want anything processing other than the default,
   2671            // please replace the following code.
   2672          
   2673            RTG_MTORouteReq();
   \   000004                ; Setup parameters for call to function RTG_MTORouteReq
   \   000004   12....       LCALL   ??RTG_MTORouteReq?relay
   2674          }
   \   000007   02....       LJMP    ??Subroutine50_0 & 0xFFFF
   2675          
   2676          /*********************************************************************
   2677           * @fn          ZDO_PollConfirmCB
   2678           *
   2679           * @brief       This function allows the next higher layer to be
   2680           *              notified of a Poll Confirm.
   2681           *
   2682           * @param       none
   2683           *
   2684           * @return      none
   2685           */

   \                                 In  segment BANKED_CODE, align 1, keep-with-next
   2686          void ZDO_PollConfirmCB( uint8 status )
   \                     ZDO_PollConfirmCB:
   2687          {
   \   000000                ; Saved register size: 0
   \   000000                ; Auto size: 0
   2688            (void)status;  // Remove this line if this parameter is used.
   2689            return;
   \   000000   02....       LJMP    ?BRET
   2690          }
   2691          
   2692          /******************************************************************************
   2693           * @fn          ZDApp_NwkWriteNVRequest (stubs AddrMgrWriteNVRequest)
   2694           *
   2695           * @brief       Stub routine implemented by NHLE. NHLE should call
   2696           *              <AddrMgrWriteNV> when appropriate.
   2697           *
   2698           * @param       none
   2699           *
   2700           * @return      none
   2701           */

   \                                 In  segment BANKED_CODE, align 1, keep-with-next
   2702          void ZDApp_NwkWriteNVRequest( void )
   \                     AddrMgrWriteNVRequest:
   2703          {
   \   000000   74F6         MOV     A,#-0xa
   \   000002   12....       LCALL   ?BANKED_ENTER_XDATA
   \   000005                ; Saved register size: 10
   \   000005                ; Auto size: 0
   2704          #if defined ( NV_RESTORE )
   2705            if ( !osal_get_timeoutEx( ZDAppTaskID, ZDO_NWK_UPDATE_NV ) )
   \   000005                ; Setup parameters for call to function osal_get_timeoutEx
   \   000005   12....       LCALL   ?Subroutine25 & 0xFFFF
   \                     ??CrossCallReturnLabel_32:
   \   000008   7003         JNZ     ??AddrMgrWriteNVRequest_0
   2706            {
   2707              // Trigger to save info into NV
   2708              ZDApp_NVUpdate();
   \   00000A                ; Setup parameters for call to function ZDApp_NVUpdate
   \   00000A   12....       LCALL   ??ZDApp_NVUpdate?relay
   2709            }
   2710          #endif
   2711          }
   \                     ??AddrMgrWriteNVRequest_0:
   \   00000D   80..         SJMP    ??Subroutine61_0

   \                                 In  segment BANKED_CODE, align 1, keep-with-next
   \                     ?Subroutine25:
   \   000000   7A00         MOV     R2,#0x0
   \   000002   7B02         MOV     R3,#0x2
   \   000004   90....       MOV     DPTR,#ZDAppTaskID
   \   000007   E0           MOVX    A,@DPTR
   \   000008   F9           MOV     R1,A
   \   000009   12....       LCALL   ??osal_get_timeoutEx?relay
   \   00000C   8B..         MOV     ?V0 + 1,R3
   \   00000E   EA           MOV     A,R2
   \   00000F   45..         ORL     A,?V0 + 1
   \   000011   22           RET
   2712          
   2713          /*********************************************************************
   2714           * Call Back Functions from Security  - API
   2715           */
   2716          
   2717           /*********************************************************************
   2718           * @fn          ZDO_UpdateDeviceIndication
   2719           *
   2720           * @brief       This function notifies the "Trust Center" of a
   2721           *              network when a device joins or leaves the network.
   2722           *
   2723           * @param       extAddr - pointer to 64 bit address of new device
   2724           * @param       status  - 0 if a new device joined securely
   2725           *                      - 1 if a new device joined un-securely
   2726           *                      - 2 if a device left the network
   2727           *
   2728           * @return      true if newly joined device should be allowed to
   2729           *                                              remain on network
   2730           */

   \                                 In  segment BANKED_CODE, align 1, keep-with-next
   2731          ZStatus_t ZDO_UpdateDeviceIndication( uint8 *extAddr, uint8 status )
   \                     ZDO_UpdateDeviceIndication:
   2732          {
   \   000000                ; Saved register size: 0
   \   000000                ; Auto size: 0
   2733            // can implement a network access policy based on the
   2734            // IEEE address of newly joining devices...
   2735            (void)extAddr;
   2736            (void)status;
   2737          
   2738            return ZSuccess;
   \   000000   7900         MOV     R1,#0x0
   \   000002   02....       LJMP    ?BRET
   2739          }
   2740          
   2741          /*********************************************************************
   2742           * @fn          ZDApp_InMsgCB
   2743           *
   2744           * @brief       This function is called to pass up any message that is
   2745           *              not yet supported.  This allows for the developer to
   2746           *              support features themselves..
   2747           *
   2748           * @return      none
   2749           */

   \                                 In  segment BANKED_CODE, align 1, keep-with-next
   2750          void ZDApp_InMsgCB( zdoIncomingMsg_t *inMsg )
   \                     ZDApp_InMsgCB:
   2751          {
   \   000000   74F6         MOV     A,#-0xa
   \   000002   12....       LCALL   ?BANKED_ENTER_XDATA
   \   000005                ; Saved register size: 10
   \   000005                ; Auto size: 0
   \   000005   EA           MOV     A,R2
   \   000006   FE           MOV     R6,A
   \   000007   EB           MOV     A,R3
   \   000008   FF           MOV     R7,A
   2752            if ( inMsg->clusterID & ZDO_RESPONSE_BIT )
   \   000009   12....       LCALL   ?Subroutine31 & 0xFFFF
   \                     ??CrossCallReturnLabel_108:
   \   00000C   A3           INC     DPTR
   \   00000D   E0           MOVX    A,@DPTR
   \   00000E   5480         ANL     A,#0x80
   \   000010   704A         JNZ     ??ZDApp_InMsgCB_0
   2753            {
   2754              // Handle the response message
   2755            }
   2756            else
   2757            {
   2758              // Handle the request message by sending a generic "not supported".
   2759              // Device Announce doesn't have a response.
   2760              if ( !(inMsg->wasBroadcast) && inMsg->clusterID != Device_annce )
   \   000012   12....       LCALL   ?Subroutine30 & 0xFFFF
   \                     ??CrossCallReturnLabel_102:
   \   000015   7045         JNZ     ??ZDApp_InMsgCB_0
   \   000017   EE           MOV     A,R6
   \   000018   240C         ADD     A,#0xc
   \   00001A   12....       LCALL   ??Subroutine53_0 & 0xFFFF
   \                     ??CrossCallReturnLabel_96:
   \   00001D   6413         XRL     A,#0x13
   \   00001F   7002         JNZ     ??ZDApp_InMsgCB_1
   \   000021   A3           INC     DPTR
   \   000022   E0           MOVX    A,@DPTR
   \                     ??ZDApp_InMsgCB_1:
   \   000023   6037         JZ      ??ZDApp_InMsgCB_0
   2761              {
   2762                ZDP_GenericRsp( inMsg->TransSeq, &(inMsg->srcAddr), ZDP_NOT_SUPPORTED, 0,
   2763                                (uint16)(inMsg->clusterID | ZDO_RESPONSE_BIT), inMsg->SecurityUse );
   \   000025                ; Setup parameters for call to function ZDP_GenericRsp
   \   000025   12....       LCALL   ?Subroutine29 & 0xFFFF
   2764              }
   2765            }
   \                     ??CrossCallReturnLabel_41:
   \   000028   4480         ORL     A,#0x80
   \   00002A   F5..         MOV     ?V0 + 1,A
   \   00002C   78..         MOV     R0,#?V0 + 0
   \   00002E   12....       LCALL   ?PUSH_XSTACK_I_TWO
   \   000031   E4           CLR     A
   \   000032   F5..         MOV     ?V0 + 0,A
   \   000034   F5..         MOV     ?V0 + 1,A
   \   000036   78..         MOV     R0,#?V0 + 0
   \   000038   12....       LCALL   ?PUSH_XSTACK_I_TWO
   \   00003B   EE           MOV     A,R6
   \   00003C   240E         ADD     A,#0xe
   \   00003E   12....       LCALL   ??Subroutine53_0 & 0xFFFF
   \                     ??CrossCallReturnLabel_97:
   \   000041   FD           MOV     R5,A
   \   000042   7C84         MOV     R4,#-0x7c
   \   000044   EE           MOV     A,R6
   \   000045   2402         ADD     A,#0x2
   \   000047   0A           INC     R2
   \   000048   0A           INC     R2
   \   000049   EF           MOV     A,R7
   \   00004A   3400         ADDC    A,#0x0
   \   00004C   FB           MOV     R3,A
   \   00004D   EE           MOV     A,R6
   \   00004E   240F         ADD     A,#0xf
   \   000050   12....       LCALL   ??Subroutine53_0 & 0xFFFF
   \                     ??CrossCallReturnLabel_98:
   \   000053   F9           MOV     R1,A
   \   000054   12....       LCALL   ??ZDP_GenericRsp?relay
   \   000057   7404         MOV     A,#0x4
   \   000059   12....       LCALL   ?DEALLOC_XSTACK8
   2766          }
   \                     ??ZDApp_InMsgCB_0:
   \   00005C   02....       LJMP    ??Subroutine61_0 & 0xFFFF
   2767          
   2768          
   2769          /*********************************************************************
   2770           * @fn      ZDApp_ChangeMatchDescRespPermission()
   2771           *
   2772           * @brief   Changes the Match Descriptor Response permission.
   2773           *
   2774           * @param   endpoint - endpoint to allow responses
   2775           * @param   action - true to allow responses, false to not
   2776           *
   2777           * @return  none
   2778           */

   \                                 In  segment BANKED_CODE, align 1, keep-with-next
   2779          void ZDApp_ChangeMatchDescRespPermission( uint8 endpoint, uint8 action )
   \                     ZDApp_ChangeMatchDescRespPermission:
   2780          {
   \   000000   74F7         MOV     A,#-0x9
   \   000002   12....       LCALL   ?BANKED_ENTER_XDATA
   \   000005                ; Saved register size: 9
   \   000005                ; Auto size: 0
   2781            // Store the action
   2782            afSetMatch( endpoint, action );
   \   000005                ; Setup parameters for call to function afSetMatch
   \   000005   12....       LCALL   ??afSetMatch?relay
   2783          }
   \   000008   02....       LJMP    ??Subroutine51_0 & 0xFFFF
   2784          
   2785          /*********************************************************************
   2786           * @fn      ZDApp_NetworkInit()
   2787           *
   2788           * @brief   Used to start the network joining process
   2789           *
   2790           * @param   delay - mSec delay to wait before starting
   2791           *
   2792           * @return  none
   2793           */

   \                                 In  segment BANKED_CODE, align 1, keep-with-next
   2794          void ZDApp_NetworkInit( uint16 delay )
   \                     ZDApp_NetworkInit:
   2795          {
   \   000000   C082         PUSH    DPL
   \   000002   C083         PUSH    DPH
   \   000004                ; Saved register size: 2
   \   000004                ; Auto size: 0
   2796            if ( delay )
   \   000004   EA           MOV     A,R2
   \   000005   4B           ORL     A,R3
   \   000006   600B         JZ      ??ZDApp_NetworkInit_0
   2797            {
   2798              // Wait awhile before starting the device
   2799              osal_start_timerEx( ZDAppTaskID, ZDO_NETWORK_INIT, delay );
   \   000008                ; Setup parameters for call to function osal_start_timerEx
   \   000008   EA           MOV     A,R2
   \   000009   FC           MOV     R4,A
   \   00000A   EB           MOV     A,R3
   \   00000B   FD           MOV     R5,A
   \   00000C   7A01         MOV     R2,#0x1
   \   00000E   12....       LCALL   ?Subroutine22 & 0xFFFF
   2800            }
   \                     ??CrossCallReturnLabel_67:
   \   000011   8005         SJMP    ??CrossCallReturnLabel_128
   2801            else
   2802            {
   2803              osal_set_event( ZDAppTaskID, ZDO_NETWORK_INIT );
   \                     ??ZDApp_NetworkInit_0:
   \   000013                ; Setup parameters for call to function osal_set_event
   \   000013   7A01         MOV     R2,#0x1
   \   000015   12....       LCALL   ??Subroutine62_0 & 0xFFFF
   2804            }
   2805          }
   \                     ??CrossCallReturnLabel_128:
   \   000018   02....       LJMP    ??Subroutine50_0 & 0xFFFF
   2806          
   2807          /*********************************************************************
   2808           * @fn      ZDApp_NwkStateUpdateCB()
   2809           *
   2810           * @brief   This function notifies that this device's network
   2811           *          state info has been changed.
   2812           *
   2813           * @param   none
   2814           *
   2815           * @return  none
   2816           */

   \                                 In  segment BANKED_CODE, align 1, keep-with-next
   2817          void ZDApp_NwkStateUpdateCB( void )
   \                     ZDApp_NwkStateUpdateCB:
   2818          {
   \   000000   74F6         MOV     A,#-0xa
   \   000002   12....       LCALL   ?BANKED_ENTER_XDATA
   \   000005                ; Saved register size: 10
   \   000005                ; Auto size: 0
   2819            // Notify to save info into NV
   2820            if ( !osal_get_timeoutEx( ZDAppTaskID, ZDO_NWK_UPDATE_NV ) )
   \   000005                ; Setup parameters for call to function osal_get_timeoutEx
   \   000005   12....       LCALL   ?Subroutine25 & 0xFFFF
   \                     ??CrossCallReturnLabel_33:
   \   000008   7003         JNZ     ??ZDApp_NwkStateUpdateCB_0
   2821            {
   2822              // Trigger to save info into NV
   2823              ZDApp_NVUpdate();
   \   00000A                ; Setup parameters for call to function ZDApp_NVUpdate
   \   00000A   12....       LCALL   ??ZDApp_NVUpdate?relay
   2824            }
   2825          }
   \                     ??ZDApp_NwkStateUpdateCB_0:
   \   00000D   02....       LJMP    ??Subroutine61_0 & 0xFFFF
   2826          
   2827          /*********************************************************************
   2828           * @fn      ZDApp_NodeProfileSync()
   2829           *
   2830           * @brief   Sync node with stack profile.
   2831           *
   2832           * @param   stackProfile - stack profile of the network to join
   2833           *
   2834           * @return  none
   2835           */

   \                                 In  segment BANKED_CODE, align 1, keep-with-next
   2836          void ZDApp_NodeProfileSync( uint8 stackProfile )
   \                     ZDApp_NodeProfileSync:
   2837          {
   \   000000   74F7         MOV     A,#-0x9
   \   000002   12....       LCALL   ?BANKED_ENTER_XDATA
   \   000005                ; Saved register size: 9
   \   000005                ; Auto size: 0
   \   000005   E9           MOV     A,R1
   \   000006   FE           MOV     R6,A
   2838            if ( ZDO_Config_Node_Descriptor.CapabilityFlags & CAPINFO_DEVICETYPE_FFD  )
   \   000007   90....       MOV     DPTR,#ZDO_Config_Node_Descriptor + 2
   \   00000A   E0           MOVX    A,@DPTR
   \   00000B   A2E1         MOV     C,0xE0 /* A   */.1
   \   00000D   501A         JNC     ??ZDApp_NodeProfileSync_0
   2839            {
   2840              if ( stackProfile != zgStackProfile )
   \   00000F   90....       MOV     DPTR,#zgStackProfile
   \   000012   E0           MOVX    A,@DPTR
   \   000013   6E           XRL     A,R6
   \   000014   6013         JZ      ??ZDApp_NodeProfileSync_0
   2841              {
   2842                ZDO_Config_Node_Descriptor.LogicalType = NODETYPE_DEVICE;
   \   000016   90....       MOV     DPTR,#ZDO_Config_Node_Descriptor
   \   000019   E0           MOVX    A,@DPTR
   \   00001A   54F8         ANL     A,#0xf8
   \   00001C   4402         ORL     A,#0x2
   \   00001E   F0           MOVX    @DPTR,A
   2843                ZDO_Config_Node_Descriptor.CapabilityFlags = CAPINFO_DEVICETYPE_RFD | CAPINFO_POWER_AC | CAPINFO_RCVR_ON_IDLE;
   \   00001F   90....       MOV     DPTR,#ZDO_Config_Node_Descriptor + 2
   \   000022   740C         MOV     A,#0xc
   \   000024   F0           MOVX    @DPTR,A
   2844                NLME_SetBroadcastFilter( ZDO_Config_Node_Descriptor.CapabilityFlags );
   \   000025                ; Setup parameters for call to function NLME_SetBroadcastFilter
   \   000025   F9           MOV     R1,A
   \   000026   12....       LCALL   ??NLME_SetBroadcastFilter?relay
   2845              }
   2846            }
   2847          }
   \                     ??ZDApp_NodeProfileSync_0:
   \   000029   02....       LJMP    ??Subroutine51_0 & 0xFFFF
   2848          
   2849          /*********************************************************************
   2850           * @fn      ZDApp_StartJoiningCycle()
   2851           *
   2852           * @brief   Starts the joining cycle of a device.  This will only
   2853           *          continue an already started (or stopped) joining cycle.
   2854           *
   2855           * @param   none
   2856           *
   2857           * @return  TRUE if joining stopped, FALSE if joining or rejoining
   2858           */

   \                                 In  segment BANKED_CODE, align 1, keep-with-next
   2859          uint8 ZDApp_StartJoiningCycle( void )
   \                     ZDApp_StartJoiningCycle:
   2860          {
   \   000000   C082         PUSH    DPL
   \   000002   C083         PUSH    DPH
   \   000004                ; Saved register size: 2
   \   000004                ; Auto size: 0
   2861            if ( devState == DEV_INIT || devState == DEV_NWK_DISC )
   \   000004   90....       MOV     DPTR,#devState
   \   000007   E0           MOVX    A,@DPTR
   \   000008   6401         XRL     A,#0x1
   \   00000A   6005         JZ      ??ZDApp_StartJoiningCycle_0
   \   00000C   E0           MOVX    A,@DPTR
   \   00000D   6402         XRL     A,#0x2
   \   00000F   7011         JNZ     ??ZDApp_StartJoiningCycle_1
   2862            {
   2863              continueJoining = TRUE;
   \                     ??ZDApp_StartJoiningCycle_0:
   \   000011   90....       MOV     DPTR,#continueJoining
   \   000014   7401         MOV     A,#0x1
   \   000016   F0           MOVX    @DPTR,A
   2864              ZDApp_NetworkInit( 0 );
   \   000017                ; Setup parameters for call to function ZDApp_NetworkInit
   \   000017   7A00         MOV     R2,#0x0
   \   000019   7B00         MOV     R3,#0x0
   \   00001B   12....       LCALL   ??ZDApp_NetworkInit?relay
   2865          
   2866              return ( TRUE );
   \   00001E   7901         MOV     R1,#0x1
   \   000020   8002         SJMP    ??ZDApp_StartJoiningCycle_2
   2867            }
   2868            else
   2869              return ( FALSE );
   \                     ??ZDApp_StartJoiningCycle_1:
   \   000022   7900         MOV     R1,#0x0
   \                     ??ZDApp_StartJoiningCycle_2:
   \   000024   02....       LJMP    ??Subroutine50_0 & 0xFFFF
   2870          }
   2871          
   2872          /*********************************************************************
   2873           * @fn      ZDApp_StopJoiningCycle()
   2874           *
   2875           * @brief   Stops the joining or rejoining process of a device.
   2876           *
   2877           * @param   none
   2878           *
   2879           * @return  TRUE if joining stopped, FALSE if joining or rejoining
   2880           */

   \                                 In  segment BANKED_CODE, align 1, keep-with-next
   2881          uint8 ZDApp_StopJoiningCycle( void )
   \                     ZDApp_StopJoiningCycle:
   2882          {
   \   000000   C082         PUSH    DPL
   \   000002   C083         PUSH    DPH
   \   000004                ; Saved register size: 2
   \   000004                ; Auto size: 0
   2883            if ( devState == DEV_INIT || devState == DEV_NWK_DISC )
   \   000004   90....       MOV     DPTR,#devState
   \   000007   E0           MOVX    A,@DPTR
   \   000008   6401         XRL     A,#0x1
   \   00000A   6005         JZ      ??ZDApp_StopJoiningCycle_0
   \   00000C   E0           MOVX    A,@DPTR
   \   00000D   6402         XRL     A,#0x2
   \   00000F   7009         JNZ     ??ZDApp_StopJoiningCycle_1
   2884            {
   2885              continueJoining = FALSE;
   \                     ??ZDApp_StopJoiningCycle_0:
   \   000011   90....       MOV     DPTR,#continueJoining
   \   000014   E4           CLR     A
   \   000015   F0           MOVX    @DPTR,A
   2886              return ( TRUE );
   \   000016   7901         MOV     R1,#0x1
   \   000018   8002         SJMP    ??ZDApp_StopJoiningCycle_2
   2887            }
   2888            else
   2889              return ( FALSE );
   \                     ??ZDApp_StopJoiningCycle_1:
   \   00001A   7900         MOV     R1,#0x0
   \                     ??ZDApp_StopJoiningCycle_2:
   \   00001C   02....       LJMP    ??Subroutine50_0 & 0xFFFF
   2890          }
   2891          
   2892          /*********************************************************************
   2893           * @fn      ZDApp_AnnounceNewAddress()
   2894           *
   2895           * @brief   Send Device Announce and hold all transmissions for
   2896           *          new address timeout.
   2897           *
   2898           * @param   none
   2899           *
   2900           * @return  none
   2901           */

   \                                 In  segment BANKED_CODE, align 1, keep-with-next
   2902          void ZDApp_AnnounceNewAddress( void )
   \                     ZDApp_AnnounceNewAddress:
   2903          {
   \   000000   74F6         MOV     A,#-0xa
   \   000002   12....       LCALL   ?BANKED_ENTER_XDATA
   \   000005                ; Saved register size: 10
   \   000005                ; Auto size: 0
   2904          #if defined ( ZIGBEE_NWK_UNIQUE_ADDR_CHECK )
   2905            // Turn off data request hold
   2906            APSME_HoldDataRequests( 0 );
   \   000005                ; Setup parameters for call to function APSME_HoldDataRequests
   \   000005   7A00         MOV     R2,#0x0
   \   000007   7B00         MOV     R3,#0x0
   \   000009   12....       LCALL   ??APSME_HoldDataRequests?relay
   2907          #endif
   2908          
   2909            ZDP_DeviceAnnce( NLME_GetShortAddr(), NLME_GetExtAddr(),
   2910                               ZDO_Config_Node_Descriptor.CapabilityFlags, 0 );
   \   00000C                ; Setup parameters for call to function NLME_GetExtAddr
   \   00000C   12....       LCALL   ??NLME_GetExtAddr?relay
   \   00000F   8A..         MOV     ?V0 + 0,R2
   \   000011   8B..         MOV     ?V0 + 1,R3
   \   000013   AE..         MOV     R6,?V0 + 0
   \   000015                ; Setup parameters for call to function NLME_GetShortAddr
   \   000015   12....       LCALL   ??NLME_GetShortAddr?relay
   \   000018                ; Setup parameters for call to function ZDP_DeviceAnnce
   \   000018   75..00       MOV     ?V0 + 0,#0x0
   \   00001B   78..         MOV     R0,#?V0 + 0
   \   00001D   12....       LCALL   ?PUSH_XSTACK_I_ONE
   \   000020   90....       MOV     DPTR,#ZDO_Config_Node_Descriptor + 2
   \   000023   E0           MOVX    A,@DPTR
   \   000024   F9           MOV     R1,A
   \   000025   EE           MOV     A,R6
   \   000026   FC           MOV     R4,A
   \   000027   AD..         MOV     R5,?V0 + 1
   \   000029   12....       LCALL   ??ZDP_DeviceAnnce?relay
   \   00002C   7401         MOV     A,#0x1
   \   00002E   12....       LCALL   ?DEALLOC_XSTACK8
   2911          
   2912          #if defined ( ZIGBEE_NWK_UNIQUE_ADDR_CHECK )
   2913            // Setup the timeout
   2914            APSME_HoldDataRequests( ZDAPP_HOLD_DATA_REQUESTS_TIMEOUT );
   \   000031                ; Setup parameters for call to function APSME_HoldDataRequests
   \   000031   7A00         MOV     R2,#0x0
   \   000033   7B00         MOV     R3,#0x0
   \   000035   12....       LCALL   ??APSME_HoldDataRequests?relay
   2915          #endif
   2916          }
   \   000038   02....       LJMP    ??Subroutine61_0 & 0xFFFF
   2917          
   2918          /*********************************************************************
   2919           * @fn          ZDApp_NVUpdate
   2920           *
   2921           * @brief       Set the NV Update Timer.
   2922           *
   2923           * @param       none
   2924           *
   2925           * @return      none
   2926           */

   \                                 In  segment BANKED_CODE, align 1, keep-with-next
   2927          void ZDApp_NVUpdate( void )
   \                     ZDApp_NVUpdate:
   2928          {
   \   000000   C082         PUSH    DPL
   \   000002   C083         PUSH    DPH
   \   000004                ; Saved register size: 2
   \   000004                ; Auto size: 0
   2929          #if defined ( NV_RESTORE )
   2930            osal_start_timerEx( ZDAppTaskID, ZDO_NWK_UPDATE_NV, ZDAPP_UPDATE_NWK_NV_TIME );//ZDApp_SaveNetworkStateEvt();
   \   000004                ; Setup parameters for call to function osal_start_timerEx
   \   000004   7CBC         MOV     R4,#-0x44
   \   000006   7D02         MOV     R5,#0x2
   \   000008   7A00         MOV     R2,#0x0
   \   00000A   7B02         MOV     R3,#0x2
   \   00000C   02....       LJMP    ?Subroutine3 & 0xFFFF
   2931          #endif
   2932          }
   2933          
   2934          /*********************************************************************
   2935           * @fn      ZDApp_CoordStartPANIDConflictCB()
   2936           *
   2937           * @brief   Returns a PAN ID for the network layer to use during
   2938           *          a coordinator start and there is another network with
   2939           *          the intended PANID.
   2940           *
   2941           * @param   panid - the intended PAN ID
   2942           *
   2943           * @return  PANID to try
   2944           */

   \                                 In  segment BANKED_CODE, align 1, keep-with-next
   2945          uint16 ZDApp_CoordStartPANIDConflictCB( uint16 panid )
   \                     ZDApp_CoordStartPANIDConflictCB:
   2946          {
   \   000000                ; Saved register size: 0
   \   000000                ; Auto size: 0
   2947            return ( panid + 1 );
   \   000000   EA           MOV     A,R2
   \   000001   2401         ADD     A,#0x1
   \   000003   0A           INC     R2
   \   000004   EB           MOV     A,R3
   \   000005   3400         ADDC    A,#0x0
   \   000007   FB           MOV     R3,A
   \   000008   02....       LJMP    ?BRET
   2948          }
   2949          
   2950          /*********************************************************************
   2951           * @fn          ZDO_SrcRtgIndCB
   2952           *
   2953           * @brief       This function notifies the ZDO available src route record received.
   2954           *
   2955           * @param       srcAddr - source address of the source route
   2956           * @param       relayCnt - number of devices in the relay list
   2957           * @param       relayList - relay list of the source route
   2958           *
   2959           * @return      none
   2960           */

   \                                 In  segment BANKED_CODE, align 1, keep-with-next
   2961          void ZDO_SrcRtgIndCB (uint16 srcAddr, uint8 relayCnt, uint16* pRelayList )
   \                     ZDO_SrcRtgIndCB:
   2962          {
   \   000000   74F7         MOV     A,#-0x9
   \   000002   12....       LCALL   ?BANKED_ENTER_XDATA
   \   000005                ; Saved register size: 9
   \   000005                ; Auto size: 5
   \   000005   74FB         MOV     A,#-0x5
   \   000007   12....       LCALL   ?ALLOC_XSTACK8
   2963            zdoSrcRtg_t srcRtg;
   2964          
   2965            srcRtg.srcAddr = srcAddr;
   \   00000A   12....       LCALL   ?Subroutine13 & 0xFFFF
   2966            srcRtg.relayCnt = relayCnt;
   \                     ??CrossCallReturnLabel_137:
   \   00000D   7402         MOV     A,#0x2
   \   00000F   12....       LCALL   ?XSTACK_DISP0_8
   \   000012   E9           MOV     A,R1
   \   000013   F0           MOVX    @DPTR,A
   2967            srcRtg.pRelayList = pRelayList;
   \   000014   7403         MOV     A,#0x3
   \   000016   12....       LCALL   ?XSTACK_DISP0_8
   \   000019   EC           MOV     A,R4
   \   00001A   F0           MOVX    @DPTR,A
   \   00001B   A3           INC     DPTR
   \   00001C   ED           MOV     A,R5
   \   00001D   F0           MOVX    @DPTR,A
   2968          
   2969            if( zdoCBFunc[ZDO_SRC_RTG_IND_CBID] != NULL )
   \   00001E   90....       MOV     DPTR,#zdoCBFunc
   \   000021   12....       LCALL   ?Subroutine14 & 0xFFFF
   \                     ??CrossCallReturnLabel_18:
   \   000024   6013         JZ      ??ZDO_SrcRtgIndCB_0
   2970            {
   2971              zdoCBFunc[ZDO_SRC_RTG_IND_CBID]( (void*)&srcRtg );
   \   000026                ; Setup parameters for indirect call
   \   000026   85..82       MOV     DPL,?XSP + 0
   \   000029   85..83       MOV     DPH,?XSP + 1
   \   00002C   AA82         MOV     R2,DPL
   \   00002E   AB83         MOV     R3,DPH
   \   000030   90....       MOV     DPTR,#zdoCBFunc + 1
   \   000033   12....       LCALL   ??Subroutine59_0 & 0xFFFF
   2972            }
   \                     ??CrossCallReturnLabel_115:
   \   000036   12....       LCALL   ?CALL_IND
   2973          }
   \                     ??ZDO_SrcRtgIndCB_0:
   \   000039   02....       LJMP    ?Subroutine5 & 0xFFFF
   2974          
   2975          /*********************************************************************
   2976           * @fn          ZDApp_InitZdoCBFunc
   2977           *
   2978           * @brief       Call this function to initialize zdoCBFunc[]
   2979           *
   2980           * @param       none
   2981           *
   2982           * @return      none
   2983           */

   \                                 In  segment BANKED_CODE, align 1, keep-with-next
   2984          void ZDApp_InitZdoCBFunc( void )
   \                     ZDApp_InitZdoCBFunc:
   2985          {
   \   000000   C082         PUSH    DPL
   \   000002   C083         PUSH    DPH
   \   000004                ; Saved register size: 2
   \   000004                ; Auto size: 0
   2986            uint8 i;
   2987          
   2988            for ( i=0; i< MAX_ZDO_CB_FUNC; i++ )
   \   000004   7A00         MOV     R2,#0x0
   2989            {
   2990              zdoCBFunc[i] = NULL;
   \                     ??ZDApp_InitZdoCBFunc_0:
   \   000006   12....       LCALL   ?Subroutine28 & 0xFFFF
   2991            }
   \                     ??CrossCallReturnLabel_38:
   \   000009   0A           INC     R2
   \   00000A   EA           MOV     A,R2
   \   00000B   C3           CLR     C
   \   00000C   9407         SUBB    A,#0x7
   \   00000E   40F6         JC      ??ZDApp_InitZdoCBFunc_0
   2992          }
   \   000010   02....       LJMP    ??Subroutine50_0 & 0xFFFF

   \                                 In  segment BANKED_CODE, align 1, keep-with-next
   \                     ?Subroutine28:
   \   000000   EA           MOV     A,R2
   \   000001   12....       LCALL   ?Subroutine41 & 0xFFFF
   \                     ??CrossCallReturnLabel_65:
   \   000004   E4           CLR     A
   \   000005   F0           MOVX    @DPTR,A
   \   000006   A3           INC     DPTR
   \   000007   F0           MOVX    @DPTR,A
   \   000008   22           RET

   \                                 In  segment BANKED_CODE, align 1, keep-with-next
   \                     ?Subroutine41:
   \   000000   C3           CLR     C
   \   000001   33           RLC     A
   \   000002   F8           MOV     R0,A
   \   000003   E4           CLR     A
   \   000004   33           RLC     A
   \   000005   F9           MOV     R1,A
   \   000006   74..         MOV     A,#zdoCBFunc & 0xff
   \   000008   28           ADD     A,R0
   \   000009   F582         MOV     DPL,A
   \   00000B   74..         MOV     A,#(zdoCBFunc >> 8) & 0xff
   \   00000D   39           ADDC    A,R1
   \   00000E   F583         MOV     DPH,A
   \   000010   22           RET
   2993          
   2994          /*********************************************************************
   2995           * @fn          ZDO_RegisterForZdoCB
   2996           *
   2997           * @brief       Call this function to register the higher layer (for
   2998           *              example, the Application layer or MT layer) with ZDO
   2999           *              callbacks to get notified of some ZDO indication like
   3000           *              existence of a concentrator or receipt of a source
   3001           *              route record.
   3002           *
   3003           * @param       indID - ZDO Indication ID
   3004           * @param       pFn   - Callback function pointer
   3005           *
   3006           * @return      ZSuccess - successful, ZInvalidParameter if not
   3007           */

   \                                 In  segment BANKED_CODE, align 1, keep-with-next
   3008          ZStatus_t ZDO_RegisterForZdoCB( uint8 indID, pfnZdoCb pFn )
   \                     ZDO_RegisterForZdoCB:
   3009          {
   \   000000   C082         PUSH    DPL
   \   000002   C083         PUSH    DPH
   \   000004                ; Saved register size: 2
   \   000004                ; Auto size: 0
   \   000004   E9           MOV     A,R1
   \   000005   FC           MOV     R4,A
   3010            // Check the range of the indication ID
   3011            if ( indID < MAX_ZDO_CB_FUNC )
   \   000006   C3           CLR     C
   \   000007   9407         SUBB    A,#0x7
   \   000009   500B         JNC     ??ZDO_RegisterForZdoCB_0
   3012            {
   3013              zdoCBFunc[indID] = pFn;
   \   00000B   EC           MOV     A,R4
   \   00000C   12....       LCALL   ?Subroutine41 & 0xFFFF
   \                     ??CrossCallReturnLabel_64:
   \   00000F   12....       LCALL   ??Subroutine64_0 & 0xFFFF
   3014              return ZSuccess;
   \                     ??CrossCallReturnLabel_134:
   \   000012   7900         MOV     R1,#0x0
   \   000014   8002         SJMP    ??ZDO_RegisterForZdoCB_1
   3015            }
   3016          
   3017            return ZInvalidParameter;
   \                     ??ZDO_RegisterForZdoCB_0:
   \   000016   7902         MOV     R1,#0x2
   \                     ??ZDO_RegisterForZdoCB_1:
   \   000018   02....       LJMP    ??Subroutine50_0 & 0xFFFF
   3018          }
   3019          
   3020          /*********************************************************************
   3021           * @fn          ZDO_DeregisterForZdoCB
   3022           *
   3023           * @brief       Call this function to de-register the higher layer (for
   3024           *              example, the Application layer or MT layer) with ZDO
   3025           *              callbacks to get notified of some ZDO indication like
   3026           *              existence of a concentrator or receipt of a source
   3027           *              route record.
   3028           *
   3029           * @param       indID - ZDO Indication ID
   3030           *
   3031           * @return      ZSuccess - successful, ZInvalidParameter if not
   3032           */

   \                                 In  segment BANKED_CODE, align 1, keep-with-next
   3033          ZStatus_t ZDO_DeregisterForZdoCB( uint8 indID )
   \                     ZDO_DeregisterForZdoCB:
   3034          {
   \   000000   C082         PUSH    DPL
   \   000002   C083         PUSH    DPH
   \   000004                ; Saved register size: 2
   \   000004                ; Auto size: 0
   \   000004   E9           MOV     A,R1
   \   000005   FA           MOV     R2,A
   3035            // Check the range of the indication ID
   3036            if ( indID < MAX_ZDO_CB_FUNC )
   \   000006   C3           CLR     C
   \   000007   9407         SUBB    A,#0x7
   \   000009   5006         JNC     ??ZDO_DeregisterForZdoCB_0
   3037            {
   3038              zdoCBFunc[indID] = NULL;
   \   00000B   12....       LCALL   ?Subroutine28 & 0xFFFF
   3039              return ZSuccess;
   \                     ??CrossCallReturnLabel_39:
   \   00000E   F9           MOV     R1,A
   \   00000F   8002         SJMP    ??ZDO_DeregisterForZdoCB_1
   3040            }
   3041          
   3042            return ZInvalidParameter;
   \                     ??ZDO_DeregisterForZdoCB_0:
   \   000011   7902         MOV     R1,#0x2
   \                     ??ZDO_DeregisterForZdoCB_1:
   \   000013   02....       LJMP    ??Subroutine50_0 & 0xFFFF
   3043          }

   \                                 In  segment XDATA_ID, align 1, keep-with-next
   \                     `?<Initializer for zdoDiscCounter>`:
   \   000000   01           DB 1

   \                                 In  segment XDATA_ID, align 1, keep-with-next
   \                     `?<Initializer for continueJoining>`:
   \   000000   01           DB 1

   \                                 In  segment XDATA_ID, align 1, keep-with-next
   \                     `?<Initializer for devState>`:
   \   000000   01           DB 1

   \                                 In  segment XDATA_ID, align 1, keep-with-next
   \                     `?<Initializer for ZDApp_epDesc>`:
   \   000000   00           DB 0
   \   000001   ....         DW ZDAppTaskID
   \   000003   0000         DW 0H
   \   000005   00           DB 0

   \                                 In  segment XDATA_ID, align 1, keep-with-next
   \                     `?<Initializer for ZDApp_SavedPollRate>`:
   \   000000   E803         DW 1000

   \                                 In  segment XDATA_ROM_C, align 1
   \                     __Constant_1:
   \   000000   01000000     DD 1

   \                                 In  segment XDATA_ROM_C, align 1
   \                     __Constant_3e8:
   \   000000   E8030000     DD 1000

   \                                 In  segment BANK_RELAYS, align 1
   \                     ??ZDApp_Init?relay:
   \   000000   12....       LCALL   ?BDISPATCH
   \   000003   ......       DC24    ZDApp_Init

   \                                 In  segment BANK_RELAYS, align 1
   \                     ??ZDApp_SecInit?relay:
   \   000000   12....       LCALL   ?BDISPATCH
   \   000003   ......       DC24    ZDApp_SecInit

   \                                 In  segment BANK_RELAYS, align 1
   \                     ??ZDApp_event_loop?relay:
   \   000000   12....       LCALL   ?BDISPATCH
   \   000003   ......       DC24    ZDApp_event_loop

   \                                 In  segment BANK_RELAYS, align 1
   \                     ??ZDApp_ProcessSecEvent?relay:
   \   000000   12....       LCALL   ?BDISPATCH
   \   000003   ......       DC24    ZDApp_ProcessSecEvent

   \                                 In  segment BANK_RELAYS, align 1
   \                     ??ZDOInitDevice?relay:
   \   000000   12....       LCALL   ?BDISPATCH
   \   000003   ......       DC24    ZDOInitDevice

   \                                 In  segment BANK_RELAYS, align 1
   \                     ??ZDApp_ReadNetworkRestoreState?relay:
   \   000000   12....       LCALL   ?BDISPATCH
   \   000003   ......       DC24    ZDApp_ReadNetworkRestoreState

   \                                 In  segment BANK_RELAYS, align 1
   \                     ??ZDAppDetermineDeviceType?relay:
   \   000000   12....       LCALL   ?BDISPATCH
   \   000003   ......       DC24    ZDAppDetermineDeviceType

   \                                 In  segment BANK_RELAYS, align 1
   \                     ??ZDApp_NetworkStartEvt?relay:
   \   000000   12....       LCALL   ?BDISPATCH
   \   000003   ......       DC24    ZDApp_NetworkStartEvt

   \                                 In  segment BANK_RELAYS, align 1
   \                     ??ZDApp_DeviceAuthEvt?relay:
   \   000000   12....       LCALL   ?BDISPATCH
   \   000003   ......       DC24    ZDApp_DeviceAuthEvt

   \                                 In  segment BANK_RELAYS, align 1
   \                     ??ZDApp_SaveNetworkStateEvt?relay:
   \   000000   12....       LCALL   ?BDISPATCH
   \   000003   ......       DC24    ZDApp_SaveNetworkStateEvt

   \                                 In  segment BANK_RELAYS, align 1
   \                     ??ZDApp_RestoreNetworkState?relay:
   \   000000   12....       LCALL   ?BDISPATCH
   \   000003   ......       DC24    ZDApp_RestoreNetworkState

   \                                 In  segment BANK_RELAYS, align 1
   \                     ??ZDApp_InitUserDesc?relay:
   \   000000   12....       LCALL   ?BDISPATCH
   \   000003   ......       DC24    ZDApp_InitUserDesc

   \                                 In  segment BANK_RELAYS, align 1
   \                     ??ZDAppCheckForHoldKey?relay:
   \   000000   12....       LCALL   ?BDISPATCH
   \   000003   ......       DC24    ZDAppCheckForHoldKey

   \                                 In  segment BANK_RELAYS, align 1
   \                     ??ZDApp_ProcessOSALMsg?relay:
   \   000000   12....       LCALL   ?BDISPATCH
   \   000003   ......       DC24    ZDApp_ProcessOSALMsg

   \                                 In  segment BANK_RELAYS, align 1
   \                     ??ZDApp_ProcessMsgCBs?relay:
   \   000000   12....       LCALL   ?BDISPATCH
   \   000003   ......       DC24    ZDApp_ProcessMsgCBs

   \                                 In  segment BANK_RELAYS, align 1
   \                     ??ZDApp_RegisterCBs?relay:
   \   000000   12....       LCALL   ?BDISPATCH
   \   000003   ......       DC24    ZDApp_RegisterCBs

   \                                 In  segment BANK_RELAYS, align 1
   \                     ??ZDApp_ProcessSecMsg?relay:
   \   000000   12....       LCALL   ?BDISPATCH
   \   000003   ......       DC24    ZDApp_ProcessSecMsg

   \                                 In  segment BANK_RELAYS, align 1
   \                     ??ZDApp_ProcessNetworkJoin?relay:
   \   000000   12....       LCALL   ?BDISPATCH
   \   000003   ......       DC24    ZDApp_ProcessNetworkJoin

   \                                 In  segment BANK_RELAYS, align 1
   \                     ??ZDApp_SaveNwkKey?relay:
   \   000000   12....       LCALL   ?BDISPATCH
   \   000003   ......       DC24    ZDApp_SaveNwkKey

   \                                 In  segment BANK_RELAYS, align 1
   \                     ??ZDApp_ResetNwkKey?relay:
   \   000000   12....       LCALL   ?BDISPATCH
   \   000003   ......       DC24    ZDApp_ResetNwkKey

   \                                 In  segment BANK_RELAYS, align 1
   \                     ??ZDApp_RestoreNwkKey?relay:
   \   000000   12....       LCALL   ?BDISPATCH
   \   000003   ......       DC24    ZDApp_RestoreNwkKey

   \                                 In  segment BANK_RELAYS, align 1
   \                     ??ZDApp_ResetTimerStart?relay:
   \   000000   12....       LCALL   ?BDISPATCH
   \   000003   ......       DC24    ZDApp_ResetTimerStart

   \                                 In  segment BANK_RELAYS, align 1
   \                     ??ZDApp_ResetTimerCancel?relay:
   \   000000   12....       LCALL   ?BDISPATCH
   \   000003   ......       DC24    ZDApp_ResetTimerCancel

   \                                 In  segment BANK_RELAYS, align 1
   \                     ??ZDApp_LeaveCtrlInit?relay:
   \   000000   12....       LCALL   ?BDISPATCH
   \   000003   ......       DC24    ZDApp_LeaveCtrlInit

   \                                 In  segment BANK_RELAYS, align 1
   \                     ??ZDApp_LeaveCtrlSet?relay:
   \   000000   12....       LCALL   ?BDISPATCH
   \   000003   ......       DC24    ZDApp_LeaveCtrlSet

   \                                 In  segment BANK_RELAYS, align 1
   \                     ??ZDApp_LeaveCtrlReset?relay:
   \   000000   12....       LCALL   ?BDISPATCH
   \   000003   ......       DC24    ZDApp_LeaveCtrlReset

   \                                 In  segment BANK_RELAYS, align 1
   \                     ??ZDApp_LeaveCtrlBypass?relay:
   \   000000   12....       LCALL   ?BDISPATCH
   \   000003   ......       DC24    ZDApp_LeaveCtrlBypass

   \                                 In  segment BANK_RELAYS, align 1
   \                     ??ZDApp_LeaveCtrlStartup?relay:
   \   000000   12....       LCALL   ?BDISPATCH
   \   000003   ......       DC24    ZDApp_LeaveCtrlStartup

   \                                 In  segment BANK_RELAYS, align 1
   \                     ??ZDApp_LeaveReset?relay:
   \   000000   12....       LCALL   ?BDISPATCH
   \   000003   ......       DC24    ZDApp_LeaveReset

   \                                 In  segment BANK_RELAYS, align 1
   \                     ??ZDApp_LeaveUpdate?relay:
   \   000000   12....       LCALL   ?BDISPATCH
   \   000003   ......       DC24    ZDApp_LeaveUpdate

   \                                 In  segment BANK_RELAYS, align 1
   \                     ??ZDApp_NetworkDiscoveryReq?relay:
   \   000000   12....       LCALL   ?BDISPATCH
   \   000003   ......       DC24    ZDApp_NetworkDiscoveryReq

   \                                 In  segment BANK_RELAYS, align 1
   \                     ??ZDApp_JoinReq?relay:
   \   000000   12....       LCALL   ?BDISPATCH
   \   000003   ......       DC24    ZDApp_JoinReq

   \                                 In  segment BANK_RELAYS, align 1
   \                     ??ZDApp_DeviceConfigured?relay:
   \   000000   12....       LCALL   ?BDISPATCH
   \   000003   ......       DC24    ZDApp_DeviceConfigured

   \                                 In  segment BANK_RELAYS, align 1
   \                     ??ZDApp_SendEventMsg?relay:
   \   000000   12....       LCALL   ?BDISPATCH
   \   000003   ......       DC24    ZDApp_SendEventMsg

   \                                 In  segment BANK_RELAYS, align 1
   \                     ??ZDApp_SendMsg?relay:
   \   000000   12....       LCALL   ?BDISPATCH
   \   000003   ......       DC24    ZDApp_SendMsg

   \                                 In  segment BANK_RELAYS, align 1
   \                     ??ZDO_NetworkDiscoveryConfirmCB?relay:
   \   000000   12....       LCALL   ?BDISPATCH
   \   000003   ......       DC24    ZDO_NetworkDiscoveryConfirmCB

   \                                 In  segment BANK_RELAYS, align 1
   \                     ??ZDApp_NwkDescListProcessing?relay:
   \   000000   12....       LCALL   ?BDISPATCH
   \   000003   ......       DC24    ZDApp_NwkDescListProcessing

   \                                 In  segment BANK_RELAYS, align 1
   \                     ??ZDO_NetworkFormationConfirmCB?relay:
   \   000000   12....       LCALL   ?BDISPATCH
   \   000003   ......       DC24    ZDO_NetworkFormationConfirmCB

   \                                 In  segment BANK_RELAYS, align 1
   \                     ??ZDO_beaconNotifyIndCB?relay:
   \   000000   12....       LCALL   ?BDISPATCH
   \   000003   ......       DC24    ZDO_beaconNotifyIndCB

   \                                 In  segment BANK_RELAYS, align 1
   \                     ??ZDO_StartRouterConfirmCB?relay:
   \   000000   12....       LCALL   ?BDISPATCH
   \   000003   ......       DC24    ZDO_StartRouterConfirmCB

   \                                 In  segment BANK_RELAYS, align 1
   \                     ??ZDO_JoinConfirmCB?relay:
   \   000000   12....       LCALL   ?BDISPATCH
   \   000003   ......       DC24    ZDO_JoinConfirmCB

   \                                 In  segment BANK_RELAYS, align 1
   \                     ??ZDO_AddrChangeIndicationCB?relay:
   \   000000   12....       LCALL   ?BDISPATCH
   \   000003   ......       DC24    ZDO_AddrChangeIndicationCB

   \                                 In  segment BANK_RELAYS, align 1
   \                     ??ZDO_JoinIndicationCB?relay:
   \   000000   12....       LCALL   ?BDISPATCH
   \   000003   ......       DC24    ZDO_JoinIndicationCB

   \                                 In  segment BANK_RELAYS, align 1
   \                     ??ZDO_ConcentratorIndicationCB?relay:
   \   000000   12....       LCALL   ?BDISPATCH
   \   000003   ......       DC24    ZDO_ConcentratorIndicationCB

   \                                 In  segment BANK_RELAYS, align 1
   \                     ??ZDO_LeaveCnf?relay:
   \   000000   12....       LCALL   ?BDISPATCH
   \   000003   ......       DC24    ZDO_LeaveCnf

   \                                 In  segment BANK_RELAYS, align 1
   \                     ??ZDO_LeaveInd?relay:
   \   000000   12....       LCALL   ?BDISPATCH
   \   000003   ......       DC24    ZDO_LeaveInd

   \                                 In  segment BANK_RELAYS, align 1
   \                     ??ZDO_SyncIndicationCB?relay:
   \   000000   12....       LCALL   ?BDISPATCH
   \   000003   ......       DC24    ZDO_SyncIndicationCB

   \                                 In  segment BANK_RELAYS, align 1
   \                     ??ZDO_ManytoOneFailureIndicationCB?relay:
   \   000000   12....       LCALL   ?BDISPATCH
   \   000003   ......       DC24    ZDO_ManytoOneFailureIndicationCB

   \                                 In  segment BANK_RELAYS, align 1
   \                     ??ZDO_PollConfirmCB?relay:
   \   000000   12....       LCALL   ?BDISPATCH
   \   000003   ......       DC24    ZDO_PollConfirmCB

   \                                 In  segment BANK_RELAYS, align 1
   \                     ??AddrMgrWriteNVRequest?relay:
   \   000000   12....       LCALL   ?BDISPATCH
   \   000003   ......       DC24    AddrMgrWriteNVRequest

   \                                 In  segment BANK_RELAYS, align 1
   \                     ??ZDO_UpdateDeviceIndication?relay:
   \   000000   12....       LCALL   ?BDISPATCH
   \   000003   ......       DC24    ZDO_UpdateDeviceIndication

   \                                 In  segment BANK_RELAYS, align 1
   \                     ??ZDApp_InMsgCB?relay:
   \   000000   12....       LCALL   ?BDISPATCH
   \   000003   ......       DC24    ZDApp_InMsgCB

   \                                 In  segment BANK_RELAYS, align 1
   \                     ??ZDApp_ChangeMatchDescRespPermission?relay:
   \   000000   12....       LCALL   ?BDISPATCH
   \   000003   ......       DC24    ZDApp_ChangeMatchDescRespPermission

   \                                 In  segment BANK_RELAYS, align 1
   \                     ??ZDApp_NetworkInit?relay:
   \   000000   12....       LCALL   ?BDISPATCH
   \   000003   ......       DC24    ZDApp_NetworkInit

   \                                 In  segment BANK_RELAYS, align 1
   \                     ??ZDApp_NwkStateUpdateCB?relay:
   \   000000   12....       LCALL   ?BDISPATCH
   \   000003   ......       DC24    ZDApp_NwkStateUpdateCB

   \                                 In  segment BANK_RELAYS, align 1
   \                     ??ZDApp_NodeProfileSync?relay:
   \   000000   12....       LCALL   ?BDISPATCH
   \   000003   ......       DC24    ZDApp_NodeProfileSync

   \                                 In  segment BANK_RELAYS, align 1
   \                     ??ZDApp_StartJoiningCycle?relay:
   \   000000   12....       LCALL   ?BDISPATCH
   \   000003   ......       DC24    ZDApp_StartJoiningCycle

   \                                 In  segment BANK_RELAYS, align 1
   \                     ??ZDApp_StopJoiningCycle?relay:
   \   000000   12....       LCALL   ?BDISPATCH
   \   000003   ......       DC24    ZDApp_StopJoiningCycle

   \                                 In  segment BANK_RELAYS, align 1
   \                     ??ZDApp_AnnounceNewAddress?relay:
   \   000000   12....       LCALL   ?BDISPATCH
   \   000003   ......       DC24    ZDApp_AnnounceNewAddress

   \                                 In  segment BANK_RELAYS, align 1
   \                     ??ZDApp_NVUpdate?relay:
   \   000000   12....       LCALL   ?BDISPATCH
   \   000003   ......       DC24    ZDApp_NVUpdate

   \                                 In  segment BANK_RELAYS, align 1
   \                     ??ZDApp_CoordStartPANIDConflictCB?relay:
   \   000000   12....       LCALL   ?BDISPATCH
   \   000003   ......       DC24    ZDApp_CoordStartPANIDConflictCB

   \                                 In  segment BANK_RELAYS, align 1
   \                     ??ZDO_SrcRtgIndCB?relay:
   \   000000   12....       LCALL   ?BDISPATCH
   \   000003   ......       DC24    ZDO_SrcRtgIndCB

   \                                 In  segment BANK_RELAYS, align 1
   \                     ??ZDApp_InitZdoCBFunc?relay:
   \   000000   12....       LCALL   ?BDISPATCH
   \   000003   ......       DC24    ZDApp_InitZdoCBFunc

   \                                 In  segment BANK_RELAYS, align 1
   \                     ??ZDO_RegisterForZdoCB?relay:
   \   000000   12....       LCALL   ?BDISPATCH
   \   000003   ......       DC24    ZDO_RegisterForZdoCB

   \                                 In  segment BANK_RELAYS, align 1
   \                     ??ZDO_DeregisterForZdoCB?relay:
   \   000000   12....       LCALL   ?BDISPATCH
   \   000003   ......       DC24    ZDO_DeregisterForZdoCB
   3044          
   3045          /*********************************************************************
   3046          *********************************************************************/

   Maximum stack usage in bytes:

     Function                       ISTACK PSTACK XSTACK
     --------                       ------ ------ ------
     AddrMgrWriteNVRequest              0      0     34
       -> osal_get_timeoutEx            0      0     20
       -> ZDApp_NVUpdate                0      0     20
     ZDAppCheckForHoldKey               2      0      0
       -> HalKeyRead                    4      0      0
     ZDAppDetermineDeviceType           2      0     14
       -> nwk_ExtPANIDValid             4      0      0
     ZDApp_AnnounceNewAddress           0      0     23
       -> APSME_HoldDataRequests        0      0     20
       -> NLME_GetExtAddr               0      0     20
       -> NLME_GetShortAddr             0      0     20
       -> ZDP_DeviceAnnce               0      0     22
       -> APSME_HoldDataRequests        0      0     20
     ZDApp_ChangeMatchDescRespPermission
                                        0      0      9
       -> afSetMatch                    0      0     18
     ZDApp_CoordStartPANIDConflictCB
                                        0      0      0
     ZDApp_DeviceAuthEvt                2      0      9
       -> ZDApp_ResetTimerCancel        4      0      0
       -> osal_set_event                4      0      0
       -> NLME_StartRouterRequest       4      0      0
       -> ZDApp_NVUpdate                4      0      0
       -> ZDApp_SaveNwkKey              4      0      0
       -> ZDApp_AnnounceNewAddress      4      0      0
       -> NLME_SetPollRate              4      0      0
       -> ZDApp_NVUpdate                4      0      0
     ZDApp_DeviceConfigured             0      0     16
       -> osal_nv_read                  0      0     32
     ZDApp_InMsgCB                      0      0     14
       -> ZDP_GenericRsp                0      0     28
     ZDApp_Init                         0      0      9
       -> NLME_GetExtAddr               0      0     18
       -> ZDO_Init                      0      0     18
       -> afRegister                    0      0     18
       -> ZDApp_InitUserDesc            0      0     18
       -> ZDOInitDevice                 0      0     18
       -> ZDOInitDevice                 0      0     18
       -> HalLedBlink                   0      0     18
       -> ZDApp_InitZdoCBFunc           0      0     18
       -> ZDApp_RegisterCBs             0      0     18
     ZDApp_InitUserDesc                 0      0     40
       -> osal_memset                   0      0     54
       -> osal_nv_item_init             0      0     58
       -> osal_nv_read                  0      0     62
     ZDApp_InitZdoCBFunc                2      0      9
     ZDApp_JoinReq                      0      0     22
       -> ZDApp_NodeProfileSync         0      0     28
       -> NLME_JoinRequest              0      0     36
     ZDApp_LeaveCtrlBypass              2      0      0
     ZDApp_LeaveCtrlInit                0      0     28
       -> osal_nv_item_init             0      0     24
       -> osal_nv_read                  0      0     28
     ZDApp_LeaveCtrlReset               0      0     14
       -> osal_nv_write                 0      0     28
     ZDApp_LeaveCtrlSet                 0      0     23
       -> osal_nv_write                 0      0     28
     ZDApp_LeaveCtrlStartup             2      0     14
       -> ZDApp_LeaveCtrlReset          4      0      0
     ZDApp_LeaveReset                   0      0     21
       -> ZDApp_LeaveCtrlSet            0      0     18
       -> ZDApp_ResetTimerStart         0      0     18
     ZDApp_LeaveUpdate                  0      0     39
       -> ZDSecMgrDeviceRemoveByExtAddr
                                        0      0     48
       -> ZDSecMgrAddrClear             0      0     48
       -> osal_memcpy                   0      0     54
       -> NLME_RemoveChild              0      0     48
       -> RTG_RemoveRtgEntry            0      0     48
       -> nwkNeighborRemove             0      0     48
       -> AddrMgrWriteNVRequest         0      0     48
     ZDApp_NVUpdate                     2      0     14
       -> osal_start_timerEx            4      0      0
     ZDApp_NetworkDiscoveryReq          0      0     12
       -> NLME_NetworkDiscoveryRequest
                                        0      0     24
     ZDApp_NetworkInit                  2      0     14
       -> osal_start_timerEx            4      0      0
       -> osal_set_event                4      0      0
     ZDApp_NetworkStartEvt              2      0     10
       -> osal_pwrmgr_device            4      0      0
       -> osal_set_event                4      0      0
       -> NLME_GetEnergyThreshold       4      0      0
       -> NLME_GetEnergyThreshold       4      0      0
       -> NLME_SetEnergyThreshold       4      0      0
       -> osal_set_event                4      0      0
       -> osal_set_event                4      0      0
     ZDApp_NodeProfileSync              0      0     23
       -> NLME_SetBroadcastFilter       0      0     18
     ZDApp_NwkDescListProcessing        0      0     25
       -> nwk_getNwkDescList            0      0     28
       -> nwk_getNwkDescList            0      0     28
       -> nwk_ExtPANIDValid             0      0     28
       -> sAddrExtCmp                   0      0     28
     ZDApp_NwkStateUpdateCB             0      0     10
       -> osal_get_timeoutEx            0      0     20
       -> ZDApp_NVUpdate                0      0     20
     ZDApp_ProcessMsgCBs                0      0     42
       -> ZDO_ParseAddrRsp              0      0     62
       -> ZDO_UpdateAddrManager         0      0     62
       -> osal_mem_free                 0      0     62
       -> ZDO_ParseBindUnbindReq        0      0     62
       -> ZDO_ProcessBindUnbindReq      0      0     62
     ZDApp_ProcessNetworkJoin           0      0     23
       -> osal_set_event                0      0     24
       -> ZDApp_AnnounceNewAddress      0      0     24
       -> NLME_StartRouterRequest       0      0     24
       -> NLME_GetShortAddr             0      0     24
       -> ZMacSetReq                    0      0     24
       -> nwkNeighborInitTable          0      0     24
       -> NLME_NwkDiscTerm              0      0     24
       -> osal_rand                     0      0     24
       -> ZDApp_NetworkInit             0      0     24
       -> osal_set_event                0      0     24
       -> NLME_SetPollRate              0      0     24
       -> NLME_SetQueuedPollRate        0      0     24
       -> NLME_SetResponseRate          0      0     24
       -> NLME_StartRouterRequest       0      0     24
       -> ZDApp_AnnounceNewAddress      0      0     24
       -> nwkNeighborInitTable          0      0     24
       -> NLME_NwkDiscTerm              0      0     24
       -> osal_rand                     0      0     24
       -> ZDApp_NetworkInit             0      0     24
       -> ZDApp_AnnounceNewAddress      0      0     24
       -> osal_set_event                0      0     24
     ZDApp_ProcessOSALMsg               0      0     25
       -> ZDP_IncomingData              0      0     22
       -> ZDApp_ProcessMsgCBs           0      0     22
       -> ZDApp_NwkDescListProcessing
                                        0      0     22
       -> ZDApp_NodeProfileSync         0      0     22
       -> NLME_JoinRequest              0      0     30
       -> osal_rand                     0      0     22
       -> ZDApp_NetworkInit             0      0     22
       -> osal_rand                     0      0     22
       -> ZMacSetReq                    0      0     22
       -> ZMacSetReq                    0      0     22
       -> ZMacSetReq                    0      0     22
       -> NLME_ReJoinRequest            0      0     22
       -> osal_rand                     0      0     22
       -> ZDApp_NetworkInit             0      0     22
       -> NLME_SetPollRate              0      0     22
       -> NLME_SetQueuedPollRate        0      0     22
       -> NLME_SetResponseRate          0      0     22
       -> osal_rand                     0      0     22
       -> ZDApp_NetworkInit             0      0     22
       -> ZDApp_ProcessNetworkJoin      0      0     22
       -> sAddrExtCpy                   0      0     22
       -> ZDApp_NetworkInit             0      0     22
     ZDApp_ProcessSecEvent              0      0      9
       -> ZDSecMgrNewDeviceEvent        0      0     18
       -> osal_start_timerEx            0      0     18
       -> ZDApp_DeviceAuthEvt           0      0     18
       -> ZDApp_SaveNwkKey              0      0     18
       -> ZDSecMgrSaveApsLinkKey        0      0     18
       -> ZDSecMgrSaveTCLinkKey         0      0     18
     ZDApp_ProcessSecMsg                2      0      0
       -> ZDSecMgrTransportKeyInd       4      0      0
       -> ZDSecMgrRemoveDeviceInd       4      0      0
       -> ZDSecMgrSwitchKeyInd          4      0      0
     ZDApp_ReadNetworkRestoreState      0      0     23
       -> zgReadStartupOptions          0      0     18
     ZDApp_RegisterCBs                  2      0      9
       -> ZDO_RegisterForZDOMsg         4      0      0
       -> ZDO_RegisterForZDOMsg         4      0      0
       -> ZDO_RegisterForZDOMsg         4      0      0
       -> ZDO_RegisterForZDOMsg         4      0      0
     ZDApp_ResetNwkKey                  0      0     35
       -> osal_memset                   0      0     62
       -> osal_nv_write                 0      0     70
     ZDApp_ResetTimerCancel             2      0      0
       -> osal_stop_timerEx             4      0      0
     ZDApp_ResetTimerStart              2      0      9
       -> osal_start_timerEx            4      0      0
     ZDApp_RestoreNetworkState          0      0     23
       -> NLME_InitNV                   0      0     18
       -> NLME_RestoreFromNV            0      0     18
       -> NLME_GetShortAddr             0      0     18
       -> sAddrExtCpy                   0      0     18
     ZDApp_RestoreNwkKey                0      0     37
       -> osal_nv_read                  0      0     74
       -> osal_memset                   0      0     66
     ZDApp_SaveNetworkStateEvt          2      0     10
       -> NLME_UpdateNV                 4      0      0
       -> zgWriteStartupOptions         4      0      0
     ZDApp_SaveNwkKey                   0      0     46
       -> SSP_ReadNwkActiveKey          0      0     66
       -> osal_nv_write                 0      0     74
       -> osal_memset                   0      0     66
     ZDApp_SecInit                      0      0      9
       -> ZDSecMgrInit                  0      0     18
     ZDApp_SendEventMsg                 0      0      9
       -> ZDApp_SendMsg                 0      0     18
     ZDApp_SendMsg                      1      0     33
       -> osal_msg_allocate             0      0     32
       -> osal_memcpy                   0      0     38
       -> osal_msg_send                 0      0     32
     ZDApp_StartJoiningCycle            2      0      0
       -> ZDApp_NetworkInit             4      0      0
     ZDApp_StopJoiningCycle             2      0      0
     ZDApp_event_loop                   0      0     10
       -> osal_set_event                0      0     20
       -> ZDO_StartDevice               0      0     20
       -> ZDApp_ProcessOSALMsg          0      0     20
       -> osal_msg_deallocate           0      0     20
       -> osal_msg_receive              0      0     20
       -> ZDApp_NetworkStartEvt         0      0     20
       -> osal_pwrmgr_device            0      0     20
       -> osal_set_event                0      0     20
       -> ZDO_UpdateNwkStatus           0      0     20
       -> osal_start_timerEx            0      0     20
       -> osal_set_event                0      0     20
       -> ZDApp_SaveNetworkStateEvt     0      0     20
       -> zgWriteStartupOptions         0      0     20
       -> Onboard_soft_reset            0      0     20
     ZDOInitDevice                      0      0     23
       -> zgInitItems                   0      0     28
       -> ZDConfig_InitDescriptors      0      0     28
       -> ZDApp_ReadNetworkRestoreState
                                        0      0     28
       -> ZDApp_RestoreNetworkState     0      0     28
       -> NLME_InitNV                   0      0     28
       -> NLME_SetDefaultNV             0      0     28
       -> ZDSecMgrClearNVKeyValues      0      0     28
       -> ZDAppDetermineDeviceType      0      0     28
       -> osal_rand                     0      0     28
       -> ZDSecMgrInit                  0      0     28
       -> ZDApp_LeaveCtrlInit           0      0     28
       -> ZDApp_LeaveCtrlStartup        0      0     28
       -> zgWriteStartupOptions         0      0     28
       -> osal_set_event                0      0     28
       -> ZDApp_NetworkInit             0      0     28
       -> NLME_SetBroadcastFilter       0      0     28
     ZDO_AddrChangeIndicationCB         0      0     12
       -> ZDApp_NVUpdate                0      0     24
       -> osal_set_event                0      0     24
       -> osal_msg_allocate             0      0     24
       -> osal_msg_send                 0      0     24
       -> ZDApp_AnnounceNewAddress      0      0     24
     ZDO_ConcentratorIndicationCB       1      0     14
     ZDO_DeregisterForZdoCB             2      0      0
     ZDO_JoinConfirmCB                  1      0     14
       -> HalLedSet                     0      0     28
       -> HalLedSet                     0      0     28
       -> ZDApp_NVUpdate                0      0     28
       -> ZDApp_SendMsg                 0      0     28
     ZDO_JoinIndicationCB               2      0      1
       -> ZDApp_NVUpdate                4      0      0
     ZDO_LeaveCnf                       0      0     10
       -> NLME_GetExtAddr               0      0     20
       -> sAddrExtCmp                   0      0     20
       -> ZDApp_LeaveReset              0      0     20
       -> ZDApp_LeaveUpdate             0      0     20
     ZDO_LeaveInd                       1      0     12
       -> NLME_LeaveRsp                 0      0     24
       -> ZDApp_LeaveReset              0      0     24
       -> NLME_GetCoordShortAddr        0      0     24
       -> ZDApp_LeaveReset              0      0     24
       -> ZDApp_LeaveUpdate             0      0     24
     ZDO_ManytoOneFailureIndicationCB
                                        2      0      0
       -> RTG_MTORouteReq               4      0      0
     ZDO_NetworkDiscoveryConfirmCB      3      0      3
       -> ZDO_FinishProcessingMgmtNwkDiscReq
                                        4      0      6
       -> ZDApp_SendMsg                 4      0      6
     ZDO_NetworkFormationConfirmCB      0      0      9
       -> HalLedSet                     0      0     18
       -> HalLedSet                     0      0     18
       -> osal_set_event                0      0     18
     ZDO_PollConfirmCB                  0      0      0
     ZDO_RegisterForZdoCB               2      0      0
     ZDO_SrcRtgIndCB                    1      0     14
     ZDO_StartRouterConfirmCB           0      0      9
       -> HalLedSet                     0      0     18
       -> HalLedSet                     0      0     18
       -> osal_set_event                0      0     18
     ZDO_SyncIndicationCB               0      0      9
       -> nwkNeighborInitTable          0      0     18
       -> ZDApp_SendMsg                 0      0     18
     ZDO_UpdateDeviceIndication         0      0      0
     ZDO_beaconNotifyIndCB              1      0     14
       -> osal_mem_alloc                0      0     28
       -> osal_memset                   0      0     28
       -> sAddrExtCpy                   0      0     28
       -> osal_memset                   0      0     28


   Segment part sizes:

     Function/Label                              Bytes
     --------------                              -----
     MatchRsps                                      1
     zdoDiscCounter                                 1
     ZDAppNwkAddr                                   9
     zdappMgmtNwkDiscRspTransSeq                    1
     zdappMgmtNwkDiscReqInProgress                  1
     zdappMgmtNwkDiscRspAddr                        9
     zdappMgmtNwkDiscStartIndex                     1
     zdappMgmtSavedNwkState                         1
     nwkFrameCounterChanges                         2
     continueJoining                                1
     _tmpRejoinState                                1
     ZDO_UseExtendedPANID                           8
     zdoCBFunc                                     14
     ZDAppTaskID                                    1
     nwkStatus                                      1
     ZDApp_AutoFindMode_epDesc                      2
     ZDApp_LeaveCtrl                                1
     devState                                       1
     devStartMode                                   1
     retryCnt                                       1
     ZDApp_epDesc                                   6
     ZDApp_SavedPollRate                            2
     ZDApp_Init                                    85
     ??Subroutine51_0                               5
     ZDApp_SecInit                                 11
     ZDApp_event_loop                             235
     ??Subroutine43_0                               6
     ??Subroutine46_0                              14
     ??Subroutine61_0                               5
     ?Subroutine17                                  2
     ??Subroutine62_0                               5
     ??Subroutine63_0                               6
     ZDApp_ProcessSecEvent                        134
     ?Subroutine22                                  2
     ??Subroutine42_0                               3
     ??Subroutine48_0                               6
     ??Subroutine64_0                               6
     ZDOInitDevice                                189
     ??Subroutine44_0                               3
     ??Subroutine45_0                               5
     ?Subroutine13                                  6
     ZDApp_ReadNetworkRestoreState                 21
     ZDAppDetermineDeviceType                      74
     ??Subroutine50_0                               7
     ZDApp_NetworkStartEvt                         79
     ZDApp_DeviceAuthEvt                           66
     ?Subroutine8                                   5
     ?Subroutine20                                  9
     ?Subroutine40                                  6
     ZDApp_SaveNetworkStateEvt                     19
     ZDApp_RestoreNetworkState                     65
     ?Subroutine9                                  13
     ?Subroutine14                                  8
     ZDApp_InitUserDesc                            89
     ?Subroutine33                                 32
     ?Subroutine35                                  8
     ??Subroutine60_0                               3
     ZDAppCheckForHoldKey                          20
     ZDApp_ProcessOSALMsg                         449
     ?Subroutine34                                  1
     ??Subroutine47_0                               9
     ?Subroutine18                                  4
     ?Subroutine32                                 22
     ?Subroutine27                                 15
     ?Subroutine10                                 12
     ??Subroutine59_0                               6
     ZDApp_ProcessMsgCBs                          118
     ?Subroutine6                                   5
     ?Subroutine29                                 16
     ZDApp_RegisterCBs                             31
     ?Subroutine23                                  2
     ??Subroutine49_0                               9
     ZDApp_ProcessSecMsg                           73
     ZDApp_ProcessNetworkJoin                     381
     ?Subroutine7                                   5
     ?Subroutine11                                 12
     ?Subroutine2                                   2
     ZDApp_SaveNwkKey                             112
     ZDApp_ResetNwkKey                             48
     ZDApp_RestoreNwkKey                          141
     ZDApp_ResetTimerStart                         15
     ?Subroutine3                                   3
     ZDApp_ResetTimerCancel                        19
     ZDApp_LeaveCtrlInit                           71
     ZDApp_LeaveCtrlSet                            22
     ?Subroutine1                                  35
     ZDApp_LeaveCtrlReset                          13
     ZDApp_LeaveCtrlBypass                         15
     ZDApp_LeaveCtrlStartup                        47
     ZDApp_LeaveReset                              17
     ZDApp_LeaveUpdate                            148
     ??Subroutine58_0                               3
     ZDApp_NetworkDiscoveryReq                     11
     ZDApp_JoinReq                                 84
     ?Subroutine4                                   5
     ZDApp_DeviceConfigured                        87
     ZDApp_SendEventMsg                            17
     ?Subroutine24                                  9
     ZDApp_SendMsg                                 90
     ZDO_NetworkDiscoveryConfirmCB                 91
     ZDApp_NwkDescListProcessing                  275
     ?Subroutine21                                 10
     ??Subroutine52_0                               6
     ?Subroutine0                                   3
     ZDO_NetworkFormationConfirmCB                 25
     ?Subroutine37                                 19
     ZDO_beaconNotifyIndCB                        559
     ?Subroutine36                                  9
     ?Subroutine26                                  4
     ?Subroutine39                                 11
     ?Subroutine19                                  8
     ?Subroutine12                                  6
     ?Subroutine38                                 10
     ??Subroutine54_0                               6
     ??Subroutine55_0                               3
     ??Subroutine56_0                               5
     ZDO_StartRouterConfirmCB                      25
     ZDO_JoinConfirmCB                             99
     ?Subroutine5                                   8
     ZDO_AddrChangeIndicationCB                    84
     ?Subroutine15                                  5
     ??Subroutine57_0                               1
     ZDO_JoinIndicationCB                          12
     ZDO_ConcentratorIndicationCB                  60
     ZDO_LeaveCnf                                  86
     ?Subroutine30                                  3
     ??Subroutine53_0                               3
     ?Subroutine16                                 21
     ZDO_LeaveInd                                 161
     ?Subroutine31                                  3
     ZDO_SyncIndicationCB                          37
     ZDO_ManytoOneFailureIndicationCB
                                                   10
     ZDO_PollConfirmCB                              3
     AddrMgrWriteNVRequest                         15
     ?Subroutine25                                 18
     ZDO_UpdateDeviceIndication                     5
     ZDApp_InMsgCB                                 95
     ZDApp_ChangeMatchDescRespPermission
                                                   11
     ZDApp_NetworkInit                             27
     ZDApp_NwkStateUpdateCB                        16
     ZDApp_NodeProfileSync                         44
     ZDApp_StartJoiningCycle                       39
     ZDApp_StopJoiningCycle                        31
     ZDApp_AnnounceNewAddress                      59
     ZDApp_NVUpdate                                15
     ZDApp_CoordStartPANIDConflictCB
                                                   11
     ZDO_SrcRtgIndCB                               60
     ZDApp_InitZdoCBFunc                           19
     ?Subroutine28                                  9
     ?Subroutine41                                 17
     ZDO_RegisterForZdoCB                          27
     ZDO_DeregisterForZdoCB                        22
     ?<Initializer for zdoDiscCounter>              1
     ?<Initializer for continueJoining>             1
     ?<Initializer for devState>                    1
     ?<Initializer for ZDApp_epDesc>                6
     ?<Initializer for ZDApp_SavedPollRate>         2
     __Constant_1                                   4
     __Constant_3e8                                 4
     ??ZDApp_Init?relay                             6
     ??ZDApp_SecInit?relay                          6
     ??ZDApp_event_loop?relay                       6
     ??ZDApp_ProcessSecEvent?relay                  6
     ??ZDOInitDevice?relay                          6
     ??ZDApp_ReadNetworkRestoreState?relay          6
     ??ZDAppDetermineDeviceType?relay               6
     ??ZDApp_NetworkStartEvt?relay                  6
     ??ZDApp_DeviceAuthEvt?relay                    6
     ??ZDApp_SaveNetworkStateEvt?relay              6
     ??ZDApp_RestoreNetworkState?relay              6
     ??ZDApp_InitUserDesc?relay                     6
     ??ZDAppCheckForHoldKey?relay                   6
     ??ZDApp_ProcessOSALMsg?relay                   6
     ??ZDApp_ProcessMsgCBs?relay                    6
     ??ZDApp_RegisterCBs?relay                      6
     ??ZDApp_ProcessSecMsg?relay                    6
     ??ZDApp_ProcessNetworkJoin?relay               6
     ??ZDApp_SaveNwkKey?relay                       6
     ??ZDApp_ResetNwkKey?relay                      6
     ??ZDApp_RestoreNwkKey?relay                    6
     ??ZDApp_ResetTimerStart?relay                  6
     ??ZDApp_ResetTimerCancel?relay                 6
     ??ZDApp_LeaveCtrlInit?relay                    6
     ??ZDApp_LeaveCtrlSet?relay                     6
     ??ZDApp_LeaveCtrlReset?relay                   6
     ??ZDApp_LeaveCtrlBypass?relay                  6
     ??ZDApp_LeaveCtrlStartup?relay                 6
     ??ZDApp_LeaveReset?relay                       6
     ??ZDApp_LeaveUpdate?relay                      6
     ??ZDApp_NetworkDiscoveryReq?relay              6
     ??ZDApp_JoinReq?relay                          6
     ??ZDApp_DeviceConfigured?relay                 6
     ??ZDApp_SendEventMsg?relay                     6
     ??ZDApp_SendMsg?relay                          6
     ??ZDO_NetworkDiscoveryConfirmCB?relay          6
     ??ZDApp_NwkDescListProcessing?relay            6
     ??ZDO_NetworkFormationConfirmCB?relay          6
     ??ZDO_beaconNotifyIndCB?relay                  6
     ??ZDO_StartRouterConfirmCB?relay               6
     ??ZDO_JoinConfirmCB?relay                      6
     ??ZDO_AddrChangeIndicationCB?relay             6
     ??ZDO_JoinIndicationCB?relay                   6
     ??ZDO_ConcentratorIndicationCB?relay           6
     ??ZDO_LeaveCnf?relay                           6
     ??ZDO_LeaveInd?relay                           6
     ??ZDO_SyncIndicationCB?relay                   6
     ??ZDO_ManytoOneFailureIndicationCB?relay       6
     ??ZDO_PollConfirmCB?relay                      6
     ??AddrMgrWriteNVRequest?relay                  6
     ??ZDO_UpdateDeviceIndication?relay             6
     ??ZDApp_InMsgCB?relay                          6
     ??ZDApp_ChangeMatchDescRespPermission?relay    6
     ??ZDApp_NetworkInit?relay                      6
     ??ZDApp_NwkStateUpdateCB?relay                 6
     ??ZDApp_NodeProfileSync?relay                  6
     ??ZDApp_StartJoiningCycle?relay                6
     ??ZDApp_StopJoiningCycle?relay                 6
     ??ZDApp_AnnounceNewAddress?relay               6
     ??ZDApp_NVUpdate?relay                         6
     ??ZDApp_CoordStartPANIDConflictCB?relay        6
     ??ZDO_SrcRtgIndCB?relay                        6
     ??ZDApp_InitZdoCBFunc?relay                    6
     ??ZDO_RegisterForZdoCB?relay                   6
     ??ZDO_DeregisterForZdoCB?relay                 6

 
 5 647 bytes in segment BANKED_CODE
   390 bytes in segment BANK_RELAYS
    11 bytes in segment XDATA_I
    11 bytes in segment XDATA_ID
     8 bytes in segment XDATA_ROM_C
    55 bytes in segment XDATA_Z
 
 6 048 bytes of CODE  memory
     0 bytes of CONST memory (+ 8 bytes shared)
    66 bytes of XDATA memory

Errors: none
Warnings: none
